
DRONI-1.1-STABILIZER.elf:     file format elf32-littlearm

Sections:
Idx Name          Size      VMA       LMA       File off  Algn
  0 .text         00006874  00400000  00400000  00010000  2**6
                  CONTENTS, ALLOC, LOAD, READONLY, CODE
  1 .relocate     00000884  20400000  00406874  00020000  2**3
                  CONTENTS, ALLOC, LOAD, DATA
  2 .bss          00000508  20400888  00407100  00020888  2**3
                  ALLOC
  3 .stack        00000400  20400d90  00407608  00020888  2**0
                  ALLOC
  4 .heap         00000200  20401190  00407a08  00020888  2**0
                  ALLOC
  5 .ARM.attributes 0000002e  00000000  00000000  00020884  2**0
                  CONTENTS, READONLY
  6 .comment      00000059  00000000  00000000  000208b2  2**0
                  CONTENTS, READONLY
  7 .debug_frame  0000099c  00000000  00000000  0002090c  2**2
                  CONTENTS, READONLY, DEBUGGING

Disassembly of section .text:

00400000 <_sfixed>:
  400000:	20401190 	.word	0x20401190
  400004:	004001a1 	.word	0x004001a1
  400008:	0040019d 	.word	0x0040019d
  40000c:	0040019d 	.word	0x0040019d
  400010:	0040019d 	.word	0x0040019d
  400014:	0040019d 	.word	0x0040019d
  400018:	0040019d 	.word	0x0040019d
	...
  40002c:	0040019d 	.word	0x0040019d
  400030:	0040019d 	.word	0x0040019d
  400034:	00000000 	.word	0x00000000
  400038:	0040019d 	.word	0x0040019d
  40003c:	004017e5 	.word	0x004017e5
  400040:	0040019d 	.word	0x0040019d
  400044:	0040019d 	.word	0x0040019d
  400048:	0040019d 	.word	0x0040019d
  40004c:	0040019d 	.word	0x0040019d
  400050:	0040019d 	.word	0x0040019d
  400054:	0040019d 	.word	0x0040019d
  400058:	0040019d 	.word	0x0040019d
  40005c:	0040094d 	.word	0x0040094d
  400060:	0040019d 	.word	0x0040019d
  400064:	00000000 	.word	0x00000000
  400068:	00401f65 	.word	0x00401f65
  40006c:	00401f75 	.word	0x00401f75
  400070:	00000000 	.word	0x00000000
  400074:	0040019d 	.word	0x0040019d
  400078:	0040019d 	.word	0x0040019d
  40007c:	0040019d 	.word	0x0040019d
  400080:	00401f85 	.word	0x00401f85
  400084:	00000000 	.word	0x00000000
  400088:	0040019d 	.word	0x0040019d
  40008c:	0040019d 	.word	0x0040019d
  400090:	0040019d 	.word	0x0040019d
  400094:	0040019d 	.word	0x0040019d
  400098:	0040019d 	.word	0x0040019d
  40009c:	0040019d 	.word	0x0040019d
  4000a0:	0040019d 	.word	0x0040019d
  4000a4:	0040019d 	.word	0x0040019d
	...
  4000b4:	004017c5 	.word	0x004017c5
  4000b8:	0040019d 	.word	0x0040019d
  4000bc:	0040019d 	.word	0x0040019d
  4000c0:	0040019d 	.word	0x0040019d
  4000c4:	0040019d 	.word	0x0040019d
  4000c8:	0040019d 	.word	0x0040019d
  4000cc:	0040019d 	.word	0x0040019d
  4000d0:	00000000 	.word	0x00000000
  4000d4:	0040019d 	.word	0x0040019d
  4000d8:	00000000 	.word	0x00000000
  4000dc:	0040019d 	.word	0x0040019d
  4000e0:	004017d5 	.word	0x004017d5
  4000e4:	0040019d 	.word	0x0040019d
  4000e8:	0040019d 	.word	0x0040019d
  4000ec:	0040019d 	.word	0x0040019d
  4000f0:	0040019d 	.word	0x0040019d
  4000f4:	0040019d 	.word	0x0040019d
  4000f8:	0040019d 	.word	0x0040019d
	...
  400108:	0040019d 	.word	0x0040019d
  40010c:	0040019d 	.word	0x0040019d
  400110:	0040019d 	.word	0x0040019d
	...
  400120:	0040019d 	.word	0x0040019d
  400124:	0040019d 	.word	0x0040019d
  400128:	0040019d 	.word	0x0040019d
  40012c:	0040019d 	.word	0x0040019d
  400130:	0040019d 	.word	0x0040019d
	...
  40013c:	0040019d 	.word	0x0040019d

00400140 <__do_global_dtors_aux>:
  400140:	b510      	push	{r4, lr}
  400142:	4c05      	ldr	r4, [pc, #20]	; (400158 <__do_global_dtors_aux+0x18>)
  400144:	7823      	ldrb	r3, [r4, #0]
  400146:	b933      	cbnz	r3, 400156 <__do_global_dtors_aux+0x16>
  400148:	4b04      	ldr	r3, [pc, #16]	; (40015c <__do_global_dtors_aux+0x1c>)
  40014a:	b113      	cbz	r3, 400152 <__do_global_dtors_aux+0x12>
  40014c:	4804      	ldr	r0, [pc, #16]	; (400160 <__do_global_dtors_aux+0x20>)
  40014e:	f3af 8000 	nop.w
  400152:	2301      	movs	r3, #1
  400154:	7023      	strb	r3, [r4, #0]
  400156:	bd10      	pop	{r4, pc}
  400158:	20400888 	.word	0x20400888
  40015c:	00000000 	.word	0x00000000
  400160:	00406874 	.word	0x00406874

00400164 <frame_dummy>:
  400164:	4b08      	ldr	r3, [pc, #32]	; (400188 <frame_dummy+0x24>)
  400166:	b510      	push	{r4, lr}
  400168:	b11b      	cbz	r3, 400172 <frame_dummy+0xe>
  40016a:	4908      	ldr	r1, [pc, #32]	; (40018c <frame_dummy+0x28>)
  40016c:	4808      	ldr	r0, [pc, #32]	; (400190 <frame_dummy+0x2c>)
  40016e:	f3af 8000 	nop.w
  400172:	4808      	ldr	r0, [pc, #32]	; (400194 <frame_dummy+0x30>)
  400174:	6803      	ldr	r3, [r0, #0]
  400176:	b903      	cbnz	r3, 40017a <frame_dummy+0x16>
  400178:	bd10      	pop	{r4, pc}
  40017a:	4b07      	ldr	r3, [pc, #28]	; (400198 <frame_dummy+0x34>)
  40017c:	2b00      	cmp	r3, #0
  40017e:	d0fb      	beq.n	400178 <frame_dummy+0x14>
  400180:	e8bd 4010 	ldmia.w	sp!, {r4, lr}
  400184:	4718      	bx	r3
  400186:	bf00      	nop
  400188:	00000000 	.word	0x00000000
  40018c:	2040088c 	.word	0x2040088c
  400190:	00406874 	.word	0x00406874
  400194:	00406874 	.word	0x00406874
  400198:	00000000 	.word	0x00000000

0040019c <Dummy_Handler>:
  40019c:	e7fe      	b.n	40019c <Dummy_Handler>
	...

004001a0 <Reset_Handler>:
  4001a0:	b508      	push	{r3, lr}
  4001a2:	4a10      	ldr	r2, [pc, #64]	; (4001e4 <Reset_Handler+0x44>)
  4001a4:	4b10      	ldr	r3, [pc, #64]	; (4001e8 <Reset_Handler+0x48>)
  4001a6:	429a      	cmp	r2, r3
  4001a8:	d002      	beq.n	4001b0 <Reset_Handler+0x10>
  4001aa:	3a04      	subs	r2, #4
  4001ac:	490f      	ldr	r1, [pc, #60]	; (4001ec <Reset_Handler+0x4c>)
  4001ae:	e003      	b.n	4001b8 <Reset_Handler+0x18>
  4001b0:	4b0f      	ldr	r3, [pc, #60]	; (4001f0 <Reset_Handler+0x50>)
  4001b2:	2100      	movs	r1, #0
  4001b4:	4a0f      	ldr	r2, [pc, #60]	; (4001f4 <Reset_Handler+0x54>)
  4001b6:	e006      	b.n	4001c6 <Reset_Handler+0x26>
  4001b8:	428b      	cmp	r3, r1
  4001ba:	d2f9      	bcs.n	4001b0 <Reset_Handler+0x10>
  4001bc:	f852 0f04 	ldr.w	r0, [r2, #4]!
  4001c0:	f843 0b04 	str.w	r0, [r3], #4
  4001c4:	e7f8      	b.n	4001b8 <Reset_Handler+0x18>
  4001c6:	4293      	cmp	r3, r2
  4001c8:	d202      	bcs.n	4001d0 <Reset_Handler+0x30>
  4001ca:	f843 1b04 	str.w	r1, [r3], #4
  4001ce:	e7fa      	b.n	4001c6 <Reset_Handler+0x26>
  4001d0:	4b09      	ldr	r3, [pc, #36]	; (4001f8 <Reset_Handler+0x58>)
  4001d2:	4a0a      	ldr	r2, [pc, #40]	; (4001fc <Reset_Handler+0x5c>)
  4001d4:	f023 037f 	bic.w	r3, r3, #127	; 0x7f
  4001d8:	6093      	str	r3, [r2, #8]
  4001da:	4b09      	ldr	r3, [pc, #36]	; (400200 <Reset_Handler+0x60>)
  4001dc:	4798      	blx	r3
  4001de:	4b09      	ldr	r3, [pc, #36]	; (400204 <Reset_Handler+0x64>)
  4001e0:	4798      	blx	r3
  4001e2:	e7fe      	b.n	4001e2 <Reset_Handler+0x42>
  4001e4:	00406874 	.word	0x00406874
  4001e8:	20400000 	.word	0x20400000
  4001ec:	20400884 	.word	0x20400884
  4001f0:	20400888 	.word	0x20400888
  4001f4:	20400d90 	.word	0x20400d90
  4001f8:	00400000 	.word	0x00400000
  4001fc:	e000ed00 	.word	0xe000ed00
  400200:	0040371d 	.word	0x0040371d
  400204:	004014d5 	.word	0x004014d5

00400208 <_ZN10TinkerUart7printlnEPKc.isra.2>:
  400208:	b570      	push	{r4, r5, r6, lr}
  40020a:	4605      	mov	r5, r0
  40020c:	4c04      	ldr	r4, [pc, #16]	; (400220 <_ZN10TinkerUart7printlnEPKc.isra.2+0x18>)
  40020e:	6800      	ldr	r0, [r0, #0]
  400210:	47a0      	blx	r4
  400212:	6828      	ldr	r0, [r5, #0]
  400214:	4623      	mov	r3, r4
  400216:	4903      	ldr	r1, [pc, #12]	; (400224 <_ZN10TinkerUart7printlnEPKc.isra.2+0x1c>)
  400218:	e8bd 4070 	ldmia.w	sp!, {r4, r5, r6, lr}
  40021c:	4718      	bx	r3
  40021e:	bf00      	nop
  400220:	00401d95 	.word	0x00401d95
  400224:	00406498 	.word	0x00406498

00400228 <_ZN12TinkerBMI1604initEv.isra.4>:
  400228:	e92d 41f0 	stmdb	sp!, {r4, r5, r6, r7, r8, lr}
  40022c:	4d12      	ldr	r5, [pc, #72]	; (400278 <_ZN12TinkerBMI1604initEv.isra.4+0x50>)
  40022e:	4606      	mov	r6, r0
  400230:	4f12      	ldr	r7, [pc, #72]	; (40027c <_ZN12TinkerBMI1604initEv.isra.4+0x54>)
  400232:	221f      	movs	r2, #31
  400234:	216d      	movs	r1, #109	; 0x6d
  400236:	7800      	ldrb	r0, [r0, #0]
  400238:	47b8      	blx	r7
  40023a:	4c11      	ldr	r4, [pc, #68]	; (400280 <_ZN12TinkerBMI1604initEv.isra.4+0x58>)
  40023c:	4628      	mov	r0, r5
  40023e:	47a0      	blx	r4
  400240:	22b6      	movs	r2, #182	; 0xb6
  400242:	217e      	movs	r1, #126	; 0x7e
  400244:	7830      	ldrb	r0, [r6, #0]
  400246:	47b8      	blx	r7
  400248:	4628      	mov	r0, r5
  40024a:	47a0      	blx	r4
  40024c:	4b0d      	ldr	r3, [pc, #52]	; (400284 <_ZN12TinkerBMI1604initEv.isra.4+0x5c>)
  40024e:	217f      	movs	r1, #127	; 0x7f
  400250:	7830      	ldrb	r0, [r6, #0]
  400252:	4798      	blx	r3
  400254:	4628      	mov	r0, r5
  400256:	47a0      	blx	r4
  400258:	2211      	movs	r2, #17
  40025a:	217e      	movs	r1, #126	; 0x7e
  40025c:	7830      	ldrb	r0, [r6, #0]
  40025e:	47b8      	blx	r7
  400260:	4628      	mov	r0, r5
  400262:	47a0      	blx	r4
  400264:	7830      	ldrb	r0, [r6, #0]
  400266:	2215      	movs	r2, #21
  400268:	217e      	movs	r1, #126	; 0x7e
  40026a:	47b8      	blx	r7
  40026c:	4628      	mov	r0, r5
  40026e:	4623      	mov	r3, r4
  400270:	e8bd 41f0 	ldmia.w	sp!, {r4, r5, r6, r7, r8, lr}
  400274:	4718      	bx	r3
  400276:	bf00      	nop
  400278:	000186a0 	.word	0x000186a0
  40027c:	00401e71 	.word	0x00401e71
  400280:	004017f5 	.word	0x004017f5
  400284:	00401e41 	.word	0x00401e41

00400288 <_ZN10TinkerUart11printNumberEm>:
  400288:	b570      	push	{r4, r5, r6, lr}
  40028a:	1d05      	adds	r5, r0, #4
  40028c:	4604      	mov	r4, r0
  40028e:	4b04      	ldr	r3, [pc, #16]	; (4002a0 <_ZN10TinkerUart11printNumberEm+0x18>)
  400290:	4628      	mov	r0, r5
  400292:	4798      	blx	r3
  400294:	4629      	mov	r1, r5
  400296:	6820      	ldr	r0, [r4, #0]
  400298:	4b02      	ldr	r3, [pc, #8]	; (4002a4 <_ZN10TinkerUart11printNumberEm+0x1c>)
  40029a:	e8bd 4070 	ldmia.w	sp!, {r4, r5, r6, lr}
  40029e:	4718      	bx	r3
  4002a0:	00401815 	.word	0x00401815
  4002a4:	00401d95 	.word	0x00401d95

004002a8 <_ZN10TinkerUart13printlnDoubleEd>:
  4002a8:	e92d 4ff1 	stmdb	sp!, {r0, r4, r5, r6, r7, r8, r9, sl, fp, lr}
  4002ac:	4616      	mov	r6, r2
  4002ae:	461f      	mov	r7, r3
  4002b0:	4604      	mov	r4, r0
  4002b2:	f04f 4260 	mov.w	r2, #3758096384	; 0xe0000000
  4002b6:	4b3b      	ldr	r3, [pc, #236]	; (4003a4 <_ZN10TinkerUart13printlnDoubleEd+0xfc>)
  4002b8:	4630      	mov	r0, r6
  4002ba:	4639      	mov	r1, r7
  4002bc:	4d3a      	ldr	r5, [pc, #232]	; (4003a8 <_ZN10TinkerUart13printlnDoubleEd+0x100>)
  4002be:	47a8      	blx	r5
  4002c0:	b120      	cbz	r0, 4002cc <_ZN10TinkerUart13printlnDoubleEd+0x24>
  4002c2:	493a      	ldr	r1, [pc, #232]	; (4003ac <_ZN10TinkerUart13printlnDoubleEd+0x104>)
  4002c4:	6820      	ldr	r0, [r4, #0]
  4002c6:	4b3a      	ldr	r3, [pc, #232]	; (4003b0 <_ZN10TinkerUart13printlnDoubleEd+0x108>)
  4002c8:	4798      	blx	r3
  4002ca:	e063      	b.n	400394 <_ZN10TinkerUart13printlnDoubleEd+0xec>
  4002cc:	4d39      	ldr	r5, [pc, #228]	; (4003b4 <_ZN10TinkerUart13printlnDoubleEd+0x10c>)
  4002ce:	f04f 4260 	mov.w	r2, #3758096384	; 0xe0000000
  4002d2:	4b39      	ldr	r3, [pc, #228]	; (4003b8 <_ZN10TinkerUart13printlnDoubleEd+0x110>)
  4002d4:	4630      	mov	r0, r6
  4002d6:	4639      	mov	r1, r7
  4002d8:	47a8      	blx	r5
  4002da:	2800      	cmp	r0, #0
  4002dc:	d1f1      	bne.n	4002c2 <_ZN10TinkerUart13printlnDoubleEd+0x1a>
  4002de:	2200      	movs	r2, #0
  4002e0:	2300      	movs	r3, #0
  4002e2:	4630      	mov	r0, r6
  4002e4:	4639      	mov	r1, r7
  4002e6:	47a8      	blx	r5
  4002e8:	b130      	cbz	r0, 4002f8 <_ZN10TinkerUart13printlnDoubleEd+0x50>
  4002ea:	4b31      	ldr	r3, [pc, #196]	; (4003b0 <_ZN10TinkerUart13printlnDoubleEd+0x108>)
  4002ec:	4933      	ldr	r1, [pc, #204]	; (4003bc <_ZN10TinkerUart13printlnDoubleEd+0x114>)
  4002ee:	6820      	ldr	r0, [r4, #0]
  4002f0:	4798      	blx	r3
  4002f2:	f107 4300 	add.w	r3, r7, #2147483648	; 0x80000000
  4002f6:	461f      	mov	r7, r3
  4002f8:	250a      	movs	r5, #10
  4002fa:	f04f 0800 	mov.w	r8, #0
  4002fe:	f8df 90e0 	ldr.w	r9, [pc, #224]	; 4003e0 <_ZN10TinkerUart13printlnDoubleEd+0x138>
  400302:	f8df a0e0 	ldr.w	sl, [pc, #224]	; 4003e4 <_ZN10TinkerUart13printlnDoubleEd+0x13c>
  400306:	3d01      	subs	r5, #1
  400308:	4640      	mov	r0, r8
  40030a:	4649      	mov	r1, r9
  40030c:	2200      	movs	r2, #0
  40030e:	4b2c      	ldr	r3, [pc, #176]	; (4003c0 <_ZN10TinkerUart13printlnDoubleEd+0x118>)
  400310:	47d0      	blx	sl
  400312:	f015 05ff 	ands.w	r5, r5, #255	; 0xff
  400316:	4680      	mov	r8, r0
  400318:	4689      	mov	r9, r1
  40031a:	d1f4      	bne.n	400306 <_ZN10TinkerUart13printlnDoubleEd+0x5e>
  40031c:	4632      	mov	r2, r6
  40031e:	463b      	mov	r3, r7
  400320:	4d28      	ldr	r5, [pc, #160]	; (4003c4 <_ZN10TinkerUart13printlnDoubleEd+0x11c>)
  400322:	47a8      	blx	r5
  400324:	4b28      	ldr	r3, [pc, #160]	; (4003c8 <_ZN10TinkerUart13printlnDoubleEd+0x120>)
  400326:	460f      	mov	r7, r1
  400328:	4606      	mov	r6, r0
  40032a:	4798      	blx	r3
  40032c:	4b27      	ldr	r3, [pc, #156]	; (4003cc <_ZN10TinkerUart13printlnDoubleEd+0x124>)
  40032e:	4605      	mov	r5, r0
  400330:	f8df b0b4 	ldr.w	fp, [pc, #180]	; 4003e8 <_ZN10TinkerUart13printlnDoubleEd+0x140>
  400334:	4798      	blx	r3
  400336:	4602      	mov	r2, r0
  400338:	460b      	mov	r3, r1
  40033a:	4630      	mov	r0, r6
  40033c:	4639      	mov	r1, r7
  40033e:	f8df a0ac 	ldr.w	sl, [pc, #172]	; 4003ec <_ZN10TinkerUart13printlnDoubleEd+0x144>
  400342:	47d8      	blx	fp
  400344:	f8df 90a8 	ldr.w	r9, [pc, #168]	; 4003f0 <_ZN10TinkerUart13printlnDoubleEd+0x148>
  400348:	4606      	mov	r6, r0
  40034a:	460f      	mov	r7, r1
  40034c:	4620      	mov	r0, r4
  40034e:	4629      	mov	r1, r5
  400350:	250b      	movs	r5, #11
  400352:	47d0      	blx	sl
  400354:	491e      	ldr	r1, [pc, #120]	; (4003d0 <_ZN10TinkerUart13printlnDoubleEd+0x128>)
  400356:	6820      	ldr	r0, [r4, #0]
  400358:	4b15      	ldr	r3, [pc, #84]	; (4003b0 <_ZN10TinkerUart13printlnDoubleEd+0x108>)
  40035a:	4798      	blx	r3
  40035c:	3d01      	subs	r5, #1
  40035e:	f015 05ff 	ands.w	r5, r5, #255	; 0xff
  400362:	d017      	beq.n	400394 <_ZN10TinkerUart13printlnDoubleEd+0xec>
  400364:	2200      	movs	r2, #0
  400366:	4b16      	ldr	r3, [pc, #88]	; (4003c0 <_ZN10TinkerUart13printlnDoubleEd+0x118>)
  400368:	4630      	mov	r0, r6
  40036a:	4639      	mov	r1, r7
  40036c:	47c8      	blx	r9
  40036e:	4b19      	ldr	r3, [pc, #100]	; (4003d4 <_ZN10TinkerUart13printlnDoubleEd+0x12c>)
  400370:	460f      	mov	r7, r1
  400372:	4606      	mov	r6, r0
  400374:	4798      	blx	r3
  400376:	4680      	mov	r8, r0
  400378:	4601      	mov	r1, r0
  40037a:	4620      	mov	r0, r4
  40037c:	47d0      	blx	sl
  40037e:	4b16      	ldr	r3, [pc, #88]	; (4003d8 <_ZN10TinkerUart13printlnDoubleEd+0x130>)
  400380:	4640      	mov	r0, r8
  400382:	4798      	blx	r3
  400384:	4602      	mov	r2, r0
  400386:	460b      	mov	r3, r1
  400388:	4630      	mov	r0, r6
  40038a:	4639      	mov	r1, r7
  40038c:	47d8      	blx	fp
  40038e:	4606      	mov	r6, r0
  400390:	460f      	mov	r7, r1
  400392:	e7e3      	b.n	40035c <_ZN10TinkerUart13printlnDoubleEd+0xb4>
  400394:	4911      	ldr	r1, [pc, #68]	; (4003dc <_ZN10TinkerUart13printlnDoubleEd+0x134>)
  400396:	6820      	ldr	r0, [r4, #0]
  400398:	4b05      	ldr	r3, [pc, #20]	; (4003b0 <_ZN10TinkerUart13printlnDoubleEd+0x108>)
  40039a:	b001      	add	sp, #4
  40039c:	e8bd 4ff0 	ldmia.w	sp!, {r4, r5, r6, r7, r8, r9, sl, fp, lr}
  4003a0:	4718      	bx	r3
  4003a2:	bf00      	nop
  4003a4:	41efffff 	.word	0x41efffff
  4003a8:	00403599 	.word	0x00403599
  4003ac:	0040649a 	.word	0x0040649a
  4003b0:	00401d95 	.word	0x00401d95
  4003b4:	0040355d 	.word	0x0040355d
  4003b8:	c1efffff 	.word	0xc1efffff
  4003bc:	004064b2 	.word	0x004064b2
  4003c0:	40240000 	.word	0x40240000
  4003c4:	00402d15 	.word	0x00402d15
  4003c8:	00403629 	.word	0x00403629
  4003cc:	00402f8d 	.word	0x00402f8d
  4003d0:	0040649e 	.word	0x0040649e
  4003d4:	004035d9 	.word	0x004035d9
  4003d8:	00402fad 	.word	0x00402fad
  4003dc:	00406498 	.word	0x00406498
  4003e0:	3fe00000 	.word	0x3fe00000
  4003e4:	004032cd 	.word	0x004032cd
  4003e8:	00402d11 	.word	0x00402d11
  4003ec:	00400289 	.word	0x00400289
  4003f0:	00403079 	.word	0x00403079
  4003f4:	00000000 	.word	0x00000000

004003f8 <_ZN12TinkerBMI1606updateEv>:
  4003f8:	e92d 43f8 	stmdb	sp!, {r3, r4, r5, r6, r7, r8, r9, lr}
  4003fc:	2113      	movs	r1, #19
  4003fe:	4604      	mov	r4, r0
  400400:	4d41      	ldr	r5, [pc, #260]	; (400508 <_ZN12TinkerBMI1606updateEv+0x110>)
  400402:	7800      	ldrb	r0, [r0, #0]
  400404:	47a8      	blx	r5
  400406:	4606      	mov	r6, r0
  400408:	2112      	movs	r1, #18
  40040a:	7820      	ldrb	r0, [r4, #0]
  40040c:	47a8      	blx	r5
  40040e:	f8df 8104 	ldr.w	r8, [pc, #260]	; 400514 <_ZN12TinkerBMI1606updateEv+0x11c>
  400412:	ea40 2006 	orr.w	r0, r0, r6, lsl #8
  400416:	4f3d      	ldr	r7, [pc, #244]	; (40050c <_ZN12TinkerBMI1606updateEv+0x114>)
  400418:	4e3d      	ldr	r6, [pc, #244]	; (400510 <_ZN12TinkerBMI1606updateEv+0x118>)
  40041a:	b200      	sxth	r0, r0
  40041c:	47c0      	blx	r8
  40041e:	e9d4 2314 	ldrd	r2, r3, [r4, #80]	; 0x50
  400422:	47b8      	blx	r7
  400424:	a336      	add	r3, pc, #216	; (adr r3, 400500 <_ZN12TinkerBMI1606updateEv+0x108>)
  400426:	e9d3 2300 	ldrd	r2, r3, [r3]
  40042a:	47b0      	blx	r6
  40042c:	e9c4 0102 	strd	r0, r1, [r4, #8]
  400430:	2115      	movs	r1, #21
  400432:	7820      	ldrb	r0, [r4, #0]
  400434:	47a8      	blx	r5
  400436:	4681      	mov	r9, r0
  400438:	2114      	movs	r1, #20
  40043a:	7820      	ldrb	r0, [r4, #0]
  40043c:	47a8      	blx	r5
  40043e:	ea40 2009 	orr.w	r0, r0, r9, lsl #8
  400442:	b200      	sxth	r0, r0
  400444:	47c0      	blx	r8
  400446:	e9d4 2314 	ldrd	r2, r3, [r4, #80]	; 0x50
  40044a:	47b8      	blx	r7
  40044c:	a32c      	add	r3, pc, #176	; (adr r3, 400500 <_ZN12TinkerBMI1606updateEv+0x108>)
  40044e:	e9d3 2300 	ldrd	r2, r3, [r3]
  400452:	47b0      	blx	r6
  400454:	e9c4 0104 	strd	r0, r1, [r4, #16]
  400458:	2117      	movs	r1, #23
  40045a:	7820      	ldrb	r0, [r4, #0]
  40045c:	47a8      	blx	r5
  40045e:	4681      	mov	r9, r0
  400460:	2116      	movs	r1, #22
  400462:	7820      	ldrb	r0, [r4, #0]
  400464:	47a8      	blx	r5
  400466:	ea40 2009 	orr.w	r0, r0, r9, lsl #8
  40046a:	b200      	sxth	r0, r0
  40046c:	47c0      	blx	r8
  40046e:	e9d4 2314 	ldrd	r2, r3, [r4, #80]	; 0x50
  400472:	47b8      	blx	r7
  400474:	a322      	add	r3, pc, #136	; (adr r3, 400500 <_ZN12TinkerBMI1606updateEv+0x108>)
  400476:	e9d3 2300 	ldrd	r2, r3, [r3]
  40047a:	47b0      	blx	r6
  40047c:	e9c4 0106 	strd	r0, r1, [r4, #24]
  400480:	210d      	movs	r1, #13
  400482:	7820      	ldrb	r0, [r4, #0]
  400484:	47a8      	blx	r5
  400486:	4681      	mov	r9, r0
  400488:	210c      	movs	r1, #12
  40048a:	7820      	ldrb	r0, [r4, #0]
  40048c:	47a8      	blx	r5
  40048e:	ea40 2009 	orr.w	r0, r0, r9, lsl #8
  400492:	b200      	sxth	r0, r0
  400494:	47c0      	blx	r8
  400496:	e9d4 2316 	ldrd	r2, r3, [r4, #88]	; 0x58
  40049a:	47b8      	blx	r7
  40049c:	a318      	add	r3, pc, #96	; (adr r3, 400500 <_ZN12TinkerBMI1606updateEv+0x108>)
  40049e:	e9d3 2300 	ldrd	r2, r3, [r3]
  4004a2:	47b0      	blx	r6
  4004a4:	e9c4 0108 	strd	r0, r1, [r4, #32]
  4004a8:	210f      	movs	r1, #15
  4004aa:	7820      	ldrb	r0, [r4, #0]
  4004ac:	47a8      	blx	r5
  4004ae:	4681      	mov	r9, r0
  4004b0:	210e      	movs	r1, #14
  4004b2:	7820      	ldrb	r0, [r4, #0]
  4004b4:	47a8      	blx	r5
  4004b6:	ea40 2009 	orr.w	r0, r0, r9, lsl #8
  4004ba:	b200      	sxth	r0, r0
  4004bc:	47c0      	blx	r8
  4004be:	e9d4 2316 	ldrd	r2, r3, [r4, #88]	; 0x58
  4004c2:	47b8      	blx	r7
  4004c4:	a30e      	add	r3, pc, #56	; (adr r3, 400500 <_ZN12TinkerBMI1606updateEv+0x108>)
  4004c6:	e9d3 2300 	ldrd	r2, r3, [r3]
  4004ca:	47b0      	blx	r6
  4004cc:	e9c4 010a 	strd	r0, r1, [r4, #40]	; 0x28
  4004d0:	2111      	movs	r1, #17
  4004d2:	7820      	ldrb	r0, [r4, #0]
  4004d4:	47a8      	blx	r5
  4004d6:	4681      	mov	r9, r0
  4004d8:	2110      	movs	r1, #16
  4004da:	7820      	ldrb	r0, [r4, #0]
  4004dc:	47a8      	blx	r5
  4004de:	ea40 2009 	orr.w	r0, r0, r9, lsl #8
  4004e2:	b200      	sxth	r0, r0
  4004e4:	47c0      	blx	r8
  4004e6:	e9d4 2316 	ldrd	r2, r3, [r4, #88]	; 0x58
  4004ea:	47b8      	blx	r7
  4004ec:	a304      	add	r3, pc, #16	; (adr r3, 400500 <_ZN12TinkerBMI1606updateEv+0x108>)
  4004ee:	e9d3 2300 	ldrd	r2, r3, [r3]
  4004f2:	47b0      	blx	r6
  4004f4:	e9c4 010c 	strd	r0, r1, [r4, #48]	; 0x30
  4004f8:	e8bd 83f8 	ldmia.w	sp!, {r3, r4, r5, r6, r7, r8, r9, pc}
  4004fc:	f3af 8000 	nop.w
  400500:	00000000 	.word	0x00000000
  400504:	40dfffc0 	.word	0x40dfffc0
  400508:	00401e41 	.word	0x00401e41
  40050c:	00403079 	.word	0x00403079
  400510:	004032cd 	.word	0x004032cd
  400514:	00402fad 	.word	0x00402fad

00400518 <_ZN14DroniSensIMU114initEv>:
  400518:	b570      	push	{r4, r5, r6, lr}
  40051a:	4604      	mov	r4, r0
  40051c:	4d15      	ldr	r5, [pc, #84]	; (400574 <_ZN14DroniSensIMU114initEv+0x5c>)
  40051e:	3060      	adds	r0, #96	; 0x60
  400520:	47a8      	blx	r5
  400522:	4620      	mov	r0, r4
  400524:	47a8      	blx	r5
  400526:	f04f 4380 	mov.w	r3, #1073741824	; 0x40000000
  40052a:	2200      	movs	r2, #0
  40052c:	4d12      	ldr	r5, [pc, #72]	; (400578 <_ZN14DroniSensIMU114initEv+0x60>)
  40052e:	2141      	movs	r1, #65	; 0x41
  400530:	7820      	ldrb	r0, [r4, #0]
  400532:	e9c4 2314 	strd	r2, r3, [r4, #80]	; 0x50
  400536:	2203      	movs	r2, #3
  400538:	47a8      	blx	r5
  40053a:	4b10      	ldr	r3, [pc, #64]	; (40057c <_ZN14DroniSensIMU114initEv+0x64>)
  40053c:	2200      	movs	r2, #0
  40053e:	2143      	movs	r1, #67	; 0x43
  400540:	7820      	ldrb	r0, [r4, #0]
  400542:	e9c4 2316 	strd	r2, r3, [r4, #88]	; 0x58
  400546:	2203      	movs	r2, #3
  400548:	47a8      	blx	r5
  40054a:	4b0d      	ldr	r3, [pc, #52]	; (400580 <_ZN14DroniSensIMU114initEv+0x68>)
  40054c:	2200      	movs	r2, #0
  40054e:	2141      	movs	r1, #65	; 0x41
  400550:	f894 0060 	ldrb.w	r0, [r4, #96]	; 0x60
  400554:	e9c4 232c 	strd	r2, r3, [r4, #176]	; 0xb0
  400558:	2208      	movs	r2, #8
  40055a:	47a8      	blx	r5
  40055c:	2200      	movs	r2, #0
  40055e:	4b09      	ldr	r3, [pc, #36]	; (400584 <_ZN14DroniSensIMU114initEv+0x6c>)
  400560:	2143      	movs	r1, #67	; 0x43
  400562:	f894 0060 	ldrb.w	r0, [r4, #96]	; 0x60
  400566:	e9c4 232e 	strd	r2, r3, [r4, #184]	; 0xb8
  40056a:	462b      	mov	r3, r5
  40056c:	2201      	movs	r2, #1
  40056e:	e8bd 4070 	ldmia.w	sp!, {r4, r5, r6, lr}
  400572:	4718      	bx	r3
  400574:	00400229 	.word	0x00400229
  400578:	00401e71 	.word	0x00401e71
  40057c:	406f4000 	.word	0x406f4000
  400580:	40200000 	.word	0x40200000
  400584:	408f4000 	.word	0x408f4000

00400588 <_ZN13DroniAttitude4initEv>:
  400588:	e92d 4ff0 	stmdb	sp!, {r4, r5, r6, r7, r8, r9, sl, fp, lr}
  40058c:	f100 05b0 	add.w	r5, r0, #176	; 0xb0
  400590:	b085      	sub	sp, #20
  400592:	4b9b      	ldr	r3, [pc, #620]	; (400800 <_ZN13DroniAttitude4initEv+0x278>)
  400594:	4604      	mov	r4, r0
  400596:	4628      	mov	r0, r5
  400598:	f8df b278 	ldr.w	fp, [pc, #632]	; 400814 <_ZN13DroniAttitude4initEv+0x28c>
  40059c:	4798      	blx	r3
  40059e:	4628      	mov	r0, r5
  4005a0:	4d98      	ldr	r5, [pc, #608]	; (400804 <_ZN13DroniAttitude4initEv+0x27c>)
  4005a2:	47a8      	blx	r5
  4005a4:	f504 7088 	add.w	r0, r4, #272	; 0x110
  4005a8:	47a8      	blx	r5
  4005aa:	4d97      	ldr	r5, [pc, #604]	; (400808 <_ZN13DroniAttitude4initEv+0x280>)
  4005ac:	2200      	movs	r2, #0
  4005ae:	f04f 4380 	mov.w	r3, #1073741824	; 0x40000000
  4005b2:	46aa      	mov	sl, r5
  4005b4:	e9d4 6746 	ldrd	r6, r7, [r4, #280]	; 0x118
  4005b8:	4630      	mov	r0, r6
  4005ba:	4639      	mov	r1, r7
  4005bc:	47a8      	blx	r5
  4005be:	4d93      	ldr	r5, [pc, #588]	; (40080c <_ZN13DroniAttitude4initEv+0x284>)
  4005c0:	b9a0      	cbnz	r0, 4005ec <_ZN13DroniAttitude4initEv+0x64>
  4005c2:	a389      	add	r3, pc, #548	; (adr r3, 4007e8 <_ZN13DroniAttitude4initEv+0x260>)
  4005c4:	e9d3 2300 	ldrd	r2, r3, [r3]
  4005c8:	e9d4 012e 	ldrd	r0, r1, [r4, #184]	; 0xb8
  4005cc:	47a8      	blx	r5
  4005ce:	4680      	mov	r8, r0
  4005d0:	4689      	mov	r9, r1
  4005d2:	4630      	mov	r0, r6
  4005d4:	4639      	mov	r1, r7
  4005d6:	a386      	add	r3, pc, #536	; (adr r3, 4007f0 <_ZN13DroniAttitude4initEv+0x268>)
  4005d8:	e9d3 2300 	ldrd	r2, r3, [r3]
  4005dc:	47a8      	blx	r5
  4005de:	4602      	mov	r2, r0
  4005e0:	460b      	mov	r3, r1
  4005e2:	4640      	mov	r0, r8
  4005e4:	4649      	mov	r1, r9
  4005e6:	47d8      	blx	fp
  4005e8:	4606      	mov	r6, r0
  4005ea:	460f      	mov	r7, r1
  4005ec:	2200      	movs	r2, #0
  4005ee:	f04f 4380 	mov.w	r3, #1073741824	; 0x40000000
  4005f2:	ed94 7b48 	vldr	d7, [r4, #288]	; 0x120
  4005f6:	e9c4 6714 	strd	r6, r7, [r4, #80]	; 0x50
  4005fa:	ed8d 7b02 	vstr	d7, [sp, #8]
  4005fe:	ec51 0b17 	vmov	r0, r1, d7
  400602:	47d0      	blx	sl
  400604:	b9a0      	cbnz	r0, 400630 <_ZN13DroniAttitude4initEv+0xa8>
  400606:	a378      	add	r3, pc, #480	; (adr r3, 4007e8 <_ZN13DroniAttitude4initEv+0x260>)
  400608:	e9d3 2300 	ldrd	r2, r3, [r3]
  40060c:	e9d4 0130 	ldrd	r0, r1, [r4, #192]	; 0xc0
  400610:	47a8      	blx	r5
  400612:	4606      	mov	r6, r0
  400614:	460f      	mov	r7, r1
  400616:	a376      	add	r3, pc, #472	; (adr r3, 4007f0 <_ZN13DroniAttitude4initEv+0x268>)
  400618:	e9d3 2300 	ldrd	r2, r3, [r3]
  40061c:	e9dd 0102 	ldrd	r0, r1, [sp, #8]
  400620:	47a8      	blx	r5
  400622:	4602      	mov	r2, r0
  400624:	460b      	mov	r3, r1
  400626:	4630      	mov	r0, r6
  400628:	4639      	mov	r1, r7
  40062a:	47d8      	blx	fp
  40062c:	e9cd 0102 	strd	r0, r1, [sp, #8]
  400630:	ed9d 7b02 	vldr	d7, [sp, #8]
  400634:	2200      	movs	r2, #0
  400636:	f04f 4380 	mov.w	r3, #1073741824	; 0x40000000
  40063a:	ed84 7b16 	vstr	d7, [r4, #88]	; 0x58
  40063e:	ed94 7b4a 	vldr	d7, [r4, #296]	; 0x128
  400642:	ed8d 7b00 	vstr	d7, [sp]
  400646:	ec51 0b17 	vmov	r0, r1, d7
  40064a:	47d0      	blx	sl
  40064c:	b9a0      	cbnz	r0, 400678 <_ZN13DroniAttitude4initEv+0xf0>
  40064e:	a366      	add	r3, pc, #408	; (adr r3, 4007e8 <_ZN13DroniAttitude4initEv+0x260>)
  400650:	e9d3 2300 	ldrd	r2, r3, [r3]
  400654:	e9d4 0132 	ldrd	r0, r1, [r4, #200]	; 0xc8
  400658:	47a8      	blx	r5
  40065a:	4606      	mov	r6, r0
  40065c:	460f      	mov	r7, r1
  40065e:	a364      	add	r3, pc, #400	; (adr r3, 4007f0 <_ZN13DroniAttitude4initEv+0x268>)
  400660:	e9d3 2300 	ldrd	r2, r3, [r3]
  400664:	e9dd 0100 	ldrd	r0, r1, [sp]
  400668:	47a8      	blx	r5
  40066a:	4602      	mov	r2, r0
  40066c:	460b      	mov	r3, r1
  40066e:	4630      	mov	r0, r6
  400670:	4639      	mov	r1, r7
  400672:	47d8      	blx	fp
  400674:	e9cd 0100 	strd	r0, r1, [sp]
  400678:	ed9d 7b00 	vldr	d7, [sp]
  40067c:	e9d4 674c 	ldrd	r6, r7, [r4, #304]	; 0x130
  400680:	2200      	movs	r2, #0
  400682:	4b63      	ldr	r3, [pc, #396]	; (400810 <_ZN13DroniAttitude4initEv+0x288>)
  400684:	4630      	mov	r0, r6
  400686:	4639      	mov	r1, r7
  400688:	ed84 7b18 	vstr	d7, [r4, #96]	; 0x60
  40068c:	47d0      	blx	sl
  40068e:	b9a8      	cbnz	r0, 4006bc <_ZN13DroniAttitude4initEv+0x134>
  400690:	a355      	add	r3, pc, #340	; (adr r3, 4007e8 <_ZN13DroniAttitude4initEv+0x260>)
  400692:	e9d3 2300 	ldrd	r2, r3, [r3]
  400696:	e9d4 0134 	ldrd	r0, r1, [r4, #208]	; 0xd0
  40069a:	47a8      	blx	r5
  40069c:	4680      	mov	r8, r0
  40069e:	4689      	mov	r9, r1
  4006a0:	4630      	mov	r0, r6
  4006a2:	4639      	mov	r1, r7
  4006a4:	4e5b      	ldr	r6, [pc, #364]	; (400814 <_ZN13DroniAttitude4initEv+0x28c>)
  4006a6:	a352      	add	r3, pc, #328	; (adr r3, 4007f0 <_ZN13DroniAttitude4initEv+0x268>)
  4006a8:	e9d3 2300 	ldrd	r2, r3, [r3]
  4006ac:	47a8      	blx	r5
  4006ae:	4602      	mov	r2, r0
  4006b0:	460b      	mov	r3, r1
  4006b2:	4640      	mov	r0, r8
  4006b4:	4649      	mov	r1, r9
  4006b6:	47b0      	blx	r6
  4006b8:	4606      	mov	r6, r0
  4006ba:	460f      	mov	r7, r1
  4006bc:	2200      	movs	r2, #0
  4006be:	4b54      	ldr	r3, [pc, #336]	; (400810 <_ZN13DroniAttitude4initEv+0x288>)
  4006c0:	e9c4 671a 	strd	r6, r7, [r4, #104]	; 0x68
  4006c4:	e9d4 674e 	ldrd	r6, r7, [r4, #312]	; 0x138
  4006c8:	4630      	mov	r0, r6
  4006ca:	4639      	mov	r1, r7
  4006cc:	47d0      	blx	sl
  4006ce:	b9a8      	cbnz	r0, 4006fc <_ZN13DroniAttitude4initEv+0x174>
  4006d0:	a345      	add	r3, pc, #276	; (adr r3, 4007e8 <_ZN13DroniAttitude4initEv+0x260>)
  4006d2:	e9d3 2300 	ldrd	r2, r3, [r3]
  4006d6:	e9d4 0136 	ldrd	r0, r1, [r4, #216]	; 0xd8
  4006da:	47a8      	blx	r5
  4006dc:	4680      	mov	r8, r0
  4006de:	4689      	mov	r9, r1
  4006e0:	4630      	mov	r0, r6
  4006e2:	4639      	mov	r1, r7
  4006e4:	4e4b      	ldr	r6, [pc, #300]	; (400814 <_ZN13DroniAttitude4initEv+0x28c>)
  4006e6:	a342      	add	r3, pc, #264	; (adr r3, 4007f0 <_ZN13DroniAttitude4initEv+0x268>)
  4006e8:	e9d3 2300 	ldrd	r2, r3, [r3]
  4006ec:	47a8      	blx	r5
  4006ee:	4602      	mov	r2, r0
  4006f0:	460b      	mov	r3, r1
  4006f2:	4640      	mov	r0, r8
  4006f4:	4649      	mov	r1, r9
  4006f6:	47b0      	blx	r6
  4006f8:	4606      	mov	r6, r0
  4006fa:	460f      	mov	r7, r1
  4006fc:	2200      	movs	r2, #0
  4006fe:	4b44      	ldr	r3, [pc, #272]	; (400810 <_ZN13DroniAttitude4initEv+0x288>)
  400700:	e9c4 671c 	strd	r6, r7, [r4, #112]	; 0x70
  400704:	e9d4 6750 	ldrd	r6, r7, [r4, #320]	; 0x140
  400708:	4630      	mov	r0, r6
  40070a:	4639      	mov	r1, r7
  40070c:	47d0      	blx	sl
  40070e:	b9a8      	cbnz	r0, 40073c <_ZN13DroniAttitude4initEv+0x1b4>
  400710:	a335      	add	r3, pc, #212	; (adr r3, 4007e8 <_ZN13DroniAttitude4initEv+0x260>)
  400712:	e9d3 2300 	ldrd	r2, r3, [r3]
  400716:	e9d4 0138 	ldrd	r0, r1, [r4, #224]	; 0xe0
  40071a:	47a8      	blx	r5
  40071c:	4680      	mov	r8, r0
  40071e:	4689      	mov	r9, r1
  400720:	4630      	mov	r0, r6
  400722:	4639      	mov	r1, r7
  400724:	4e3b      	ldr	r6, [pc, #236]	; (400814 <_ZN13DroniAttitude4initEv+0x28c>)
  400726:	a332      	add	r3, pc, #200	; (adr r3, 4007f0 <_ZN13DroniAttitude4initEv+0x268>)
  400728:	e9d3 2300 	ldrd	r2, r3, [r3]
  40072c:	47a8      	blx	r5
  40072e:	4602      	mov	r2, r0
  400730:	460b      	mov	r3, r1
  400732:	4640      	mov	r0, r8
  400734:	4649      	mov	r1, r9
  400736:	47b0      	blx	r6
  400738:	4606      	mov	r6, r0
  40073a:	460f      	mov	r7, r1
  40073c:	f8df a0ec 	ldr.w	sl, [pc, #236]	; 40082c <_ZN13DroniAttitude4initEv+0x2a4>
  400740:	e9c4 671e 	strd	r6, r7, [r4, #120]	; 0x78
  400744:	e9dd 2300 	ldrd	r2, r3, [sp]
  400748:	e9dd 0102 	ldrd	r0, r1, [sp, #8]
  40074c:	4e32      	ldr	r6, [pc, #200]	; (400818 <_ZN13DroniAttitude4initEv+0x290>)
  40074e:	47b0      	blx	r6
  400750:	a329      	add	r3, pc, #164	; (adr r3, 4007f8 <_ZN13DroniAttitude4initEv+0x270>)
  400752:	e9d3 2300 	ldrd	r2, r3, [r3]
  400756:	47a8      	blx	r5
  400758:	6d23      	ldr	r3, [r4, #80]	; 0x50
  40075a:	4680      	mov	r8, r0
  40075c:	4689      	mov	r9, r1
  40075e:	9300      	str	r3, [sp, #0]
  400760:	6d63      	ldr	r3, [r4, #84]	; 0x54
  400762:	f103 4300 	add.w	r3, r3, #2147483648	; 0x80000000
  400766:	ed94 7b18 	vldr	d7, [r4, #96]	; 0x60
  40076a:	9301      	str	r3, [sp, #4]
  40076c:	e9d4 2316 	ldrd	r2, r3, [r4, #88]	; 0x58
  400770:	ed8d 7b02 	vstr	d7, [sp, #8]
  400774:	4610      	mov	r0, r2
  400776:	4619      	mov	r1, r3
  400778:	47a8      	blx	r5
  40077a:	4606      	mov	r6, r0
  40077c:	460f      	mov	r7, r1
  40077e:	e9dd 2302 	ldrd	r2, r3, [sp, #8]
  400782:	4610      	mov	r0, r2
  400784:	4619      	mov	r1, r3
  400786:	47a8      	blx	r5
  400788:	4602      	mov	r2, r0
  40078a:	460b      	mov	r3, r1
  40078c:	4630      	mov	r0, r6
  40078e:	4639      	mov	r1, r7
  400790:	4e22      	ldr	r6, [pc, #136]	; (40081c <_ZN13DroniAttitude4initEv+0x294>)
  400792:	47d8      	blx	fp
  400794:	4b22      	ldr	r3, [pc, #136]	; (400820 <_ZN13DroniAttitude4initEv+0x298>)
  400796:	4798      	blx	r3
  400798:	4602      	mov	r2, r0
  40079a:	460b      	mov	r3, r1
  40079c:	e9dd 0100 	ldrd	r0, r1, [sp]
  4007a0:	47b0      	blx	r6
  4007a2:	4b20      	ldr	r3, [pc, #128]	; (400824 <_ZN13DroniAttitude4initEv+0x29c>)
  4007a4:	4798      	blx	r3
  4007a6:	a314      	add	r3, pc, #80	; (adr r3, 4007f8 <_ZN13DroniAttitude4initEv+0x270>)
  4007a8:	e9d3 2300 	ldrd	r2, r3, [r3]
  4007ac:	47a8      	blx	r5
  4007ae:	4606      	mov	r6, r0
  4007b0:	460f      	mov	r7, r1
  4007b2:	4640      	mov	r0, r8
  4007b4:	4649      	mov	r1, r9
  4007b6:	4d1c      	ldr	r5, [pc, #112]	; (400828 <_ZN13DroniAttitude4initEv+0x2a0>)
  4007b8:	47d0      	blx	sl
  4007ba:	4601      	mov	r1, r0
  4007bc:	4620      	mov	r0, r4
  4007be:	47a8      	blx	r5
  4007c0:	4639      	mov	r1, r7
  4007c2:	4630      	mov	r0, r6
  4007c4:	47d0      	blx	sl
  4007c6:	4601      	mov	r1, r0
  4007c8:	f104 0028 	add.w	r0, r4, #40	; 0x28
  4007cc:	47a8      	blx	r5
  4007ce:	e9c4 8920 	strd	r8, r9, [r4, #128]	; 0x80
  4007d2:	e9c4 6722 	strd	r6, r7, [r4, #136]	; 0x88
  4007d6:	e9c4 8924 	strd	r8, r9, [r4, #144]	; 0x90
  4007da:	e9c4 6726 	strd	r6, r7, [r4, #152]	; 0x98
  4007de:	b005      	add	sp, #20
  4007e0:	e8bd 8ff0 	ldmia.w	sp!, {r4, r5, r6, r7, r8, r9, sl, fp, pc}
  4007e4:	f3af 8000 	nop.w
  4007e8:	9999999a 	.word	0x9999999a
  4007ec:	3fe99999 	.word	0x3fe99999
  4007f0:	9999999a 	.word	0x9999999a
  4007f4:	3fc99999 	.word	0x3fc99999
  4007f8:	1a63c1f8 	.word	0x1a63c1f8
  4007fc:	404ca5dc 	.word	0x404ca5dc
  400800:	00400519 	.word	0x00400519
  400804:	004003f9 	.word	0x004003f9
  400808:	00403599 	.word	0x00403599
  40080c:	00403079 	.word	0x00403079
  400810:	406f4000 	.word	0x406f4000
  400814:	00402d15 	.word	0x00402d15
  400818:	00402935 	.word	0x00402935
  40081c:	004032cd 	.word	0x004032cd
  400820:	00402939 	.word	0x00402939
  400824:	004025f1 	.word	0x004025f1
  400828:	00401933 	.word	0x00401933
  40082c:	00403669 	.word	0x00403669

00400830 <_Z11parseAnglesPc>:
  400830:	e92d 41f0 	stmdb	sp!, {r4, r5, r6, r7, r8, lr}
  400834:	b096      	sub	sp, #88	; 0x58
  400836:	4c3d      	ldr	r4, [pc, #244]	; (40092c <_Z11parseAnglesPc+0xfc>)
  400838:	4605      	mov	r5, r0
  40083a:	493d      	ldr	r1, [pc, #244]	; (400930 <_Z11parseAnglesPc+0x100>)
  40083c:	a802      	add	r0, sp, #8
  40083e:	4f3d      	ldr	r7, [pc, #244]	; (400934 <_Z11parseAnglesPc+0x104>)
  400840:	47a0      	blx	r4
  400842:	493b      	ldr	r1, [pc, #236]	; (400930 <_Z11parseAnglesPc+0x100>)
  400844:	a807      	add	r0, sp, #28
  400846:	462e      	mov	r6, r5
  400848:	47a0      	blx	r4
  40084a:	4939      	ldr	r1, [pc, #228]	; (400930 <_Z11parseAnglesPc+0x100>)
  40084c:	a80c      	add	r0, sp, #48	; 0x30
  40084e:	47a0      	blx	r4
  400850:	4937      	ldr	r1, [pc, #220]	; (400930 <_Z11parseAnglesPc+0x100>)
  400852:	a811      	add	r0, sp, #68	; 0x44
  400854:	47a0      	blx	r4
  400856:	782b      	ldrb	r3, [r5, #0]
  400858:	2400      	movs	r4, #0
  40085a:	f88d 3004 	strb.w	r3, [sp, #4]
  40085e:	f88d 4005 	strb.w	r4, [sp, #5]
  400862:	2b00      	cmp	r3, #0
  400864:	d049      	beq.n	4008fa <_Z11parseAnglesPc+0xca>
  400866:	2c64      	cmp	r4, #100	; 0x64
  400868:	d00e      	beq.n	400888 <_Z11parseAnglesPc+0x58>
  40086a:	7833      	ldrb	r3, [r6, #0]
  40086c:	a901      	add	r1, sp, #4
  40086e:	a802      	add	r0, sp, #8
  400870:	f88d 3004 	strb.w	r3, [sp, #4]
  400874:	47b8      	blx	r7
  400876:	f816 3f01 	ldrb.w	r3, [r6, #1]!
  40087a:	1c62      	adds	r2, r4, #1
  40087c:	2b20      	cmp	r3, #32
  40087e:	d001      	beq.n	400884 <_Z11parseAnglesPc+0x54>
  400880:	4614      	mov	r4, r2
  400882:	e7ee      	b.n	400862 <_Z11parseAnglesPc+0x32>
  400884:	3402      	adds	r4, #2
  400886:	5d2b      	ldrb	r3, [r5, r4]
  400888:	192f      	adds	r7, r5, r4
  40088a:	f8df 80a8 	ldr.w	r8, [pc, #168]	; 400934 <_Z11parseAnglesPc+0x104>
  40088e:	2b00      	cmp	r3, #0
  400890:	d033      	beq.n	4008fa <_Z11parseAnglesPc+0xca>
  400892:	2c63      	cmp	r4, #99	; 0x63
  400894:	dc31      	bgt.n	4008fa <_Z11parseAnglesPc+0xca>
  400896:	783b      	ldrb	r3, [r7, #0]
  400898:	a901      	add	r1, sp, #4
  40089a:	a807      	add	r0, sp, #28
  40089c:	4e25      	ldr	r6, [pc, #148]	; (400934 <_Z11parseAnglesPc+0x104>)
  40089e:	f88d 3004 	strb.w	r3, [sp, #4]
  4008a2:	47c0      	blx	r8
  4008a4:	f817 3f01 	ldrb.w	r3, [r7, #1]!
  4008a8:	1c62      	adds	r2, r4, #1
  4008aa:	2b20      	cmp	r3, #32
  4008ac:	d001      	beq.n	4008b2 <_Z11parseAnglesPc+0x82>
  4008ae:	4614      	mov	r4, r2
  4008b0:	e7ed      	b.n	40088e <_Z11parseAnglesPc+0x5e>
  4008b2:	3402      	adds	r4, #2
  4008b4:	5d2b      	ldrb	r3, [r5, r4]
  4008b6:	192f      	adds	r7, r5, r4
  4008b8:	b1fb      	cbz	r3, 4008fa <_Z11parseAnglesPc+0xca>
  4008ba:	2c63      	cmp	r4, #99	; 0x63
  4008bc:	dc1d      	bgt.n	4008fa <_Z11parseAnglesPc+0xca>
  4008be:	783b      	ldrb	r3, [r7, #0]
  4008c0:	a901      	add	r1, sp, #4
  4008c2:	a80c      	add	r0, sp, #48	; 0x30
  4008c4:	f88d 3004 	strb.w	r3, [sp, #4]
  4008c8:	47b0      	blx	r6
  4008ca:	f817 3f01 	ldrb.w	r3, [r7, #1]!
  4008ce:	1c62      	adds	r2, r4, #1
  4008d0:	2b20      	cmp	r3, #32
  4008d2:	d001      	beq.n	4008d8 <_Z11parseAnglesPc+0xa8>
  4008d4:	4614      	mov	r4, r2
  4008d6:	e7ef      	b.n	4008b8 <_Z11parseAnglesPc+0x88>
  4008d8:	3402      	adds	r4, #2
  4008da:	5d2b      	ldrb	r3, [r5, r4]
  4008dc:	442c      	add	r4, r5
  4008de:	b163      	cbz	r3, 4008fa <_Z11parseAnglesPc+0xca>
  4008e0:	1b63      	subs	r3, r4, r5
  4008e2:	2b63      	cmp	r3, #99	; 0x63
  4008e4:	dc09      	bgt.n	4008fa <_Z11parseAnglesPc+0xca>
  4008e6:	7823      	ldrb	r3, [r4, #0]
  4008e8:	a901      	add	r1, sp, #4
  4008ea:	a811      	add	r0, sp, #68	; 0x44
  4008ec:	f88d 3004 	strb.w	r3, [sp, #4]
  4008f0:	47b0      	blx	r6
  4008f2:	f814 3f01 	ldrb.w	r3, [r4, #1]!
  4008f6:	2b20      	cmp	r3, #32
  4008f8:	d1f1      	bne.n	4008de <_Z11parseAnglesPc+0xae>
  4008fa:	4c0f      	ldr	r4, [pc, #60]	; (400938 <_Z11parseAnglesPc+0x108>)
  4008fc:	a802      	add	r0, sp, #8
  4008fe:	47a0      	blx	r4
  400900:	4b0e      	ldr	r3, [pc, #56]	; (40093c <_Z11parseAnglesPc+0x10c>)
  400902:	e9c3 0100 	strd	r0, r1, [r3]
  400906:	a807      	add	r0, sp, #28
  400908:	47a0      	blx	r4
  40090a:	4b0d      	ldr	r3, [pc, #52]	; (400940 <_Z11parseAnglesPc+0x110>)
  40090c:	e9c3 0100 	strd	r0, r1, [r3]
  400910:	a80c      	add	r0, sp, #48	; 0x30
  400912:	47a0      	blx	r4
  400914:	4b0b      	ldr	r3, [pc, #44]	; (400944 <_Z11parseAnglesPc+0x114>)
  400916:	e9c3 0100 	strd	r0, r1, [r3]
  40091a:	a811      	add	r0, sp, #68	; 0x44
  40091c:	47a0      	blx	r4
  40091e:	4b0a      	ldr	r3, [pc, #40]	; (400948 <_Z11parseAnglesPc+0x118>)
  400920:	e9c3 0100 	strd	r0, r1, [r3]
  400924:	b016      	add	sp, #88	; 0x58
  400926:	e8bd 81f0 	ldmia.w	sp!, {r4, r5, r6, r7, r8, pc}
  40092a:	bf00      	nop
  40092c:	00403849 	.word	0x00403849
  400930:	004064a0 	.word	0x004064a0
  400934:	00403809 	.word	0x00403809
  400938:	00403709 	.word	0x00403709
  40093c:	20400be0 	.word	0x20400be0
  400940:	20400a90 	.word	0x20400a90
  400944:	20400a88 	.word	0x20400a88
  400948:	204008e8 	.word	0x204008e8

0040094c <UART0_Handler>:
  40094c:	e92d 41f0 	stmdb	sp!, {r4, r5, r6, r7, r8, lr}
  400950:	4d23      	ldr	r5, [pc, #140]	; (4009e0 <UART0_Handler+0x94>)
  400952:	4c24      	ldr	r4, [pc, #144]	; (4009e4 <UART0_Handler+0x98>)
  400954:	696e      	ldr	r6, [r5, #20]
  400956:	4924      	ldr	r1, [pc, #144]	; (4009e8 <UART0_Handler+0x9c>)
  400958:	4821      	ldr	r0, [pc, #132]	; (4009e0 <UART0_Handler+0x94>)
  40095a:	47a0      	blx	r4
  40095c:	2800      	cmp	r0, #0
  40095e:	d1fa      	bne.n	400956 <UART0_Handler+0xa>
  400960:	4c22      	ldr	r4, [pc, #136]	; (4009ec <UART0_Handler+0xa0>)
  400962:	4f21      	ldr	r7, [pc, #132]	; (4009e8 <UART0_Handler+0x9c>)
  400964:	6823      	ldr	r3, [r4, #0]
  400966:	f8df 80a4 	ldr.w	r8, [pc, #164]	; 400a0c <UART0_Handler+0xc0>
  40096a:	2bff      	cmp	r3, #255	; 0xff
  40096c:	7839      	ldrb	r1, [r7, #0]
  40096e:	4b20      	ldr	r3, [pc, #128]	; (4009f0 <UART0_Handler+0xa4>)
  400970:	bf88      	it	hi
  400972:	6020      	strhi	r0, [r4, #0]
  400974:	f8d8 0000 	ldr.w	r0, [r8]
  400978:	4798      	blx	r3
  40097a:	4b1e      	ldr	r3, [pc, #120]	; (4009f4 <UART0_Handler+0xa8>)
  40097c:	491e      	ldr	r1, [pc, #120]	; (4009f8 <UART0_Handler+0xac>)
  40097e:	f8d8 0000 	ldr.w	r0, [r8]
  400982:	4798      	blx	r3
  400984:	783a      	ldrb	r2, [r7, #0]
  400986:	4b1d      	ldr	r3, [pc, #116]	; (4009fc <UART0_Handler+0xb0>)
  400988:	2a7b      	cmp	r2, #123	; 0x7b
  40098a:	d102      	bne.n	400992 <UART0_Handler+0x46>
  40098c:	2201      	movs	r2, #1
  40098e:	701a      	strb	r2, [r3, #0]
  400990:	e01d      	b.n	4009ce <UART0_Handler+0x82>
  400992:	2a7d      	cmp	r2, #125	; 0x7d
  400994:	d10a      	bne.n	4009ac <UART0_Handler+0x60>
  400996:	6821      	ldr	r1, [r4, #0]
  400998:	2200      	movs	r2, #0
  40099a:	4819      	ldr	r0, [pc, #100]	; (400a00 <UART0_Handler+0xb4>)
  40099c:	6022      	str	r2, [r4, #0]
  40099e:	5442      	strb	r2, [r0, r1]
  4009a0:	7819      	ldrb	r1, [r3, #0]
  4009a2:	b1a1      	cbz	r1, 4009ce <UART0_Handler+0x82>
  4009a4:	701a      	strb	r2, [r3, #0]
  4009a6:	4b17      	ldr	r3, [pc, #92]	; (400a04 <UART0_Handler+0xb8>)
  4009a8:	4798      	blx	r3
  4009aa:	e010      	b.n	4009ce <UART0_Handler+0x82>
  4009ac:	781b      	ldrb	r3, [r3, #0]
  4009ae:	b173      	cbz	r3, 4009ce <UART0_Handler+0x82>
  4009b0:	f1a2 0320 	sub.w	r3, r2, #32
  4009b4:	b2db      	uxtb	r3, r3
  4009b6:	2b19      	cmp	r3, #25
  4009b8:	d809      	bhi.n	4009ce <UART0_Handler+0x82>
  4009ba:	4913      	ldr	r1, [pc, #76]	; (400a08 <UART0_Handler+0xbc>)
  4009bc:	fa21 f303 	lsr.w	r3, r1, r3
  4009c0:	07db      	lsls	r3, r3, #31
  4009c2:	d504      	bpl.n	4009ce <UART0_Handler+0x82>
  4009c4:	6823      	ldr	r3, [r4, #0]
  4009c6:	490e      	ldr	r1, [pc, #56]	; (400a00 <UART0_Handler+0xb4>)
  4009c8:	54ca      	strb	r2, [r1, r3]
  4009ca:	3301      	adds	r3, #1
  4009cc:	6023      	str	r3, [r4, #0]
  4009ce:	f016 0f60 	tst.w	r6, #96	; 0x60
  4009d2:	d003      	beq.n	4009dc <UART0_Handler+0x90>
  4009d4:	682b      	ldr	r3, [r5, #0]
  4009d6:	f443 7380 	orr.w	r3, r3, #256	; 0x100
  4009da:	602b      	str	r3, [r5, #0]
  4009dc:	e8bd 81f0 	ldmia.w	sp!, {r4, r5, r6, r7, r8, pc}
  4009e0:	400e0800 	.word	0x400e0800
  4009e4:	00402481 	.word	0x00402481
  4009e8:	204008e0 	.word	0x204008e0
  4009ec:	204008f0 	.word	0x204008f0
  4009f0:	00401d19 	.word	0x00401d19
  4009f4:	00401d95 	.word	0x00401d95
  4009f8:	00406498 	.word	0x00406498
  4009fc:	20400910 	.word	0x20400910
  400a00:	20400ae0 	.word	0x20400ae0
  400a04:	00400831 	.word	0x00400831
  400a08:	03ff4001 	.word	0x03ff4001
  400a0c:	204008c0 	.word	0x204008c0

00400a10 <_ZN13DroniAttitudeC1Ev>:
  400a10:	b5f8      	push	{r3, r4, r5, r6, r7, lr}
  400a12:	4604      	mov	r4, r0
  400a14:	4d1f      	ldr	r5, [pc, #124]	; (400a94 <_ZN13DroniAttitudeC1Ev+0x84>)
  400a16:	47a8      	blx	r5
  400a18:	2600      	movs	r6, #0
  400a1a:	f104 0028 	add.w	r0, r4, #40	; 0x28
  400a1e:	f04f 4780 	mov.w	r7, #1073741824	; 0x40000000
  400a22:	47a8      	blx	r5
  400a24:	2200      	movs	r2, #0
  400a26:	2300      	movs	r3, #0
  400a28:	2168      	movs	r1, #104	; 0x68
  400a2a:	2000      	movs	r0, #0
  400a2c:	f884 10b0 	strb.w	r1, [r4, #176]	; 0xb0
  400a30:	4919      	ldr	r1, [pc, #100]	; (400a98 <_ZN13DroniAttitudeC1Ev+0x88>)
  400a32:	e9c4 232e 	strd	r2, r3, [r4, #184]	; 0xb8
  400a36:	e9c4 2330 	strd	r2, r3, [r4, #192]	; 0xc0
  400a3a:	e9c4 2332 	strd	r2, r3, [r4, #200]	; 0xc8
  400a3e:	e9c4 2334 	strd	r2, r3, [r4, #208]	; 0xd0
  400a42:	e9c4 2336 	strd	r2, r3, [r4, #216]	; 0xd8
  400a46:	e9c4 2338 	strd	r2, r3, [r4, #224]	; 0xe0
  400a4a:	e9c4 233a 	strd	r2, r3, [r4, #232]	; 0xe8
  400a4e:	e9c4 233c 	strd	r2, r3, [r4, #240]	; 0xf0
  400a52:	e9c4 233e 	strd	r2, r3, [r4, #248]	; 0xf8
  400a56:	e9c4 2346 	strd	r2, r3, [r4, #280]	; 0x118
  400a5a:	e9c4 2348 	strd	r2, r3, [r4, #288]	; 0x120
  400a5e:	e9c4 234a 	strd	r2, r3, [r4, #296]	; 0x128
  400a62:	e9c4 234c 	strd	r2, r3, [r4, #304]	; 0x130
  400a66:	e9c4 234e 	strd	r2, r3, [r4, #312]	; 0x138
  400a6a:	e9c4 2350 	strd	r2, r3, [r4, #320]	; 0x140
  400a6e:	e9c4 2352 	strd	r2, r3, [r4, #328]	; 0x148
  400a72:	e9c4 2354 	strd	r2, r3, [r4, #336]	; 0x150
  400a76:	e9c4 2356 	strd	r2, r3, [r4, #344]	; 0x158
  400a7a:	2369      	movs	r3, #105	; 0x69
  400a7c:	e9c4 0142 	strd	r0, r1, [r4, #264]	; 0x108
  400a80:	e9c4 015a 	strd	r0, r1, [r4, #360]	; 0x168
  400a84:	e9c4 6740 	strd	r6, r7, [r4, #256]	; 0x100
  400a88:	f884 3110 	strb.w	r3, [r4, #272]	; 0x110
  400a8c:	4620      	mov	r0, r4
  400a8e:	e9c4 6758 	strd	r6, r7, [r4, #352]	; 0x160
  400a92:	bdf8      	pop	{r3, r4, r5, r6, r7, pc}
  400a94:	0040185d 	.word	0x0040185d
  400a98:	406f4000 	.word	0x406f4000
  400a9c:	00000000 	.word	0x00000000

00400aa0 <_Z22task1_estimateAttitudev>:
  400aa0:	e92d 4ff0 	stmdb	sp!, {r4, r5, r6, r7, r8, r9, sl, fp, lr}
  400aa4:	b08f      	sub	sp, #60	; 0x3c
  400aa6:	4caa      	ldr	r4, [pc, #680]	; (400d50 <_Z22task1_estimateAttitudev+0x2b0>)
  400aa8:	47a0      	blx	r4
  400aaa:	9007      	str	r0, [sp, #28]
  400aac:	47a0      	blx	r4
  400aae:	4ba9      	ldr	r3, [pc, #676]	; (400d54 <_Z22task1_estimateAttitudev+0x2b4>)
  400ab0:	681b      	ldr	r3, [r3, #0]
  400ab2:	f503 62fa 	add.w	r2, r3, #2000	; 0x7d0
  400ab6:	4290      	cmp	r0, r2
  400ab8:	f0c0 823e 	bcc.w	400f38 <_Z22task1_estimateAttitudev+0x498>
  400abc:	9a07      	ldr	r2, [sp, #28]
  400abe:	4ca6      	ldr	r4, [pc, #664]	; (400d58 <_Z22task1_estimateAttitudev+0x2b8>)
  400ac0:	1ad0      	subs	r0, r2, r3
  400ac2:	4ba6      	ldr	r3, [pc, #664]	; (400d5c <_Z22task1_estimateAttitudev+0x2bc>)
  400ac4:	4798      	blx	r3
  400ac6:	4da6      	ldr	r5, [pc, #664]	; (400d60 <_Z22task1_estimateAttitudev+0x2c0>)
  400ac8:	f8df a2a4 	ldr.w	sl, [pc, #676]	; 400d70 <_Z22task1_estimateAttitudev+0x2d0>
  400acc:	a398      	add	r3, pc, #608	; (adr r3, 400d30 <_Z22task1_estimateAttitudev+0x290>)
  400ace:	e9d3 2300 	ldrd	r2, r3, [r3]
  400ad2:	47a0      	blx	r4
  400ad4:	4ca3      	ldr	r4, [pc, #652]	; (400d64 <_Z22task1_estimateAttitudev+0x2c4>)
  400ad6:	e9cd 0102 	strd	r0, r1, [sp, #8]
  400ada:	f104 00b0 	add.w	r0, r4, #176	; 0xb0
  400ade:	47a8      	blx	r5
  400ae0:	f504 7088 	add.w	r0, r4, #272	; 0x110
  400ae4:	47a8      	blx	r5
  400ae6:	4da0      	ldr	r5, [pc, #640]	; (400d68 <_Z22task1_estimateAttitudev+0x2c8>)
  400ae8:	2200      	movs	r2, #0
  400aea:	f04f 4380 	mov.w	r3, #1073741824	; 0x40000000
  400aee:	46ab      	mov	fp, r5
  400af0:	e9d4 6746 	ldrd	r6, r7, [r4, #280]	; 0x118
  400af4:	4630      	mov	r0, r6
  400af6:	4639      	mov	r1, r7
  400af8:	47a8      	blx	r5
  400afa:	4d9c      	ldr	r5, [pc, #624]	; (400d6c <_Z22task1_estimateAttitudev+0x2cc>)
  400afc:	b9a0      	cbnz	r0, 400b28 <_Z22task1_estimateAttitudev+0x88>
  400afe:	a38e      	add	r3, pc, #568	; (adr r3, 400d38 <_Z22task1_estimateAttitudev+0x298>)
  400b00:	e9d3 2300 	ldrd	r2, r3, [r3]
  400b04:	e9d4 012e 	ldrd	r0, r1, [r4, #184]	; 0xb8
  400b08:	47a8      	blx	r5
  400b0a:	4680      	mov	r8, r0
  400b0c:	4689      	mov	r9, r1
  400b0e:	4630      	mov	r0, r6
  400b10:	4639      	mov	r1, r7
  400b12:	a38b      	add	r3, pc, #556	; (adr r3, 400d40 <_Z22task1_estimateAttitudev+0x2a0>)
  400b14:	e9d3 2300 	ldrd	r2, r3, [r3]
  400b18:	47a8      	blx	r5
  400b1a:	4602      	mov	r2, r0
  400b1c:	460b      	mov	r3, r1
  400b1e:	4640      	mov	r0, r8
  400b20:	4649      	mov	r1, r9
  400b22:	47d0      	blx	sl
  400b24:	4606      	mov	r6, r0
  400b26:	460f      	mov	r7, r1
  400b28:	2200      	movs	r2, #0
  400b2a:	f04f 4380 	mov.w	r3, #1073741824	; 0x40000000
  400b2e:	ed94 7b48 	vldr	d7, [r4, #288]	; 0x120
  400b32:	e9c4 6714 	strd	r6, r7, [r4, #80]	; 0x50
  400b36:	ed8d 7b00 	vstr	d7, [sp]
  400b3a:	ec51 0b17 	vmov	r0, r1, d7
  400b3e:	47d8      	blx	fp
  400b40:	b9a8      	cbnz	r0, 400b6e <_Z22task1_estimateAttitudev+0xce>
  400b42:	4988      	ldr	r1, [pc, #544]	; (400d64 <_Z22task1_estimateAttitudev+0x2c4>)
  400b44:	a37c      	add	r3, pc, #496	; (adr r3, 400d38 <_Z22task1_estimateAttitudev+0x298>)
  400b46:	e9d3 2300 	ldrd	r2, r3, [r3]
  400b4a:	e9d1 0130 	ldrd	r0, r1, [r1, #192]	; 0xc0
  400b4e:	47a8      	blx	r5
  400b50:	4606      	mov	r6, r0
  400b52:	460f      	mov	r7, r1
  400b54:	a37a      	add	r3, pc, #488	; (adr r3, 400d40 <_Z22task1_estimateAttitudev+0x2a0>)
  400b56:	e9d3 2300 	ldrd	r2, r3, [r3]
  400b5a:	e9dd 0100 	ldrd	r0, r1, [sp]
  400b5e:	47a8      	blx	r5
  400b60:	4602      	mov	r2, r0
  400b62:	460b      	mov	r3, r1
  400b64:	4630      	mov	r0, r6
  400b66:	4639      	mov	r1, r7
  400b68:	47d0      	blx	sl
  400b6a:	e9cd 0100 	strd	r0, r1, [sp]
  400b6e:	ed9d 7b00 	vldr	d7, [sp]
  400b72:	e9d4 894a 	ldrd	r8, r9, [r4, #296]	; 0x128
  400b76:	2200      	movs	r2, #0
  400b78:	f04f 4380 	mov.w	r3, #1073741824	; 0x40000000
  400b7c:	4640      	mov	r0, r8
  400b7e:	4649      	mov	r1, r9
  400b80:	ed84 7b16 	vstr	d7, [r4, #88]	; 0x58
  400b84:	47d8      	blx	fp
  400b86:	b9b0      	cbnz	r0, 400bb6 <_Z22task1_estimateAttitudev+0x116>
  400b88:	4976      	ldr	r1, [pc, #472]	; (400d64 <_Z22task1_estimateAttitudev+0x2c4>)
  400b8a:	a36b      	add	r3, pc, #428	; (adr r3, 400d38 <_Z22task1_estimateAttitudev+0x298>)
  400b8c:	e9d3 2300 	ldrd	r2, r3, [r3]
  400b90:	e9d1 0132 	ldrd	r0, r1, [r1, #200]	; 0xc8
  400b94:	47a8      	blx	r5
  400b96:	4606      	mov	r6, r0
  400b98:	460f      	mov	r7, r1
  400b9a:	4640      	mov	r0, r8
  400b9c:	4649      	mov	r1, r9
  400b9e:	a368      	add	r3, pc, #416	; (adr r3, 400d40 <_Z22task1_estimateAttitudev+0x2a0>)
  400ba0:	e9d3 2300 	ldrd	r2, r3, [r3]
  400ba4:	47a8      	blx	r5
  400ba6:	4d72      	ldr	r5, [pc, #456]	; (400d70 <_Z22task1_estimateAttitudev+0x2d0>)
  400ba8:	4602      	mov	r2, r0
  400baa:	460b      	mov	r3, r1
  400bac:	4630      	mov	r0, r6
  400bae:	4639      	mov	r1, r7
  400bb0:	47a8      	blx	r5
  400bb2:	4680      	mov	r8, r0
  400bb4:	4689      	mov	r9, r1
  400bb6:	2200      	movs	r2, #0
  400bb8:	4b6e      	ldr	r3, [pc, #440]	; (400d74 <_Z22task1_estimateAttitudev+0x2d4>)
  400bba:	4e6b      	ldr	r6, [pc, #428]	; (400d68 <_Z22task1_estimateAttitudev+0x2c8>)
  400bbc:	e9c4 8918 	strd	r8, r9, [r4, #96]	; 0x60
  400bc0:	e9d4 454c 	ldrd	r4, r5, [r4, #304]	; 0x130
  400bc4:	4620      	mov	r0, r4
  400bc6:	4629      	mov	r1, r5
  400bc8:	47b0      	blx	r6
  400bca:	b9c0      	cbnz	r0, 400bfe <_Z22task1_estimateAttitudev+0x15e>
  400bcc:	4965      	ldr	r1, [pc, #404]	; (400d64 <_Z22task1_estimateAttitudev+0x2c4>)
  400bce:	f8df a19c 	ldr.w	sl, [pc, #412]	; 400d6c <_Z22task1_estimateAttitudev+0x2cc>
  400bd2:	a359      	add	r3, pc, #356	; (adr r3, 400d38 <_Z22task1_estimateAttitudev+0x298>)
  400bd4:	e9d3 2300 	ldrd	r2, r3, [r3]
  400bd8:	e9d1 0134 	ldrd	r0, r1, [r1, #208]	; 0xd0
  400bdc:	47d0      	blx	sl
  400bde:	4606      	mov	r6, r0
  400be0:	460f      	mov	r7, r1
  400be2:	4620      	mov	r0, r4
  400be4:	4629      	mov	r1, r5
  400be6:	4c62      	ldr	r4, [pc, #392]	; (400d70 <_Z22task1_estimateAttitudev+0x2d0>)
  400be8:	a355      	add	r3, pc, #340	; (adr r3, 400d40 <_Z22task1_estimateAttitudev+0x2a0>)
  400bea:	e9d3 2300 	ldrd	r2, r3, [r3]
  400bee:	47d0      	blx	sl
  400bf0:	4602      	mov	r2, r0
  400bf2:	460b      	mov	r3, r1
  400bf4:	4630      	mov	r0, r6
  400bf6:	4639      	mov	r1, r7
  400bf8:	47a0      	blx	r4
  400bfa:	4604      	mov	r4, r0
  400bfc:	460d      	mov	r5, r1
  400bfe:	4e59      	ldr	r6, [pc, #356]	; (400d64 <_Z22task1_estimateAttitudev+0x2c4>)
  400c00:	2200      	movs	r2, #0
  400c02:	4b5c      	ldr	r3, [pc, #368]	; (400d74 <_Z22task1_estimateAttitudev+0x2d4>)
  400c04:	4f58      	ldr	r7, [pc, #352]	; (400d68 <_Z22task1_estimateAttitudev+0x2c8>)
  400c06:	e9c6 451a 	strd	r4, r5, [r6, #104]	; 0x68
  400c0a:	e9d6 454e 	ldrd	r4, r5, [r6, #312]	; 0x138
  400c0e:	4620      	mov	r0, r4
  400c10:	4629      	mov	r1, r5
  400c12:	47b8      	blx	r7
  400c14:	b9b8      	cbnz	r0, 400c46 <_Z22task1_estimateAttitudev+0x1a6>
  400c16:	f8df a154 	ldr.w	sl, [pc, #340]	; 400d6c <_Z22task1_estimateAttitudev+0x2cc>
  400c1a:	a347      	add	r3, pc, #284	; (adr r3, 400d38 <_Z22task1_estimateAttitudev+0x298>)
  400c1c:	e9d3 2300 	ldrd	r2, r3, [r3]
  400c20:	e9d6 0136 	ldrd	r0, r1, [r6, #216]	; 0xd8
  400c24:	47d0      	blx	sl
  400c26:	4606      	mov	r6, r0
  400c28:	460f      	mov	r7, r1
  400c2a:	4620      	mov	r0, r4
  400c2c:	4629      	mov	r1, r5
  400c2e:	4c50      	ldr	r4, [pc, #320]	; (400d70 <_Z22task1_estimateAttitudev+0x2d0>)
  400c30:	a343      	add	r3, pc, #268	; (adr r3, 400d40 <_Z22task1_estimateAttitudev+0x2a0>)
  400c32:	e9d3 2300 	ldrd	r2, r3, [r3]
  400c36:	47d0      	blx	sl
  400c38:	4602      	mov	r2, r0
  400c3a:	460b      	mov	r3, r1
  400c3c:	4630      	mov	r0, r6
  400c3e:	4639      	mov	r1, r7
  400c40:	47a0      	blx	r4
  400c42:	4604      	mov	r4, r0
  400c44:	460d      	mov	r5, r1
  400c46:	4e47      	ldr	r6, [pc, #284]	; (400d64 <_Z22task1_estimateAttitudev+0x2c4>)
  400c48:	2200      	movs	r2, #0
  400c4a:	4b4a      	ldr	r3, [pc, #296]	; (400d74 <_Z22task1_estimateAttitudev+0x2d4>)
  400c4c:	4f46      	ldr	r7, [pc, #280]	; (400d68 <_Z22task1_estimateAttitudev+0x2c8>)
  400c4e:	e9c6 451c 	strd	r4, r5, [r6, #112]	; 0x70
  400c52:	e9d6 4550 	ldrd	r4, r5, [r6, #320]	; 0x140
  400c56:	4620      	mov	r0, r4
  400c58:	4629      	mov	r1, r5
  400c5a:	47b8      	blx	r7
  400c5c:	b9b8      	cbnz	r0, 400c8e <_Z22task1_estimateAttitudev+0x1ee>
  400c5e:	f8df a10c 	ldr.w	sl, [pc, #268]	; 400d6c <_Z22task1_estimateAttitudev+0x2cc>
  400c62:	a335      	add	r3, pc, #212	; (adr r3, 400d38 <_Z22task1_estimateAttitudev+0x298>)
  400c64:	e9d3 2300 	ldrd	r2, r3, [r3]
  400c68:	e9d6 0138 	ldrd	r0, r1, [r6, #224]	; 0xe0
  400c6c:	47d0      	blx	sl
  400c6e:	4606      	mov	r6, r0
  400c70:	460f      	mov	r7, r1
  400c72:	4620      	mov	r0, r4
  400c74:	4629      	mov	r1, r5
  400c76:	4c3e      	ldr	r4, [pc, #248]	; (400d70 <_Z22task1_estimateAttitudev+0x2d0>)
  400c78:	a331      	add	r3, pc, #196	; (adr r3, 400d40 <_Z22task1_estimateAttitudev+0x2a0>)
  400c7a:	e9d3 2300 	ldrd	r2, r3, [r3]
  400c7e:	47d0      	blx	sl
  400c80:	4602      	mov	r2, r0
  400c82:	460b      	mov	r3, r1
  400c84:	4630      	mov	r0, r6
  400c86:	4639      	mov	r1, r7
  400c88:	47a0      	blx	r4
  400c8a:	4604      	mov	r4, r0
  400c8c:	460d      	mov	r5, r1
  400c8e:	f8df a0d4 	ldr.w	sl, [pc, #212]	; 400d64 <_Z22task1_estimateAttitudev+0x2c4>
  400c92:	4642      	mov	r2, r8
  400c94:	464b      	mov	r3, r9
  400c96:	f8df b0d4 	ldr.w	fp, [pc, #212]	; 400d6c <_Z22task1_estimateAttitudev+0x2cc>
  400c9a:	e9ca 451e 	strd	r4, r5, [sl, #120]	; 0x78
  400c9e:	e9dd 0100 	ldrd	r0, r1, [sp]
  400ca2:	4c35      	ldr	r4, [pc, #212]	; (400d78 <_Z22task1_estimateAttitudev+0x2d8>)
  400ca4:	47a0      	blx	r4
  400ca6:	a328      	add	r3, pc, #160	; (adr r3, 400d48 <_Z22task1_estimateAttitudev+0x2a8>)
  400ca8:	e9d3 2300 	ldrd	r2, r3, [r3]
  400cac:	47d8      	blx	fp
  400cae:	f8da 3054 	ldr.w	r3, [sl, #84]	; 0x54
  400cb2:	f8da 4050 	ldr.w	r4, [sl, #80]	; 0x50
  400cb6:	f103 4500 	add.w	r5, r3, #2147483648	; 0x80000000
  400cba:	e9da 2316 	ldrd	r2, r3, [sl, #88]	; 0x58
  400cbe:	e9da 8918 	ldrd	r8, r9, [sl, #96]	; 0x60
  400cc2:	e9cd 0100 	strd	r0, r1, [sp]
  400cc6:	4610      	mov	r0, r2
  400cc8:	4619      	mov	r1, r3
  400cca:	47d8      	blx	fp
  400ccc:	4606      	mov	r6, r0
  400cce:	460f      	mov	r7, r1
  400cd0:	4642      	mov	r2, r8
  400cd2:	464b      	mov	r3, r9
  400cd4:	4640      	mov	r0, r8
  400cd6:	4649      	mov	r1, r9
  400cd8:	47d8      	blx	fp
  400cda:	4602      	mov	r2, r0
  400cdc:	460b      	mov	r3, r1
  400cde:	4630      	mov	r0, r6
  400ce0:	4639      	mov	r1, r7
  400ce2:	4e23      	ldr	r6, [pc, #140]	; (400d70 <_Z22task1_estimateAttitudev+0x2d0>)
  400ce4:	47b0      	blx	r6
  400ce6:	4b25      	ldr	r3, [pc, #148]	; (400d7c <_Z22task1_estimateAttitudev+0x2dc>)
  400ce8:	4798      	blx	r3
  400cea:	4602      	mov	r2, r0
  400cec:	460b      	mov	r3, r1
  400cee:	4620      	mov	r0, r4
  400cf0:	4629      	mov	r1, r5
  400cf2:	4c19      	ldr	r4, [pc, #100]	; (400d58 <_Z22task1_estimateAttitudev+0x2b8>)
  400cf4:	47a0      	blx	r4
  400cf6:	4b22      	ldr	r3, [pc, #136]	; (400d80 <_Z22task1_estimateAttitudev+0x2e0>)
  400cf8:	4798      	blx	r3
  400cfa:	4c22      	ldr	r4, [pc, #136]	; (400d84 <_Z22task1_estimateAttitudev+0x2e4>)
  400cfc:	a312      	add	r3, pc, #72	; (adr r3, 400d48 <_Z22task1_estimateAttitudev+0x2a8>)
  400cfe:	e9d3 2300 	ldrd	r2, r3, [r3]
  400d02:	47d8      	blx	fp
  400d04:	2200      	movs	r2, #0
  400d06:	4b20      	ldr	r3, [pc, #128]	; (400d88 <_Z22task1_estimateAttitudev+0x2e8>)
  400d08:	ed9a 7b1a 	vldr	d7, [sl, #104]	; 0x68
  400d0c:	e9cd 0108 	strd	r0, r1, [sp, #32]
  400d10:	e9dd 0100 	ldrd	r0, r1, [sp]
  400d14:	ed8d 7b04 	vstr	d7, [sp, #16]
  400d18:	47a0      	blx	r4
  400d1a:	4c13      	ldr	r4, [pc, #76]	; (400d68 <_Z22task1_estimateAttitudev+0x2c8>)
  400d1c:	e9da 891c 	ldrd	r8, r9, [sl, #112]	; 0x70
  400d20:	b3b8      	cbz	r0, 400d92 <_Z22task1_estimateAttitudev+0x2f2>
  400d22:	2200      	movs	r2, #0
  400d24:	4b19      	ldr	r3, [pc, #100]	; (400d8c <_Z22task1_estimateAttitudev+0x2ec>)
  400d26:	e9da 0128 	ldrd	r0, r1, [sl, #160]	; 0xa0
  400d2a:	47a0      	blx	r4
  400d2c:	e030      	b.n	400d90 <_Z22task1_estimateAttitudev+0x2f0>
  400d2e:	bf00      	nop
  400d30:	00000000 	.word	0x00000000
  400d34:	412e8480 	.word	0x412e8480
  400d38:	9999999a 	.word	0x9999999a
  400d3c:	3fe99999 	.word	0x3fe99999
  400d40:	9999999a 	.word	0x9999999a
  400d44:	3fc99999 	.word	0x3fc99999
  400d48:	1a63c1f8 	.word	0x1a63c1f8
  400d4c:	404ca5dc 	.word	0x404ca5dc
  400d50:	00401809 	.word	0x00401809
  400d54:	204008b0 	.word	0x204008b0
  400d58:	004032cd 	.word	0x004032cd
  400d5c:	00402f8d 	.word	0x00402f8d
  400d60:	004003f9 	.word	0x004003f9
  400d64:	20400918 	.word	0x20400918
  400d68:	00403599 	.word	0x00403599
  400d6c:	00403079 	.word	0x00403079
  400d70:	00402d15 	.word	0x00402d15
  400d74:	406f4000 	.word	0x406f4000
  400d78:	00402935 	.word	0x00402935
  400d7c:	00402939 	.word	0x00402939
  400d80:	004025f1 	.word	0x004025f1
  400d84:	0040355d 	.word	0x0040355d
  400d88:	c0568000 	.word	0xc0568000
  400d8c:	40568000 	.word	0x40568000
  400d90:	b968      	cbnz	r0, 400dae <_Z22task1_estimateAttitudev+0x30e>
  400d92:	2200      	movs	r2, #0
  400d94:	4b6e      	ldr	r3, [pc, #440]	; (400f50 <_Z22task1_estimateAttitudev+0x4b0>)
  400d96:	e9dd 0100 	ldrd	r0, r1, [sp]
  400d9a:	47a0      	blx	r4
  400d9c:	b1c8      	cbz	r0, 400dd2 <_Z22task1_estimateAttitudev+0x332>
  400d9e:	496d      	ldr	r1, [pc, #436]	; (400f54 <_Z22task1_estimateAttitudev+0x4b4>)
  400da0:	2200      	movs	r2, #0
  400da2:	4b6d      	ldr	r3, [pc, #436]	; (400f58 <_Z22task1_estimateAttitudev+0x4b8>)
  400da4:	4c6d      	ldr	r4, [pc, #436]	; (400f5c <_Z22task1_estimateAttitudev+0x4bc>)
  400da6:	e9d1 0128 	ldrd	r0, r1, [r1, #160]	; 0xa0
  400daa:	47a0      	blx	r4
  400dac:	b188      	cbz	r0, 400dd2 <_Z22task1_estimateAttitudev+0x332>
  400dae:	4c69      	ldr	r4, [pc, #420]	; (400f54 <_Z22task1_estimateAttitudev+0x4b4>)
  400db0:	4b6b      	ldr	r3, [pc, #428]	; (400f60 <_Z22task1_estimateAttitudev+0x4c0>)
  400db2:	e9dd 0100 	ldrd	r0, r1, [sp]
  400db6:	4798      	blx	r3
  400db8:	4b6a      	ldr	r3, [pc, #424]	; (400f64 <_Z22task1_estimateAttitudev+0x4c4>)
  400dba:	4601      	mov	r1, r0
  400dbc:	4620      	mov	r0, r4
  400dbe:	4798      	blx	r3
  400dc0:	ed9d 7b00 	vldr	d7, [sp]
  400dc4:	ed84 7b24 	vstr	d7, [r4, #144]	; 0x90
  400dc8:	ed84 7b28 	vstr	d7, [r4, #160]	; 0xa0
  400dcc:	ed84 7b20 	vstr	d7, [r4, #128]	; 0x80
  400dd0:	e016      	b.n	400e00 <_Z22task1_estimateAttitudev+0x360>
  400dd2:	4c63      	ldr	r4, [pc, #396]	; (400f60 <_Z22task1_estimateAttitudev+0x4c0>)
  400dd4:	e9dd 0102 	ldrd	r0, r1, [sp, #8]
  400dd8:	47a0      	blx	r4
  400dda:	4606      	mov	r6, r0
  400ddc:	e9dd 0104 	ldrd	r0, r1, [sp, #16]
  400de0:	47a0      	blx	r4
  400de2:	4605      	mov	r5, r0
  400de4:	e9dd 0100 	ldrd	r0, r1, [sp]
  400de8:	47a0      	blx	r4
  400dea:	4c5a      	ldr	r4, [pc, #360]	; (400f54 <_Z22task1_estimateAttitudev+0x4b4>)
  400dec:	462a      	mov	r2, r5
  400dee:	4601      	mov	r1, r0
  400df0:	4633      	mov	r3, r6
  400df2:	4620      	mov	r0, r4
  400df4:	4d5c      	ldr	r5, [pc, #368]	; (400f68 <_Z22task1_estimateAttitudev+0x4c8>)
  400df6:	47a8      	blx	r5
  400df8:	4b5c      	ldr	r3, [pc, #368]	; (400f6c <_Z22task1_estimateAttitudev+0x4cc>)
  400dfa:	4798      	blx	r3
  400dfc:	e9c4 0128 	strd	r0, r1, [r4, #160]	; 0xa0
  400e00:	4b54      	ldr	r3, [pc, #336]	; (400f54 <_Z22task1_estimateAttitudev+0x4b4>)
  400e02:	e9d3 0128 	ldrd	r0, r1, [r3, #160]	; 0xa0
  400e06:	4b5a      	ldr	r3, [pc, #360]	; (400f70 <_Z22task1_estimateAttitudev+0x4d0>)
  400e08:	4798      	blx	r3
  400e0a:	ea80 73e0 	eor.w	r3, r0, r0, asr #31
  400e0e:	eba3 73e0 	sub.w	r3, r3, r0, asr #31
  400e12:	2b5a      	cmp	r3, #90	; 0x5a
  400e14:	dd02      	ble.n	400e1c <_Z22task1_estimateAttitudev+0x37c>
  400e16:	f109 4300 	add.w	r3, r9, #2147483648	; 0x80000000
  400e1a:	4699      	mov	r9, r3
  400e1c:	4c50      	ldr	r4, [pc, #320]	; (400f60 <_Z22task1_estimateAttitudev+0x4c0>)
  400e1e:	e9dd 0102 	ldrd	r0, r1, [sp, #8]
  400e22:	47a0      	blx	r4
  400e24:	4649      	mov	r1, r9
  400e26:	4606      	mov	r6, r0
  400e28:	4640      	mov	r0, r8
  400e2a:	47a0      	blx	r4
  400e2c:	4605      	mov	r5, r0
  400e2e:	e9dd 0108 	ldrd	r0, r1, [sp, #32]
  400e32:	47a0      	blx	r4
  400e34:	4c47      	ldr	r4, [pc, #284]	; (400f54 <_Z22task1_estimateAttitudev+0x4b4>)
  400e36:	462a      	mov	r2, r5
  400e38:	4633      	mov	r3, r6
  400e3a:	4601      	mov	r1, r0
  400e3c:	4d4a      	ldr	r5, [pc, #296]	; (400f68 <_Z22task1_estimateAttitudev+0x4c8>)
  400e3e:	f104 0028 	add.w	r0, r4, #40	; 0x28
  400e42:	4e4c      	ldr	r6, [pc, #304]	; (400f74 <_Z22task1_estimateAttitudev+0x4d4>)
  400e44:	47a8      	blx	r5
  400e46:	4b49      	ldr	r3, [pc, #292]	; (400f6c <_Z22task1_estimateAttitudev+0x4cc>)
  400e48:	4798      	blx	r3
  400e4a:	4d4b      	ldr	r5, [pc, #300]	; (400f78 <_Z22task1_estimateAttitudev+0x4d8>)
  400e4c:	e9dd 2304 	ldrd	r2, r3, [sp, #16]
  400e50:	e9cd 010a 	strd	r0, r1, [sp, #40]	; 0x28
  400e54:	e9c4 012a 	strd	r0, r1, [r4, #168]	; 0xa8
  400e58:	e9dd 0102 	ldrd	r0, r1, [sp, #8]
  400e5c:	47b0      	blx	r6
  400e5e:	e9d4 2320 	ldrd	r2, r3, [r4, #128]	; 0x80
  400e62:	e9cd 010c 	strd	r0, r1, [sp, #48]	; 0x30
  400e66:	47a8      	blx	r5
  400e68:	4642      	mov	r2, r8
  400e6a:	464b      	mov	r3, r9
  400e6c:	e9cd 0104 	strd	r0, r1, [sp, #16]
  400e70:	e9c4 0120 	strd	r0, r1, [r4, #128]	; 0x80
  400e74:	e9dd 0102 	ldrd	r0, r1, [sp, #8]
  400e78:	47b0      	blx	r6
  400e7a:	e9d4 2322 	ldrd	r2, r3, [r4, #136]	; 0x88
  400e7e:	e9cd 0102 	strd	r0, r1, [sp, #8]
  400e82:	47a8      	blx	r5
  400e84:	4682      	mov	sl, r0
  400e86:	468b      	mov	fp, r1
  400e88:	e9d4 2324 	ldrd	r2, r3, [r4, #144]	; 0x90
  400e8c:	e9c4 ab22 	strd	sl, fp, [r4, #136]	; 0x88
  400e90:	e9dd 010c 	ldrd	r0, r1, [sp, #48]	; 0x30
  400e94:	47a8      	blx	r5
  400e96:	a32a      	add	r3, pc, #168	; (adr r3, 400f40 <_Z22task1_estimateAttitudev+0x4a0>)
  400e98:	e9d3 2300 	ldrd	r2, r3, [r3]
  400e9c:	47b0      	blx	r6
  400e9e:	4680      	mov	r8, r0
  400ea0:	4689      	mov	r9, r1
  400ea2:	a329      	add	r3, pc, #164	; (adr r3, 400f48 <_Z22task1_estimateAttitudev+0x4a8>)
  400ea4:	e9d3 2300 	ldrd	r2, r3, [r3]
  400ea8:	e9dd 0100 	ldrd	r0, r1, [sp]
  400eac:	47b0      	blx	r6
  400eae:	4602      	mov	r2, r0
  400eb0:	460b      	mov	r3, r1
  400eb2:	4640      	mov	r0, r8
  400eb4:	4649      	mov	r1, r9
  400eb6:	47a8      	blx	r5
  400eb8:	e9d4 2326 	ldrd	r2, r3, [r4, #152]	; 0x98
  400ebc:	e9c4 0124 	strd	r0, r1, [r4, #144]	; 0x90
  400ec0:	e9dd 0102 	ldrd	r0, r1, [sp, #8]
  400ec4:	47a8      	blx	r5
  400ec6:	a31e      	add	r3, pc, #120	; (adr r3, 400f40 <_Z22task1_estimateAttitudev+0x4a0>)
  400ec8:	e9d3 2300 	ldrd	r2, r3, [r3]
  400ecc:	47b0      	blx	r6
  400ece:	4680      	mov	r8, r0
  400ed0:	4689      	mov	r9, r1
  400ed2:	a31d      	add	r3, pc, #116	; (adr r3, 400f48 <_Z22task1_estimateAttitudev+0x4a8>)
  400ed4:	e9d3 2300 	ldrd	r2, r3, [r3]
  400ed8:	e9dd 0108 	ldrd	r0, r1, [sp, #32]
  400edc:	47b0      	blx	r6
  400ede:	4602      	mov	r2, r0
  400ee0:	460b      	mov	r3, r1
  400ee2:	4640      	mov	r0, r8
  400ee4:	4649      	mov	r1, r9
  400ee6:	47a8      	blx	r5
  400ee8:	4d1c      	ldr	r5, [pc, #112]	; (400f5c <_Z22task1_estimateAttitudev+0x4bc>)
  400eea:	2200      	movs	r2, #0
  400eec:	4b23      	ldr	r3, [pc, #140]	; (400f7c <_Z22task1_estimateAttitudev+0x4dc>)
  400eee:	e9c4 0126 	strd	r0, r1, [r4, #152]	; 0x98
  400ef2:	e9dd 0104 	ldrd	r0, r1, [sp, #16]
  400ef6:	47a8      	blx	r5
  400ef8:	b930      	cbnz	r0, 400f08 <_Z22task1_estimateAttitudev+0x468>
  400efa:	2200      	movs	r2, #0
  400efc:	4b20      	ldr	r3, [pc, #128]	; (400f80 <_Z22task1_estimateAttitudev+0x4e0>)
  400efe:	4e21      	ldr	r6, [pc, #132]	; (400f84 <_Z22task1_estimateAttitudev+0x4e4>)
  400f00:	e9dd 0104 	ldrd	r0, r1, [sp, #16]
  400f04:	47b0      	blx	r6
  400f06:	b118      	cbz	r0, 400f10 <_Z22task1_estimateAttitudev+0x470>
  400f08:	e9d4 2328 	ldrd	r2, r3, [r4, #160]	; 0xa0
  400f0c:	e9c4 2320 	strd	r2, r3, [r4, #128]	; 0x80
  400f10:	2200      	movs	r2, #0
  400f12:	4b1a      	ldr	r3, [pc, #104]	; (400f7c <_Z22task1_estimateAttitudev+0x4dc>)
  400f14:	4650      	mov	r0, sl
  400f16:	4659      	mov	r1, fp
  400f18:	47a8      	blx	r5
  400f1a:	b930      	cbnz	r0, 400f2a <_Z22task1_estimateAttitudev+0x48a>
  400f1c:	2200      	movs	r2, #0
  400f1e:	4b18      	ldr	r3, [pc, #96]	; (400f80 <_Z22task1_estimateAttitudev+0x4e0>)
  400f20:	4650      	mov	r0, sl
  400f22:	4659      	mov	r1, fp
  400f24:	4d17      	ldr	r5, [pc, #92]	; (400f84 <_Z22task1_estimateAttitudev+0x4e4>)
  400f26:	47a8      	blx	r5
  400f28:	b118      	cbz	r0, 400f32 <_Z22task1_estimateAttitudev+0x492>
  400f2a:	ed9d 7b0a 	vldr	d7, [sp, #40]	; 0x28
  400f2e:	ed84 7b22 	vstr	d7, [r4, #136]	; 0x88
  400f32:	4b15      	ldr	r3, [pc, #84]	; (400f88 <_Z22task1_estimateAttitudev+0x4e8>)
  400f34:	9a07      	ldr	r2, [sp, #28]
  400f36:	601a      	str	r2, [r3, #0]
  400f38:	b00f      	add	sp, #60	; 0x3c
  400f3a:	e8bd 8ff0 	ldmia.w	sp!, {r4, r5, r6, r7, r8, r9, sl, fp, pc}
  400f3e:	bf00      	nop
  400f40:	5c28f5c3 	.word	0x5c28f5c3
  400f44:	3fedc28f 	.word	0x3fedc28f
  400f48:	1eb851ec 	.word	0x1eb851ec
  400f4c:	3fb1eb85 	.word	0x3fb1eb85
  400f50:	40568000 	.word	0x40568000
  400f54:	20400918 	.word	0x20400918
  400f58:	c0568000 	.word	0xc0568000
  400f5c:	0040355d 	.word	0x0040355d
  400f60:	00403669 	.word	0x00403669
  400f64:	00401933 	.word	0x00401933
  400f68:	00401885 	.word	0x00401885
  400f6c:	00402fd1 	.word	0x00402fd1
  400f70:	004035d9 	.word	0x004035d9
  400f74:	00403079 	.word	0x00403079
  400f78:	00402d15 	.word	0x00402d15
  400f7c:	c0668000 	.word	0xc0668000
  400f80:	40668000 	.word	0x40668000
  400f84:	00403599 	.word	0x00403599
  400f88:	204008b0 	.word	0x204008b0

00400f8c <_Z26task4_update_target_anglesv>:
  400f8c:	b5f8      	push	{r3, r4, r5, r6, r7, lr}
  400f8e:	4b14      	ldr	r3, [pc, #80]	; (400fe0 <_Z26task4_update_target_anglesv+0x54>)
  400f90:	2200      	movs	r2, #0
  400f92:	4c14      	ldr	r4, [pc, #80]	; (400fe4 <_Z26task4_update_target_anglesv+0x58>)
  400f94:	e9d3 6700 	ldrd	r6, r7, [r3]
  400f98:	4b13      	ldr	r3, [pc, #76]	; (400fe8 <_Z26task4_update_target_anglesv+0x5c>)
  400f9a:	4630      	mov	r0, r6
  400f9c:	4639      	mov	r1, r7
  400f9e:	47a0      	blx	r4
  400fa0:	b148      	cbz	r0, 400fb6 <_Z26task4_update_target_anglesv+0x2a>
  400fa2:	2200      	movs	r2, #0
  400fa4:	4b11      	ldr	r3, [pc, #68]	; (400fec <_Z26task4_update_target_anglesv+0x60>)
  400fa6:	4630      	mov	r0, r6
  400fa8:	4639      	mov	r1, r7
  400faa:	4d11      	ldr	r5, [pc, #68]	; (400ff0 <_Z26task4_update_target_anglesv+0x64>)
  400fac:	47a8      	blx	r5
  400fae:	b110      	cbz	r0, 400fb6 <_Z26task4_update_target_anglesv+0x2a>
  400fb0:	4b10      	ldr	r3, [pc, #64]	; (400ff4 <_Z26task4_update_target_anglesv+0x68>)
  400fb2:	e9c3 6700 	strd	r6, r7, [r3]
  400fb6:	4b10      	ldr	r3, [pc, #64]	; (400ff8 <_Z26task4_update_target_anglesv+0x6c>)
  400fb8:	2200      	movs	r2, #0
  400fba:	e9d3 6700 	ldrd	r6, r7, [r3]
  400fbe:	4b0a      	ldr	r3, [pc, #40]	; (400fe8 <_Z26task4_update_target_anglesv+0x5c>)
  400fc0:	4630      	mov	r0, r6
  400fc2:	4639      	mov	r1, r7
  400fc4:	47a0      	blx	r4
  400fc6:	b148      	cbz	r0, 400fdc <_Z26task4_update_target_anglesv+0x50>
  400fc8:	2200      	movs	r2, #0
  400fca:	4b08      	ldr	r3, [pc, #32]	; (400fec <_Z26task4_update_target_anglesv+0x60>)
  400fcc:	4630      	mov	r0, r6
  400fce:	4639      	mov	r1, r7
  400fd0:	4c07      	ldr	r4, [pc, #28]	; (400ff0 <_Z26task4_update_target_anglesv+0x64>)
  400fd2:	47a0      	blx	r4
  400fd4:	b110      	cbz	r0, 400fdc <_Z26task4_update_target_anglesv+0x50>
  400fd6:	4b09      	ldr	r3, [pc, #36]	; (400ffc <_Z26task4_update_target_anglesv+0x70>)
  400fd8:	e9c3 6700 	strd	r6, r7, [r3]
  400fdc:	bdf8      	pop	{r3, r4, r5, r6, r7, pc}
  400fde:	bf00      	nop
  400fe0:	20400a90 	.word	0x20400a90
  400fe4:	00403599 	.word	0x00403599
  400fe8:	c03e0000 	.word	0xc03e0000
  400fec:	403e0000 	.word	0x403e0000
  400ff0:	0040355d 	.word	0x0040355d
  400ff4:	20400ab8 	.word	0x20400ab8
  400ff8:	20400a88 	.word	0x20400a88
  400ffc:	20400ac0 	.word	0x20400ac0

00401000 <_Z12task0_tracesv>:
  401000:	e92d 43f8 	stmdb	sp!, {r3, r4, r5, r6, r7, r8, r9, lr}
  401004:	f8df 816c 	ldr.w	r8, [pc, #364]	; 401174 <_Z12task0_tracesv+0x174>
  401008:	f8df 916c 	ldr.w	r9, [pc, #364]	; 401178 <_Z12task0_tracesv+0x178>
  40100c:	47c8      	blx	r9
  40100e:	f8d8 3000 	ldr.w	r3, [r8]
  401012:	f503 2374 	add.w	r3, r3, #999424	; 0xf4000
  401016:	f503 7310 	add.w	r3, r3, #576	; 0x240
  40101a:	4298      	cmp	r0, r3
  40101c:	d36f      	bcc.n	4010fe <_Z12task0_tracesv+0xfe>
  40101e:	4c39      	ldr	r4, [pc, #228]	; (401104 <_Z12task0_tracesv+0x104>)
  401020:	4f39      	ldr	r7, [pc, #228]	; (401108 <_Z12task0_tracesv+0x108>)
  401022:	493a      	ldr	r1, [pc, #232]	; (40110c <_Z12task0_tracesv+0x10c>)
  401024:	4620      	mov	r0, r4
  401026:	4d3a      	ldr	r5, [pc, #232]	; (401110 <_Z12task0_tracesv+0x110>)
  401028:	47b8      	blx	r7
  40102a:	493a      	ldr	r1, [pc, #232]	; (401114 <_Z12task0_tracesv+0x114>)
  40102c:	6820      	ldr	r0, [r4, #0]
  40102e:	47a8      	blx	r5
  401030:	4b39      	ldr	r3, [pc, #228]	; (401118 <_Z12task0_tracesv+0x118>)
  401032:	493a      	ldr	r1, [pc, #232]	; (40111c <_Z12task0_tracesv+0x11c>)
  401034:	1d20      	adds	r0, r4, #4
  401036:	4e3a      	ldr	r6, [pc, #232]	; (401120 <_Z12task0_tracesv+0x120>)
  401038:	1ac9      	subs	r1, r1, r3
  40103a:	4b3a      	ldr	r3, [pc, #232]	; (401124 <_Z12task0_tracesv+0x124>)
  40103c:	4798      	blx	r3
  40103e:	1d21      	adds	r1, r4, #4
  401040:	4620      	mov	r0, r4
  401042:	47b8      	blx	r7
  401044:	4938      	ldr	r1, [pc, #224]	; (401128 <_Z12task0_tracesv+0x128>)
  401046:	6820      	ldr	r0, [r4, #0]
  401048:	47a8      	blx	r5
  40104a:	4b38      	ldr	r3, [pc, #224]	; (40112c <_Z12task0_tracesv+0x12c>)
  40104c:	4620      	mov	r0, r4
  40104e:	e9d3 2300 	ldrd	r2, r3, [r3]
  401052:	47b0      	blx	r6
  401054:	4936      	ldr	r1, [pc, #216]	; (401130 <_Z12task0_tracesv+0x130>)
  401056:	6820      	ldr	r0, [r4, #0]
  401058:	47a8      	blx	r5
  40105a:	4b36      	ldr	r3, [pc, #216]	; (401134 <_Z12task0_tracesv+0x134>)
  40105c:	4620      	mov	r0, r4
  40105e:	e9d3 2300 	ldrd	r2, r3, [r3]
  401062:	47b0      	blx	r6
  401064:	4929      	ldr	r1, [pc, #164]	; (40110c <_Z12task0_tracesv+0x10c>)
  401066:	4620      	mov	r0, r4
  401068:	47b8      	blx	r7
  40106a:	4928      	ldr	r1, [pc, #160]	; (40110c <_Z12task0_tracesv+0x10c>)
  40106c:	4620      	mov	r0, r4
  40106e:	47b8      	blx	r7
  401070:	4931      	ldr	r1, [pc, #196]	; (401138 <_Z12task0_tracesv+0x138>)
  401072:	6820      	ldr	r0, [r4, #0]
  401074:	47a8      	blx	r5
  401076:	4b31      	ldr	r3, [pc, #196]	; (40113c <_Z12task0_tracesv+0x13c>)
  401078:	4620      	mov	r0, r4
  40107a:	e9d3 2300 	ldrd	r2, r3, [r3]
  40107e:	47b0      	blx	r6
  401080:	492f      	ldr	r1, [pc, #188]	; (401140 <_Z12task0_tracesv+0x140>)
  401082:	6820      	ldr	r0, [r4, #0]
  401084:	47a8      	blx	r5
  401086:	4b2f      	ldr	r3, [pc, #188]	; (401144 <_Z12task0_tracesv+0x144>)
  401088:	4620      	mov	r0, r4
  40108a:	e9d3 2300 	ldrd	r2, r3, [r3]
  40108e:	47b0      	blx	r6
  401090:	491e      	ldr	r1, [pc, #120]	; (40110c <_Z12task0_tracesv+0x10c>)
  401092:	4620      	mov	r0, r4
  401094:	47b8      	blx	r7
  401096:	492c      	ldr	r1, [pc, #176]	; (401148 <_Z12task0_tracesv+0x148>)
  401098:	6820      	ldr	r0, [r4, #0]
  40109a:	47a8      	blx	r5
  40109c:	4b2b      	ldr	r3, [pc, #172]	; (40114c <_Z12task0_tracesv+0x14c>)
  40109e:	6818      	ldr	r0, [r3, #0]
  4010a0:	4b2b      	ldr	r3, [pc, #172]	; (401150 <_Z12task0_tracesv+0x150>)
  4010a2:	4798      	blx	r3
  4010a4:	4602      	mov	r2, r0
  4010a6:	460b      	mov	r3, r1
  4010a8:	4620      	mov	r0, r4
  4010aa:	47b0      	blx	r6
  4010ac:	4917      	ldr	r1, [pc, #92]	; (40110c <_Z12task0_tracesv+0x10c>)
  4010ae:	4620      	mov	r0, r4
  4010b0:	47b8      	blx	r7
  4010b2:	4928      	ldr	r1, [pc, #160]	; (401154 <_Z12task0_tracesv+0x154>)
  4010b4:	6820      	ldr	r0, [r4, #0]
  4010b6:	47a8      	blx	r5
  4010b8:	4b27      	ldr	r3, [pc, #156]	; (401158 <_Z12task0_tracesv+0x158>)
  4010ba:	4620      	mov	r0, r4
  4010bc:	e9d3 2300 	ldrd	r2, r3, [r3]
  4010c0:	47b0      	blx	r6
  4010c2:	4926      	ldr	r1, [pc, #152]	; (40115c <_Z12task0_tracesv+0x15c>)
  4010c4:	6820      	ldr	r0, [r4, #0]
  4010c6:	47a8      	blx	r5
  4010c8:	4b25      	ldr	r3, [pc, #148]	; (401160 <_Z12task0_tracesv+0x160>)
  4010ca:	4620      	mov	r0, r4
  4010cc:	e9d3 2300 	ldrd	r2, r3, [r3]
  4010d0:	47b0      	blx	r6
  4010d2:	4924      	ldr	r1, [pc, #144]	; (401164 <_Z12task0_tracesv+0x164>)
  4010d4:	6820      	ldr	r0, [r4, #0]
  4010d6:	47a8      	blx	r5
  4010d8:	4b23      	ldr	r3, [pc, #140]	; (401168 <_Z12task0_tracesv+0x168>)
  4010da:	4620      	mov	r0, r4
  4010dc:	e9d3 2300 	ldrd	r2, r3, [r3]
  4010e0:	47b0      	blx	r6
  4010e2:	4922      	ldr	r1, [pc, #136]	; (40116c <_Z12task0_tracesv+0x16c>)
  4010e4:	6820      	ldr	r0, [r4, #0]
  4010e6:	47a8      	blx	r5
  4010e8:	4b21      	ldr	r3, [pc, #132]	; (401170 <_Z12task0_tracesv+0x170>)
  4010ea:	4620      	mov	r0, r4
  4010ec:	e9d3 2300 	ldrd	r2, r3, [r3]
  4010f0:	47b0      	blx	r6
  4010f2:	4906      	ldr	r1, [pc, #24]	; (40110c <_Z12task0_tracesv+0x10c>)
  4010f4:	4620      	mov	r0, r4
  4010f6:	47b8      	blx	r7
  4010f8:	47c8      	blx	r9
  4010fa:	f8c8 0000 	str.w	r0, [r8]
  4010fe:	e8bd 83f8 	ldmia.w	sp!, {r3, r4, r5, r6, r7, r8, r9, pc}
  401102:	bf00      	nop
  401104:	204008c0 	.word	0x204008c0
  401108:	00400209 	.word	0x00400209
  40110c:	004064a2 	.word	0x004064a2
  401110:	00401d95 	.word	0x00401d95
  401114:	004064b4 	.word	0x004064b4
  401118:	20400d90 	.word	0x20400d90
  40111c:	20401190 	.word	0x20401190
  401120:	004002a9 	.word	0x004002a9
  401124:	00401815 	.word	0x00401815
  401128:	004064bd 	.word	0x004064bd
  40112c:	20400aa8 	.word	0x20400aa8
  401130:	004064ca 	.word	0x004064ca
  401134:	20400ab0 	.word	0x20400ab0
  401138:	004064d7 	.word	0x004064d7
  40113c:	204008d8 	.word	0x204008d8
  401140:	004064e0 	.word	0x004064e0
  401144:	20400be8 	.word	0x20400be8
  401148:	004064e9 	.word	0x004064e9
  40114c:	20400bf8 	.word	0x20400bf8
  401150:	00402f8d 	.word	0x00402f8d
  401154:	004064ff 	.word	0x004064ff
  401158:	20400be0 	.word	0x20400be0
  40115c:	0040650d 	.word	0x0040650d
  401160:	20400a90 	.word	0x20400a90
  401164:	00406519 	.word	0x00406519
  401168:	20400a88 	.word	0x20400a88
  40116c:	00406526 	.word	0x00406526
  401170:	204008e8 	.word	0x204008e8
  401174:	20400900 	.word	0x20400900
  401178:	00401809 	.word	0x00401809

0040117c <_Z13task2_computev>:
  40117c:	e92d 4ff0 	stmdb	sp!, {r4, r5, r6, r7, r8, r9, sl, fp, lr}
  401180:	4b79      	ldr	r3, [pc, #484]	; (401368 <_Z13task2_computev+0x1ec>)
  401182:	b08b      	sub	sp, #44	; 0x2c
  401184:	4798      	blx	r3
  401186:	4b79      	ldr	r3, [pc, #484]	; (40136c <_Z13task2_computev+0x1f0>)
  401188:	9005      	str	r0, [sp, #20]
  40118a:	681c      	ldr	r4, [r3, #0]
  40118c:	4b78      	ldr	r3, [pc, #480]	; (401370 <_Z13task2_computev+0x1f4>)
  40118e:	1b04      	subs	r4, r0, r4
  401190:	4798      	blx	r3
  401192:	f241 3387 	movw	r3, #4999	; 0x1387
  401196:	429c      	cmp	r4, r3
  401198:	f240 80e3 	bls.w	401362 <_Z13task2_computev+0x1e6>
  40119c:	4b75      	ldr	r3, [pc, #468]	; (401374 <_Z13task2_computev+0x1f8>)
  40119e:	4976      	ldr	r1, [pc, #472]	; (401378 <_Z13task2_computev+0x1fc>)
  4011a0:	4c76      	ldr	r4, [pc, #472]	; (40137c <_Z13task2_computev+0x200>)
  4011a2:	f8df 9218 	ldr.w	r9, [pc, #536]	; 4013bc <_Z13task2_computev+0x240>
  4011a6:	f8df 8200 	ldr.w	r8, [pc, #512]	; 4013a8 <_Z13task2_computev+0x22c>
  4011aa:	4d75      	ldr	r5, [pc, #468]	; (401380 <_Z13task2_computev+0x204>)
  4011ac:	ed93 7b00 	vldr	d7, [r3]
  4011b0:	4b74      	ldr	r3, [pc, #464]	; (401384 <_Z13task2_computev+0x208>)
  4011b2:	ed8d 7b00 	vstr	d7, [sp]
  4011b6:	ed93 7b00 	vldr	d7, [r3]
  4011ba:	e9d1 0100 	ldrd	r0, r1, [r1]
  4011be:	e9dd 2300 	ldrd	r2, r3, [sp]
  4011c2:	ed8d 7b02 	vstr	d7, [sp, #8]
  4011c6:	47a0      	blx	r4
  4011c8:	e9cd 0106 	strd	r0, r1, [sp, #24]
  4011cc:	496e      	ldr	r1, [pc, #440]	; (401388 <_Z13task2_computev+0x20c>)
  4011ce:	e9dd 2302 	ldrd	r2, r3, [sp, #8]
  4011d2:	e9d1 0100 	ldrd	r0, r1, [r1]
  4011d6:	47a0      	blx	r4
  4011d8:	4b6c      	ldr	r3, [pc, #432]	; (40138c <_Z13task2_computev+0x210>)
  4011da:	4c6d      	ldr	r4, [pc, #436]	; (401390 <_Z13task2_computev+0x214>)
  4011dc:	e9d3 6700 	ldrd	r6, r7, [r3]
  4011e0:	e9cd 0108 	strd	r0, r1, [sp, #32]
  4011e4:	4632      	mov	r2, r6
  4011e6:	463b      	mov	r3, r7
  4011e8:	e9dd 0106 	ldrd	r0, r1, [sp, #24]
  4011ec:	47c8      	blx	r9
  4011ee:	e9d4 2300 	ldrd	r2, r3, [r4]
  4011f2:	47c0      	blx	r8
  4011f4:	4682      	mov	sl, r0
  4011f6:	468b      	mov	fp, r1
  4011f8:	4632      	mov	r2, r6
  4011fa:	463b      	mov	r3, r7
  4011fc:	e9c4 ab00 	strd	sl, fp, [r4]
  401200:	e9dd 0108 	ldrd	r0, r1, [sp, #32]
  401204:	47c8      	blx	r9
  401206:	f8df 9194 	ldr.w	r9, [pc, #404]	; 40139c <_Z13task2_computev+0x220>
  40120a:	e9d5 2300 	ldrd	r2, r3, [r5]
  40120e:	47c0      	blx	r8
  401210:	f04f 0800 	mov.w	r8, #0
  401214:	4606      	mov	r6, r0
  401216:	460f      	mov	r7, r1
  401218:	4642      	mov	r2, r8
  40121a:	464b      	mov	r3, r9
  40121c:	4650      	mov	r0, sl
  40121e:	4659      	mov	r1, fp
  401220:	e9c5 6700 	strd	r6, r7, [r5]
  401224:	4d5b      	ldr	r5, [pc, #364]	; (401394 <_Z13task2_computev+0x218>)
  401226:	47a8      	blx	r5
  401228:	b950      	cbnz	r0, 401240 <_Z13task2_computev+0xc4>
  40122a:	f04f 0800 	mov.w	r8, #0
  40122e:	f8df 9170 	ldr.w	r9, [pc, #368]	; 4013a0 <_Z13task2_computev+0x224>
  401232:	4650      	mov	r0, sl
  401234:	4659      	mov	r1, fp
  401236:	4642      	mov	r2, r8
  401238:	464b      	mov	r3, r9
  40123a:	4d57      	ldr	r5, [pc, #348]	; (401398 <_Z13task2_computev+0x21c>)
  40123c:	47a8      	blx	r5
  40123e:	b108      	cbz	r0, 401244 <_Z13task2_computev+0xc8>
  401240:	e9c4 8900 	strd	r8, r9, [r4]
  401244:	2400      	movs	r4, #0
  401246:	4d55      	ldr	r5, [pc, #340]	; (40139c <_Z13task2_computev+0x220>)
  401248:	4630      	mov	r0, r6
  40124a:	4639      	mov	r1, r7
  40124c:	4622      	mov	r2, r4
  40124e:	462b      	mov	r3, r5
  401250:	f8df 8140 	ldr.w	r8, [pc, #320]	; 401394 <_Z13task2_computev+0x218>
  401254:	47c0      	blx	r8
  401256:	b940      	cbnz	r0, 40126a <_Z13task2_computev+0xee>
  401258:	2400      	movs	r4, #0
  40125a:	4d51      	ldr	r5, [pc, #324]	; (4013a0 <_Z13task2_computev+0x224>)
  40125c:	4630      	mov	r0, r6
  40125e:	4639      	mov	r1, r7
  401260:	4622      	mov	r2, r4
  401262:	462b      	mov	r3, r5
  401264:	4e4c      	ldr	r6, [pc, #304]	; (401398 <_Z13task2_computev+0x21c>)
  401266:	47b0      	blx	r6
  401268:	b110      	cbz	r0, 401270 <_Z13task2_computev+0xf4>
  40126a:	4b45      	ldr	r3, [pc, #276]	; (401380 <_Z13task2_computev+0x204>)
  40126c:	e9c3 4500 	strd	r4, r5, [r3]
  401270:	4b4c      	ldr	r3, [pc, #304]	; (4013a4 <_Z13task2_computev+0x228>)
  401272:	4e4d      	ldr	r6, [pc, #308]	; (4013a8 <_Z13task2_computev+0x22c>)
  401274:	f8df 8104 	ldr.w	r8, [pc, #260]	; 40137c <_Z13task2_computev+0x200>
  401278:	f8df 9140 	ldr.w	r9, [pc, #320]	; 4013bc <_Z13task2_computev+0x240>
  40127c:	e9d3 ab00 	ldrd	sl, fp, [r3]
  401280:	e9dd 2306 	ldrd	r2, r3, [sp, #24]
  401284:	4610      	mov	r0, r2
  401286:	4619      	mov	r1, r3
  401288:	47b0      	blx	r6
  40128a:	4b41      	ldr	r3, [pc, #260]	; (401390 <_Z13task2_computev+0x214>)
  40128c:	e9d3 2300 	ldrd	r2, r3, [r3]
  401290:	47b0      	blx	r6
  401292:	4b46      	ldr	r3, [pc, #280]	; (4013ac <_Z13task2_computev+0x230>)
  401294:	4604      	mov	r4, r0
  401296:	460d      	mov	r5, r1
  401298:	e9d3 2300 	ldrd	r2, r3, [r3]
  40129c:	e9dd 0100 	ldrd	r0, r1, [sp]
  4012a0:	47c0      	blx	r8
  4012a2:	4652      	mov	r2, sl
  4012a4:	465b      	mov	r3, fp
  4012a6:	47c8      	blx	r9
  4012a8:	4602      	mov	r2, r0
  4012aa:	460b      	mov	r3, r1
  4012ac:	4620      	mov	r0, r4
  4012ae:	4629      	mov	r1, r5
  4012b0:	47c0      	blx	r8
  4012b2:	4604      	mov	r4, r0
  4012b4:	460d      	mov	r5, r1
  4012b6:	e9dd 2308 	ldrd	r2, r3, [sp, #32]
  4012ba:	4610      	mov	r0, r2
  4012bc:	4619      	mov	r1, r3
  4012be:	47b0      	blx	r6
  4012c0:	4b2f      	ldr	r3, [pc, #188]	; (401380 <_Z13task2_computev+0x204>)
  4012c2:	e9d3 2300 	ldrd	r2, r3, [r3]
  4012c6:	47b0      	blx	r6
  4012c8:	4b39      	ldr	r3, [pc, #228]	; (4013b0 <_Z13task2_computev+0x234>)
  4012ca:	4606      	mov	r6, r0
  4012cc:	460f      	mov	r7, r1
  4012ce:	e9d3 2300 	ldrd	r2, r3, [r3]
  4012d2:	e9dd 0102 	ldrd	r0, r1, [sp, #8]
  4012d6:	47c0      	blx	r8
  4012d8:	4652      	mov	r2, sl
  4012da:	465b      	mov	r3, fp
  4012dc:	47c8      	blx	r9
  4012de:	4602      	mov	r2, r0
  4012e0:	460b      	mov	r3, r1
  4012e2:	4630      	mov	r0, r6
  4012e4:	4639      	mov	r1, r7
  4012e6:	47c0      	blx	r8
  4012e8:	2200      	movs	r2, #0
  4012ea:	4606      	mov	r6, r0
  4012ec:	460f      	mov	r7, r1
  4012ee:	4b2b      	ldr	r3, [pc, #172]	; (40139c <_Z13task2_computev+0x220>)
  4012f0:	4620      	mov	r0, r4
  4012f2:	4629      	mov	r1, r5
  4012f4:	f8df 809c 	ldr.w	r8, [pc, #156]	; 401394 <_Z13task2_computev+0x218>
  4012f8:	47c0      	blx	r8
  4012fa:	b950      	cbnz	r0, 401312 <_Z13task2_computev+0x196>
  4012fc:	2200      	movs	r2, #0
  4012fe:	4b28      	ldr	r3, [pc, #160]	; (4013a0 <_Z13task2_computev+0x224>)
  401300:	4620      	mov	r0, r4
  401302:	4629      	mov	r1, r5
  401304:	f8df 8090 	ldr.w	r8, [pc, #144]	; 401398 <_Z13task2_computev+0x21c>
  401308:	47c0      	blx	r8
  40130a:	b120      	cbz	r0, 401316 <_Z13task2_computev+0x19a>
  40130c:	2400      	movs	r4, #0
  40130e:	4d24      	ldr	r5, [pc, #144]	; (4013a0 <_Z13task2_computev+0x224>)
  401310:	e001      	b.n	401316 <_Z13task2_computev+0x19a>
  401312:	2400      	movs	r4, #0
  401314:	4d21      	ldr	r5, [pc, #132]	; (40139c <_Z13task2_computev+0x220>)
  401316:	4b27      	ldr	r3, [pc, #156]	; (4013b4 <_Z13task2_computev+0x238>)
  401318:	2200      	movs	r2, #0
  40131a:	4630      	mov	r0, r6
  40131c:	4639      	mov	r1, r7
  40131e:	e9c3 4500 	strd	r4, r5, [r3]
  401322:	4b1e      	ldr	r3, [pc, #120]	; (40139c <_Z13task2_computev+0x220>)
  401324:	4c1b      	ldr	r4, [pc, #108]	; (401394 <_Z13task2_computev+0x218>)
  401326:	47a0      	blx	r4
  401328:	b948      	cbnz	r0, 40133e <_Z13task2_computev+0x1c2>
  40132a:	2200      	movs	r2, #0
  40132c:	4b1c      	ldr	r3, [pc, #112]	; (4013a0 <_Z13task2_computev+0x224>)
  40132e:	4630      	mov	r0, r6
  401330:	4639      	mov	r1, r7
  401332:	4c19      	ldr	r4, [pc, #100]	; (401398 <_Z13task2_computev+0x21c>)
  401334:	47a0      	blx	r4
  401336:	b120      	cbz	r0, 401342 <_Z13task2_computev+0x1c6>
  401338:	2600      	movs	r6, #0
  40133a:	4f19      	ldr	r7, [pc, #100]	; (4013a0 <_Z13task2_computev+0x224>)
  40133c:	e001      	b.n	401342 <_Z13task2_computev+0x1c6>
  40133e:	2600      	movs	r6, #0
  401340:	4f16      	ldr	r7, [pc, #88]	; (40139c <_Z13task2_computev+0x220>)
  401342:	4b1d      	ldr	r3, [pc, #116]	; (4013b8 <_Z13task2_computev+0x23c>)
  401344:	9a05      	ldr	r2, [sp, #20]
  401346:	ed9d 7b00 	vldr	d7, [sp]
  40134a:	e9c3 6700 	strd	r6, r7, [r3]
  40134e:	4b17      	ldr	r3, [pc, #92]	; (4013ac <_Z13task2_computev+0x230>)
  401350:	ed83 7b00 	vstr	d7, [r3]
  401354:	ed9d 7b02 	vldr	d7, [sp, #8]
  401358:	4b15      	ldr	r3, [pc, #84]	; (4013b0 <_Z13task2_computev+0x234>)
  40135a:	ed83 7b00 	vstr	d7, [r3]
  40135e:	4b03      	ldr	r3, [pc, #12]	; (40136c <_Z13task2_computev+0x1f0>)
  401360:	601a      	str	r2, [r3, #0]
  401362:	b00b      	add	sp, #44	; 0x2c
  401364:	e8bd 8ff0 	ldmia.w	sp!, {r4, r5, r6, r7, r8, r9, sl, fp, pc}
  401368:	00401809 	.word	0x00401809
  40136c:	20400ad8 	.word	0x20400ad8
  401370:	00400f8d 	.word	0x00400f8d
  401374:	20400aa8 	.word	0x20400aa8
  401378:	20400ab8 	.word	0x20400ab8
  40137c:	00402d11 	.word	0x00402d11
  401380:	204008b8 	.word	0x204008b8
  401384:	20400ab0 	.word	0x20400ab0
  401388:	20400ac0 	.word	0x20400ac0
  40138c:	20400aa0 	.word	0x20400aa0
  401390:	204008a8 	.word	0x204008a8
  401394:	00403599 	.word	0x00403599
  401398:	0040355d 	.word	0x0040355d
  40139c:	40590000 	.word	0x40590000
  4013a0:	c0590000 	.word	0xc0590000
  4013a4:	204008f8 	.word	0x204008f8
  4013a8:	00402d15 	.word	0x00402d15
  4013ac:	20400ad0 	.word	0x20400ad0
  4013b0:	20400a98 	.word	0x20400a98
  4013b4:	204008d8 	.word	0x204008d8
  4013b8:	20400be8 	.word	0x20400be8
  4013bc:	00403079 	.word	0x00403079

004013c0 <_Z20task3_control_motorsv>:
  4013c0:	4b34      	ldr	r3, [pc, #208]	; (401494 <_Z20task3_control_motorsv+0xd4>)
  4013c2:	e92d 4ff0 	stmdb	sp!, {r4, r5, r6, r7, r8, r9, sl, fp, lr}
  4013c6:	e9d3 ab00 	ldrd	sl, fp, [r3]
  4013ca:	4b33      	ldr	r3, [pc, #204]	; (401498 <_Z20task3_control_motorsv+0xd8>)
  4013cc:	b085      	sub	sp, #20
  4013ce:	f8df 80fc 	ldr.w	r8, [pc, #252]	; 4014cc <_Z20task3_control_motorsv+0x10c>
  4013d2:	4650      	mov	r0, sl
  4013d4:	f10b 4100 	add.w	r1, fp, #2147483648	; 0x80000000
  4013d8:	4f30      	ldr	r7, [pc, #192]	; (40149c <_Z20task3_control_motorsv+0xdc>)
  4013da:	4e31      	ldr	r6, [pc, #196]	; (4014a0 <_Z20task3_control_motorsv+0xe0>)
  4013dc:	4c31      	ldr	r4, [pc, #196]	; (4014a4 <_Z20task3_control_motorsv+0xe4>)
  4013de:	4d32      	ldr	r5, [pc, #200]	; (4014a8 <_Z20task3_control_motorsv+0xe8>)
  4013e0:	f8df 90ec 	ldr.w	r9, [pc, #236]	; 4014d0 <_Z20task3_control_motorsv+0x110>
  4013e4:	ed93 7b00 	vldr	d7, [r3]
  4013e8:	4b30      	ldr	r3, [pc, #192]	; (4014ac <_Z20task3_control_motorsv+0xec>)
  4013ea:	ed8d 7b00 	vstr	d7, [sp]
  4013ee:	ed93 7b00 	vldr	d7, [r3]
  4013f2:	e9dd 2300 	ldrd	r2, r3, [sp]
  4013f6:	ed8d 7b02 	vstr	d7, [sp, #8]
  4013fa:	47c0      	blx	r8
  4013fc:	47b8      	blx	r7
  4013fe:	47b0      	blx	r6
  401400:	e9dd 2302 	ldrd	r2, r3, [sp, #8]
  401404:	47a0      	blx	r4
  401406:	2200      	movs	r2, #0
  401408:	2300      	movs	r3, #0
  40140a:	47a0      	blx	r4
  40140c:	47a8      	blx	r5
  40140e:	4b28      	ldr	r3, [pc, #160]	; (4014b0 <_Z20task3_control_motorsv+0xf0>)
  401410:	4652      	mov	r2, sl
  401412:	6018      	str	r0, [r3, #0]
  401414:	465b      	mov	r3, fp
  401416:	e9dd 0100 	ldrd	r0, r1, [sp]
  40141a:	47c0      	blx	r8
  40141c:	47b8      	blx	r7
  40141e:	47b0      	blx	r6
  401420:	e9dd 2302 	ldrd	r2, r3, [sp, #8]
  401424:	47a0      	blx	r4
  401426:	47a8      	blx	r5
  401428:	4b22      	ldr	r3, [pc, #136]	; (4014b4 <_Z20task3_control_motorsv+0xf4>)
  40142a:	4659      	mov	r1, fp
  40142c:	6018      	str	r0, [r3, #0]
  40142e:	4650      	mov	r0, sl
  401430:	e9dd 2300 	ldrd	r2, r3, [sp]
  401434:	47a0      	blx	r4
  401436:	47b8      	blx	r7
  401438:	47b0      	blx	r6
  40143a:	e9dd 2302 	ldrd	r2, r3, [sp, #8]
  40143e:	47a0      	blx	r4
  401440:	2200      	movs	r2, #0
  401442:	2300      	movs	r3, #0
  401444:	47a0      	blx	r4
  401446:	47a8      	blx	r5
  401448:	4659      	mov	r1, fp
  40144a:	f8c9 0000 	str.w	r0, [r9]
  40144e:	4650      	mov	r0, sl
  401450:	e9dd 2300 	ldrd	r2, r3, [sp]
  401454:	47c0      	blx	r8
  401456:	47b8      	blx	r7
  401458:	47b0      	blx	r6
  40145a:	e9dd 2302 	ldrd	r2, r3, [sp, #8]
  40145e:	47a0      	blx	r4
  401460:	4c15      	ldr	r4, [pc, #84]	; (4014b8 <_Z20task3_control_motorsv+0xf8>)
  401462:	47a8      	blx	r5
  401464:	4b15      	ldr	r3, [pc, #84]	; (4014bc <_Z20task3_control_motorsv+0xfc>)
  401466:	4601      	mov	r1, r0
  401468:	6818      	ldr	r0, [r3, #0]
  40146a:	47a0      	blx	r4
  40146c:	4b10      	ldr	r3, [pc, #64]	; (4014b0 <_Z20task3_control_motorsv+0xf0>)
  40146e:	6819      	ldr	r1, [r3, #0]
  401470:	4b13      	ldr	r3, [pc, #76]	; (4014c0 <_Z20task3_control_motorsv+0x100>)
  401472:	6818      	ldr	r0, [r3, #0]
  401474:	47a0      	blx	r4
  401476:	4b0f      	ldr	r3, [pc, #60]	; (4014b4 <_Z20task3_control_motorsv+0xf4>)
  401478:	6819      	ldr	r1, [r3, #0]
  40147a:	4b12      	ldr	r3, [pc, #72]	; (4014c4 <_Z20task3_control_motorsv+0x104>)
  40147c:	6818      	ldr	r0, [r3, #0]
  40147e:	47a0      	blx	r4
  401480:	4b11      	ldr	r3, [pc, #68]	; (4014c8 <_Z20task3_control_motorsv+0x108>)
  401482:	f8d9 1000 	ldr.w	r1, [r9]
  401486:	6818      	ldr	r0, [r3, #0]
  401488:	4623      	mov	r3, r4
  40148a:	b005      	add	sp, #20
  40148c:	e8bd 4ff0 	ldmia.w	sp!, {r4, r5, r6, r7, r8, r9, sl, fp, lr}
  401490:	4718      	bx	r3
  401492:	bf00      	nop
  401494:	204008d8 	.word	0x204008d8
  401498:	20400be8 	.word	0x20400be8
  40149c:	004035d9 	.word	0x004035d9
  4014a0:	00402fad 	.word	0x00402fad
  4014a4:	00402d15 	.word	0x00402d15
  4014a8:	00403629 	.word	0x00403629
  4014ac:	20400be0 	.word	0x20400be0
  4014b0:	2040090c 	.word	0x2040090c
  4014b4:	20400ac8 	.word	0x20400ac8
  4014b8:	00401c69 	.word	0x00401c69
  4014bc:	20400bf0 	.word	0x20400bf0
  4014c0:	20400bf4 	.word	0x20400bf4
  4014c4:	20400904 	.word	0x20400904
  4014c8:	20400908 	.word	0x20400908
  4014cc:	00402d11 	.word	0x00402d11
  4014d0:	204008f4 	.word	0x204008f4

004014d4 <main>:
  4014d4:	e92d 41f3 	stmdb	sp!, {r0, r1, r4, r5, r6, r7, r8, lr}
  4014d8:	4b65      	ldr	r3, [pc, #404]	; (401670 <main+0x19c>)
  4014da:	4798      	blx	r3
  4014dc:	4b65      	ldr	r3, [pc, #404]	; (401674 <main+0x1a0>)
  4014de:	4798      	blx	r3
  4014e0:	4c65      	ldr	r4, [pc, #404]	; (401678 <main+0x1a4>)
  4014e2:	200a      	movs	r0, #10
  4014e4:	47a0      	blx	r4
  4014e6:	200b      	movs	r0, #11
  4014e8:	47a0      	blx	r4
  4014ea:	2010      	movs	r0, #16
  4014ec:	47a0      	blx	r4
  4014ee:	f3bf 8f4f 	dsb	sy
  4014f2:	f3bf 8f6f 	isb	sy
  4014f6:	4b61      	ldr	r3, [pc, #388]	; (40167c <main+0x1a8>)
  4014f8:	2200      	movs	r2, #0
  4014fa:	f8c3 2250 	str.w	r2, [r3, #592]	; 0x250
  4014fe:	695a      	ldr	r2, [r3, #20]
  401500:	f442 3200 	orr.w	r2, r2, #131072	; 0x20000
  401504:	615a      	str	r2, [r3, #20]
  401506:	f3bf 8f4f 	dsb	sy
  40150a:	f3bf 8f6f 	isb	sy
  40150e:	f8d3 2080 	ldr.w	r2, [r3, #128]	; 0x80
  401512:	f002 0407 	and.w	r4, r2, #7
  401516:	f3c2 314e 	ubfx	r1, r2, #13, #15
  40151a:	f3c2 02c9 	ubfx	r2, r2, #3, #10
  40151e:	3404      	adds	r4, #4
  401520:	fab2 f582 	clz	r5, r2
  401524:	f005 051f 	and.w	r5, r5, #31
  401528:	f3bf 8f4f 	dsb	sy
  40152c:	4610      	mov	r0, r2
  40152e:	fa01 fe04 	lsl.w	lr, r1, r4
  401532:	fa00 f605 	lsl.w	r6, r0, r5
  401536:	f110 30ff 	adds.w	r0, r0, #4294967295
  40153a:	4f50      	ldr	r7, [pc, #320]	; (40167c <main+0x1a8>)
  40153c:	ea46 060e 	orr.w	r6, r6, lr
  401540:	f8c3 6260 	str.w	r6, [r3, #608]	; 0x260
  401544:	d2f5      	bcs.n	401532 <main+0x5e>
  401546:	f111 31ff 	adds.w	r1, r1, #4294967295
  40154a:	d2ef      	bcs.n	40152c <main+0x58>
  40154c:	f3bf 8f4f 	dsb	sy
  401550:	697b      	ldr	r3, [r7, #20]
  401552:	f443 3380 	orr.w	r3, r3, #65536	; 0x10000
  401556:	617b      	str	r3, [r7, #20]
  401558:	f3bf 8f4f 	dsb	sy
  40155c:	f3bf 8f6f 	isb	sy
  401560:	f3ef 8310 	mrs	r3, PRIMASK
  401564:	fab3 f383 	clz	r3, r3
  401568:	095b      	lsrs	r3, r3, #5
  40156a:	9301      	str	r3, [sp, #4]
  40156c:	b672      	cpsid	i
  40156e:	f3bf 8f5f 	dmb	sy
  401572:	4a43      	ldr	r2, [pc, #268]	; (401680 <main+0x1ac>)
  401574:	2300      	movs	r3, #0
  401576:	4943      	ldr	r1, [pc, #268]	; (401684 <main+0x1b0>)
  401578:	7013      	strb	r3, [r2, #0]
  40157a:	9801      	ldr	r0, [sp, #4]
  40157c:	680b      	ldr	r3, [r1, #0]
  40157e:	f443 0370 	orr.w	r3, r3, #15728640	; 0xf00000
  401582:	600b      	str	r3, [r1, #0]
  401584:	f3bf 8f4f 	dsb	sy
  401588:	f3bf 8f6f 	isb	sy
  40158c:	b120      	cbz	r0, 401598 <main+0xc4>
  40158e:	2301      	movs	r3, #1
  401590:	7013      	strb	r3, [r2, #0]
  401592:	f3bf 8f5f 	dmb	sy
  401596:	b662      	cpsie	i
  401598:	4a3b      	ldr	r2, [pc, #236]	; (401688 <main+0x1b4>)
  40159a:	21e0      	movs	r1, #224	; 0xe0
  40159c:	2400      	movs	r4, #0
  40159e:	4d3b      	ldr	r5, [pc, #236]	; (40168c <main+0x1b8>)
  4015a0:	f8d2 3114 	ldr.w	r3, [r2, #276]	; 0x114
  4015a4:	483a      	ldr	r0, [pc, #232]	; (401690 <main+0x1bc>)
  4015a6:	f043 0330 	orr.w	r3, r3, #48	; 0x30
  4015aa:	f8c2 3114 	str.w	r3, [r2, #276]	; 0x114
  4015ae:	f240 122b 	movw	r2, #299	; 0x12b
  4015b2:	4b38      	ldr	r3, [pc, #224]	; (401694 <main+0x1c0>)
  4015b4:	605a      	str	r2, [r3, #4]
  4015b6:	4a31      	ldr	r2, [pc, #196]	; (40167c <main+0x1a8>)
  4015b8:	f882 1023 	strb.w	r1, [r2, #35]	; 0x23
  4015bc:	2207      	movs	r2, #7
  4015be:	609c      	str	r4, [r3, #8]
  4015c0:	2120      	movs	r1, #32
  4015c2:	601a      	str	r2, [r3, #0]
  4015c4:	2280      	movs	r2, #128	; 0x80
  4015c6:	f8c3 2270 	str.w	r2, [r3, #624]	; 0x270
  4015ca:	f883 13f7 	strb.w	r1, [r3, #1015]	; 0x3f7
  4015ce:	2161      	movs	r1, #97	; 0x61
  4015d0:	f8c3 20f0 	str.w	r2, [r3, #240]	; 0xf0
  4015d4:	4b30      	ldr	r3, [pc, #192]	; (401698 <main+0x1c4>)
  4015d6:	4798      	blx	r3
  4015d8:	6828      	ldr	r0, [r5, #0]
  4015da:	4b30      	ldr	r3, [pc, #192]	; (40169c <main+0x1c8>)
  4015dc:	4798      	blx	r3
  4015de:	4620      	mov	r0, r4
  4015e0:	4b2f      	ldr	r3, [pc, #188]	; (4016a0 <main+0x1cc>)
  4015e2:	4798      	blx	r3
  4015e4:	b2c4      	uxtb	r4, r0
  4015e6:	b144      	cbz	r4, 4015fa <main+0x126>
  4015e8:	492e      	ldr	r1, [pc, #184]	; (4016a4 <main+0x1d0>)
  4015ea:	6828      	ldr	r0, [r5, #0]
  4015ec:	4b2e      	ldr	r3, [pc, #184]	; (4016a8 <main+0x1d4>)
  4015ee:	4798      	blx	r3
  4015f0:	4621      	mov	r1, r4
  4015f2:	4628      	mov	r0, r5
  4015f4:	4b2d      	ldr	r3, [pc, #180]	; (4016ac <main+0x1d8>)
  4015f6:	4798      	blx	r3
  4015f8:	e7fe      	b.n	4015f8 <main+0x124>
  4015fa:	492d      	ldr	r1, [pc, #180]	; (4016b0 <main+0x1dc>)
  4015fc:	4628      	mov	r0, r5
  4015fe:	4e2d      	ldr	r6, [pc, #180]	; (4016b4 <main+0x1e0>)
  401600:	4c2d      	ldr	r4, [pc, #180]	; (4016b8 <main+0x1e4>)
  401602:	47b0      	blx	r6
  401604:	f8df 80ec 	ldr.w	r8, [pc, #236]	; 4016f4 <main+0x220>
  401608:	47a0      	blx	r4
  40160a:	482c      	ldr	r0, [pc, #176]	; (4016bc <main+0x1e8>)
  40160c:	4b2c      	ldr	r3, [pc, #176]	; (4016c0 <main+0x1ec>)
  40160e:	4647      	mov	r7, r8
  401610:	4798      	blx	r3
  401612:	482c      	ldr	r0, [pc, #176]	; (4016c4 <main+0x1f0>)
  401614:	4b2c      	ldr	r3, [pc, #176]	; (4016c8 <main+0x1f4>)
  401616:	4798      	blx	r3
  401618:	4628      	mov	r0, r5
  40161a:	4625      	mov	r5, r4
  40161c:	492b      	ldr	r1, [pc, #172]	; (4016cc <main+0x1f8>)
  40161e:	47b0      	blx	r6
  401620:	47a0      	blx	r4
  401622:	f8d8 3000 	ldr.w	r3, [r8]
  401626:	f503 539c 	add.w	r3, r3, #4992	; 0x1380
  40162a:	3308      	adds	r3, #8
  40162c:	4298      	cmp	r0, r3
  40162e:	d3f7      	bcc.n	401620 <main+0x14c>
  401630:	47a8      	blx	r5
  401632:	4b27      	ldr	r3, [pc, #156]	; (4016d0 <main+0x1fc>)
  401634:	4606      	mov	r6, r0
  401636:	4798      	blx	r3
  401638:	4b20      	ldr	r3, [pc, #128]	; (4016bc <main+0x1e8>)
  40163a:	4a26      	ldr	r2, [pc, #152]	; (4016d4 <main+0x200>)
  40163c:	e9d3 0128 	ldrd	r0, r1, [r3, #160]	; 0xa0
  401640:	e9c2 0100 	strd	r0, r1, [r2]
  401644:	e9d3 012a 	ldrd	r0, r1, [r3, #168]	; 0xa8
  401648:	4b23      	ldr	r3, [pc, #140]	; (4016d8 <main+0x204>)
  40164a:	e9c3 0100 	strd	r0, r1, [r3]
  40164e:	4b23      	ldr	r3, [pc, #140]	; (4016dc <main+0x208>)
  401650:	4798      	blx	r3
  401652:	4b23      	ldr	r3, [pc, #140]	; (4016e0 <main+0x20c>)
  401654:	4798      	blx	r3
  401656:	4b23      	ldr	r3, [pc, #140]	; (4016e4 <main+0x210>)
  401658:	4798      	blx	r3
  40165a:	47a8      	blx	r5
  40165c:	4b22      	ldr	r3, [pc, #136]	; (4016e8 <main+0x214>)
  40165e:	1b80      	subs	r0, r0, r6
  401660:	6018      	str	r0, [r3, #0]
  401662:	47a8      	blx	r5
  401664:	4b21      	ldr	r3, [pc, #132]	; (4016ec <main+0x218>)
  401666:	6038      	str	r0, [r7, #0]
  401668:	4821      	ldr	r0, [pc, #132]	; (4016f0 <main+0x21c>)
  40166a:	4798      	blx	r3
  40166c:	e7d8      	b.n	401620 <main+0x14c>
  40166e:	bf00      	nop
  401670:	00401e99 	.word	0x00401e99
  401674:	00402493 	.word	0x00402493
  401678:	00402211 	.word	0x00402211
  40167c:	e000ed00 	.word	0xe000ed00
  401680:	20400000 	.word	0x20400000
  401684:	e000ed88 	.word	0xe000ed88
  401688:	40088000 	.word	0x40088000
  40168c:	204008c0 	.word	0x204008c0
  401690:	400e0800 	.word	0x400e0800
  401694:	e000e010 	.word	0xe000e010
  401698:	0040246d 	.word	0x0040246d
  40169c:	00401cc1 	.word	0x00401cc1
  4016a0:	00401dbd 	.word	0x00401dbd
  4016a4:	00406531 	.word	0x00406531
  4016a8:	00401d95 	.word	0x00401d95
  4016ac:	00400289 	.word	0x00400289
  4016b0:	00406541 	.word	0x00406541
  4016b4:	00400209 	.word	0x00400209
  4016b8:	00401809 	.word	0x00401809
  4016bc:	20400918 	.word	0x20400918
  4016c0:	00400589 	.word	0x00400589
  4016c4:	000186a0 	.word	0x000186a0
  4016c8:	004017f5 	.word	0x004017f5
  4016cc:	0040654d 	.word	0x0040654d
  4016d0:	00400aa1 	.word	0x00400aa1
  4016d4:	20400aa8 	.word	0x20400aa8
  4016d8:	20400ab0 	.word	0x20400ab0
  4016dc:	00401001 	.word	0x00401001
  4016e0:	0040117d 	.word	0x0040117d
  4016e4:	004013c1 	.word	0x004013c1
  4016e8:	20400bf8 	.word	0x20400bf8
  4016ec:	00401b01 	.word	0x00401b01
  4016f0:	400e1850 	.word	0x400e1850
  4016f4:	20400adc 	.word	0x20400adc

004016f8 <_GLOBAL__sub_I__Z11parseAnglesPc>:
  4016f8:	2200      	movs	r2, #0
  4016fa:	4b10      	ldr	r3, [pc, #64]	; (40173c <_GLOBAL__sub_I__Z11parseAnglesPc+0x44>)
  4016fc:	2001      	movs	r0, #1
  4016fe:	b510      	push	{r4, lr}
  401700:	601a      	str	r2, [r3, #0]
  401702:	4b0f      	ldr	r3, [pc, #60]	; (401740 <_GLOBAL__sub_I__Z11parseAnglesPc+0x48>)
  401704:	4c0f      	ldr	r4, [pc, #60]	; (401744 <_GLOBAL__sub_I__Z11parseAnglesPc+0x4c>)
  401706:	6018      	str	r0, [r3, #0]
  401708:	47a0      	blx	r4
  40170a:	2002      	movs	r0, #2
  40170c:	4b0e      	ldr	r3, [pc, #56]	; (401748 <_GLOBAL__sub_I__Z11parseAnglesPc+0x50>)
  40170e:	6018      	str	r0, [r3, #0]
  401710:	47a0      	blx	r4
  401712:	2003      	movs	r0, #3
  401714:	4b0d      	ldr	r3, [pc, #52]	; (40174c <_GLOBAL__sub_I__Z11parseAnglesPc+0x54>)
  401716:	6018      	str	r0, [r3, #0]
  401718:	47a0      	blx	r4
  40171a:	2004      	movs	r0, #4
  40171c:	4b0c      	ldr	r3, [pc, #48]	; (401750 <_GLOBAL__sub_I__Z11parseAnglesPc+0x58>)
  40171e:	6018      	str	r0, [r3, #0]
  401720:	47a0      	blx	r4
  401722:	4b0c      	ldr	r3, [pc, #48]	; (401754 <_GLOBAL__sub_I__Z11parseAnglesPc+0x5c>)
  401724:	480c      	ldr	r0, [pc, #48]	; (401758 <_GLOBAL__sub_I__Z11parseAnglesPc+0x60>)
  401726:	4798      	blx	r3
  401728:	2200      	movs	r2, #0
  40172a:	2300      	movs	r3, #0
  40172c:	490b      	ldr	r1, [pc, #44]	; (40175c <_GLOBAL__sub_I__Z11parseAnglesPc+0x64>)
  40172e:	e9c1 2300 	strd	r2, r3, [r1]
  401732:	490b      	ldr	r1, [pc, #44]	; (401760 <_GLOBAL__sub_I__Z11parseAnglesPc+0x68>)
  401734:	e9c1 2300 	strd	r2, r3, [r1]
  401738:	bd10      	pop	{r4, pc}
  40173a:	bf00      	nop
  40173c:	204008c0 	.word	0x204008c0
  401740:	20400bf0 	.word	0x20400bf0
  401744:	00401b85 	.word	0x00401b85
  401748:	20400bf4 	.word	0x20400bf4
  40174c:	20400904 	.word	0x20400904
  401750:	20400908 	.word	0x20400908
  401754:	00400a11 	.word	0x00400a11
  401758:	20400918 	.word	0x20400918
  40175c:	20400aa0 	.word	0x20400aa0
  401760:	204008f8 	.word	0x204008f8

00401764 <afec_process_callback>:
  401764:	b5f7      	push	{r0, r1, r2, r4, r5, r6, r7, lr}
  401766:	4d15      	ldr	r5, [pc, #84]	; (4017bc <afec_process_callback+0x58>)
  401768:	2400      	movs	r4, #0
  40176a:	6b02      	ldr	r2, [r0, #48]	; 0x30
  40176c:	2601      	movs	r6, #1
  40176e:	6ac3      	ldr	r3, [r0, #44]	; 0x2c
  401770:	4013      	ands	r3, r2
  401772:	1b42      	subs	r2, r0, r5
  401774:	4d12      	ldr	r5, [pc, #72]	; (4017c0 <afec_process_callback+0x5c>)
  401776:	4250      	negs	r0, r2
  401778:	9301      	str	r3, [sp, #4]
  40177a:	4150      	adcs	r0, r2
  40177c:	eb05 1580 	add.w	r5, r5, r0, lsl #6
  401780:	462f      	mov	r7, r5
  401782:	2c0b      	cmp	r4, #11
  401784:	d803      	bhi.n	40178e <afec_process_callback+0x2a>
  401786:	9b01      	ldr	r3, [sp, #4]
  401788:	fa06 f204 	lsl.w	r2, r6, r4
  40178c:	e006      	b.n	40179c <afec_process_callback+0x38>
  40178e:	2c0f      	cmp	r4, #15
  401790:	d009      	beq.n	4017a6 <afec_process_callback+0x42>
  401792:	f104 030c 	add.w	r3, r4, #12
  401796:	9a01      	ldr	r2, [sp, #4]
  401798:	fa06 f303 	lsl.w	r3, r6, r3
  40179c:	4213      	tst	r3, r2
  40179e:	d008      	beq.n	4017b2 <afec_process_callback+0x4e>
  4017a0:	f855 3024 	ldr.w	r3, [r5, r4, lsl #2]
  4017a4:	e003      	b.n	4017ae <afec_process_callback+0x4a>
  4017a6:	9b01      	ldr	r3, [sp, #4]
  4017a8:	005b      	lsls	r3, r3, #1
  4017aa:	d502      	bpl.n	4017b2 <afec_process_callback+0x4e>
  4017ac:	6bfb      	ldr	r3, [r7, #60]	; 0x3c
  4017ae:	b103      	cbz	r3, 4017b2 <afec_process_callback+0x4e>
  4017b0:	4798      	blx	r3
  4017b2:	3401      	adds	r4, #1
  4017b4:	2c10      	cmp	r4, #16
  4017b6:	d1e4      	bne.n	401782 <afec_process_callback+0x1e>
  4017b8:	b003      	add	sp, #12
  4017ba:	bdf0      	pop	{r4, r5, r6, r7, pc}
  4017bc:	40064000 	.word	0x40064000
  4017c0:	20400d0c 	.word	0x20400d0c

004017c4 <AFEC0_Handler>:
  4017c4:	4801      	ldr	r0, [pc, #4]	; (4017cc <AFEC0_Handler+0x8>)
  4017c6:	4b02      	ldr	r3, [pc, #8]	; (4017d0 <AFEC0_Handler+0xc>)
  4017c8:	4718      	bx	r3
  4017ca:	bf00      	nop
  4017cc:	4003c000 	.word	0x4003c000
  4017d0:	00401765 	.word	0x00401765

004017d4 <AFEC1_Handler>:
  4017d4:	4801      	ldr	r0, [pc, #4]	; (4017dc <AFEC1_Handler+0x8>)
  4017d6:	4b02      	ldr	r3, [pc, #8]	; (4017e0 <AFEC1_Handler+0xc>)
  4017d8:	4718      	bx	r3
  4017da:	bf00      	nop
  4017dc:	40064000 	.word	0x40064000
  4017e0:	00401765 	.word	0x00401765

004017e4 <SysTick_Handler>:
  4017e4:	4a02      	ldr	r2, [pc, #8]	; (4017f0 <SysTick_Handler+0xc>)
  4017e6:	6813      	ldr	r3, [r2, #0]
  4017e8:	3301      	adds	r3, #1
  4017ea:	6013      	str	r3, [r2, #0]
  4017ec:	4770      	bx	lr
  4017ee:	bf00      	nop
  4017f0:	20400bfc 	.word	0x20400bfc

004017f4 <_Z6mdelaym>:
  4017f4:	4b03      	ldr	r3, [pc, #12]	; (401804 <_Z6mdelaym+0x10>)
  4017f6:	6819      	ldr	r1, [r3, #0]
  4017f8:	681a      	ldr	r2, [r3, #0]
  4017fa:	1a52      	subs	r2, r2, r1
  4017fc:	4282      	cmp	r2, r0
  4017fe:	d3fb      	bcc.n	4017f8 <_Z6mdelaym+0x4>
  401800:	4770      	bx	lr
  401802:	bf00      	nop
  401804:	20400bfc 	.word	0x20400bfc

00401808 <_Z6microsv>:
  401808:	4b01      	ldr	r3, [pc, #4]	; (401810 <_Z6microsv+0x8>)
  40180a:	6818      	ldr	r0, [r3, #0]
  40180c:	4770      	bx	lr
  40180e:	bf00      	nop
  401810:	20400bfc 	.word	0x20400bfc

00401814 <_Z5_itoaPcl>:
  401814:	17cb      	asrs	r3, r1, #31
  401816:	2200      	movs	r2, #0
  401818:	eb01 71e1 	add.w	r1, r1, r1, asr #31
  40181c:	b570      	push	{r4, r5, r6, lr}
  40181e:	4059      	eors	r1, r3
  401820:	1e45      	subs	r5, r0, #1
  401822:	260a      	movs	r6, #10
  401824:	3201      	adds	r2, #1
  401826:	fbb1 f4f6 	udiv	r4, r1, r6
  40182a:	fb06 1114 	mls	r1, r6, r4, r1
  40182e:	3130      	adds	r1, #48	; 0x30
  401830:	f805 1f01 	strb.w	r1, [r5, #1]!
  401834:	4621      	mov	r1, r4
  401836:	2c00      	cmp	r4, #0
  401838:	d1f4      	bne.n	401824 <_Z5_itoaPcl+0x10>
  40183a:	f003 0301 	and.w	r3, r3, #1
  40183e:	242d      	movs	r4, #45	; 0x2d
  401840:	4413      	add	r3, r2
  401842:	5484      	strb	r4, [r0, r2]
  401844:	54c1      	strb	r1, [r0, r3]
  401846:	3b01      	subs	r3, #1
  401848:	4299      	cmp	r1, r3
  40184a:	d205      	bcs.n	401858 <_Z5_itoaPcl+0x44>
  40184c:	5c42      	ldrb	r2, [r0, r1]
  40184e:	5cc4      	ldrb	r4, [r0, r3]
  401850:	5444      	strb	r4, [r0, r1]
  401852:	3101      	adds	r1, #1
  401854:	54c2      	strb	r2, [r0, r3]
  401856:	e7f6      	b.n	401846 <_Z5_itoaPcl+0x32>
  401858:	bd70      	pop	{r4, r5, r6, pc}
	...

0040185c <_ZN6KalmanC1Ev>:
  40185c:	4a06      	ldr	r2, [pc, #24]	; (401878 <_ZN6KalmanC1Ev+0x1c>)
  40185e:	6002      	str	r2, [r0, #0]
  401860:	4a06      	ldr	r2, [pc, #24]	; (40187c <_ZN6KalmanC1Ev+0x20>)
  401862:	6042      	str	r2, [r0, #4]
  401864:	4a06      	ldr	r2, [pc, #24]	; (401880 <_ZN6KalmanC1Ev+0x24>)
  401866:	6082      	str	r2, [r0, #8]
  401868:	2200      	movs	r2, #0
  40186a:	60c2      	str	r2, [r0, #12]
  40186c:	6102      	str	r2, [r0, #16]
  40186e:	6182      	str	r2, [r0, #24]
  401870:	61c2      	str	r2, [r0, #28]
  401872:	6202      	str	r2, [r0, #32]
  401874:	6242      	str	r2, [r0, #36]	; 0x24
  401876:	4770      	bx	lr
  401878:	3a83126f 	.word	0x3a83126f
  40187c:	3b449ba6 	.word	0x3b449ba6
  401880:	3cf5c28f 	.word	0x3cf5c28f

00401884 <_ZN6Kalman8getAngleEfff>:
  401884:	ed90 4a04 	vldr	s8, [r0, #16]
  401888:	ee07 2a90 	vmov	s15, r2
  40188c:	edd0 5a07 	vldr	s11, [r0, #28]
  401890:	ee05 3a10 	vmov	s10, r3
  401894:	ee77 7ac4 	vsub.f32	s15, s15, s8
  401898:	edd0 6a03 	vldr	s13, [r0, #12]
  40189c:	eef0 4a65 	vmov.f32	s9, s11
  4018a0:	ed90 6a08 	vldr	s12, [r0, #32]
  4018a4:	eee7 6a85 	vfma.f32	s13, s15, s10
  4018a8:	edc0 7a05 	vstr	s15, [r0, #20]
  4018ac:	edd0 7a09 	vldr	s15, [r0, #36]	; 0x24
  4018b0:	eed5 4a27 	vfnms.f32	s9, s10, s15
  4018b4:	ee34 7ac6 	vsub.f32	s14, s9, s12
  4018b8:	edd0 4a00 	vldr	s9, [r0]
  4018bc:	ee77 4a24 	vadd.f32	s9, s14, s9
  4018c0:	ed90 7a06 	vldr	s14, [r0, #24]
  4018c4:	eea5 7a24 	vfma.f32	s14, s10, s9
  4018c8:	eef1 4a45 	vneg.f32	s9, s10
  4018cc:	eee4 5aa7 	vfma.f32	s11, s9, s15
  4018d0:	eea4 6aa7 	vfma.f32	s12, s9, s15
  4018d4:	edd0 4a01 	vldr	s9, [r0, #4]
  4018d8:	eee5 7a24 	vfma.f32	s15, s10, s9
  4018dc:	ed90 5a02 	vldr	s10, [r0, #8]
  4018e0:	ee37 5a05 	vadd.f32	s10, s14, s10
  4018e4:	eec7 3a05 	vdiv.f32	s7, s14, s10
  4018e8:	eec6 4a05 	vdiv.f32	s9, s12, s10
  4018ec:	ee05 1a10 	vmov	s10, r1
  4018f0:	ee35 5a66 	vsub.f32	s10, s10, s13
  4018f4:	eee3 6a85 	vfma.f32	s13, s7, s10
  4018f8:	eea4 4a85 	vfma.f32	s8, s9, s10
  4018fc:	eeb1 5a47 	vneg.f32	s10, s14
  401900:	edc0 6a03 	vstr	s13, [r0, #12]
  401904:	eea5 7a23 	vfma.f32	s14, s10, s7
  401908:	eea5 6a24 	vfma.f32	s12, s10, s9
  40190c:	ed80 4a04 	vstr	s8, [r0, #16]
  401910:	ed80 7a06 	vstr	s14, [r0, #24]
  401914:	eeb1 7a65 	vneg.f32	s14, s11
  401918:	ed80 6a08 	vstr	s12, [r0, #32]
  40191c:	eee7 5a23 	vfma.f32	s11, s14, s7
  401920:	eee7 7a24 	vfma.f32	s15, s14, s9
  401924:	edc0 5a07 	vstr	s11, [r0, #28]
  401928:	edc0 7a09 	vstr	s15, [r0, #36]	; 0x24
  40192c:	ee16 0a90 	vmov	r0, s13
  401930:	4770      	bx	lr

00401932 <_ZN6Kalman8setAngleEf>:
  401932:	60c1      	str	r1, [r0, #12]
  401934:	4770      	bx	lr
	...

00401938 <twihs_set_speed>:
  401938:	4b20      	ldr	r3, [pc, #128]	; (4019bc <twihs_set_speed+0x84>)
  40193a:	4299      	cmp	r1, r3
  40193c:	b510      	push	{r4, lr}
  40193e:	d83b      	bhi.n	4019b8 <twihs_set_speed+0x80>
  401940:	f5a3 537a 	sub.w	r3, r3, #16000	; 0x3e80
  401944:	4299      	cmp	r1, r3
  401946:	d920      	bls.n	40198a <twihs_set_speed+0x52>
  401948:	4b1d      	ldr	r3, [pc, #116]	; (4019c0 <twihs_set_speed+0x88>)
  40194a:	4c1e      	ldr	r4, [pc, #120]	; (4019c4 <twihs_set_speed+0x8c>)
  40194c:	440b      	add	r3, r1
  40194e:	009b      	lsls	r3, r3, #2
  401950:	fbb2 f4f4 	udiv	r4, r2, r4
  401954:	fbb2 f2f3 	udiv	r2, r2, r3
  401958:	3c03      	subs	r4, #3
  40195a:	3a03      	subs	r2, #3
  40195c:	2300      	movs	r3, #0
  40195e:	2cff      	cmp	r4, #255	; 0xff
  401960:	d908      	bls.n	401974 <twihs_set_speed+0x3c>
  401962:	2b07      	cmp	r3, #7
  401964:	d006      	beq.n	401974 <twihs_set_speed+0x3c>
  401966:	3301      	adds	r3, #1
  401968:	0864      	lsrs	r4, r4, #1
  40196a:	e7f8      	b.n	40195e <twihs_set_speed+0x26>
  40196c:	2b07      	cmp	r3, #7
  40196e:	d003      	beq.n	401978 <twihs_set_speed+0x40>
  401970:	3301      	adds	r3, #1
  401972:	0852      	lsrs	r2, r2, #1
  401974:	2aff      	cmp	r2, #255	; 0xff
  401976:	d8f9      	bhi.n	40196c <twihs_set_speed+0x34>
  401978:	0212      	lsls	r2, r2, #8
  40197a:	041b      	lsls	r3, r3, #16
  40197c:	b292      	uxth	r2, r2
  40197e:	f403 23e0 	and.w	r3, r3, #458752	; 0x70000
  401982:	b2e4      	uxtb	r4, r4
  401984:	431a      	orrs	r2, r3
  401986:	4322      	orrs	r2, r4
  401988:	e013      	b.n	4019b2 <twihs_set_speed+0x7a>
  40198a:	0049      	lsls	r1, r1, #1
  40198c:	2300      	movs	r3, #0
  40198e:	fbb2 f2f1 	udiv	r2, r2, r1
  401992:	3a03      	subs	r2, #3
  401994:	2aff      	cmp	r2, #255	; 0xff
  401996:	d904      	bls.n	4019a2 <twihs_set_speed+0x6a>
  401998:	2b07      	cmp	r3, #7
  40199a:	d002      	beq.n	4019a2 <twihs_set_speed+0x6a>
  40199c:	3301      	adds	r3, #1
  40199e:	0852      	lsrs	r2, r2, #1
  4019a0:	e7f8      	b.n	401994 <twihs_set_speed+0x5c>
  4019a2:	0211      	lsls	r1, r2, #8
  4019a4:	041b      	lsls	r3, r3, #16
  4019a6:	b289      	uxth	r1, r1
  4019a8:	f403 23e0 	and.w	r3, r3, #458752	; 0x70000
  4019ac:	b2d2      	uxtb	r2, r2
  4019ae:	430b      	orrs	r3, r1
  4019b0:	431a      	orrs	r2, r3
  4019b2:	6102      	str	r2, [r0, #16]
  4019b4:	2000      	movs	r0, #0
  4019b6:	bd10      	pop	{r4, pc}
  4019b8:	2001      	movs	r0, #1
  4019ba:	bd10      	pop	{r4, pc}
  4019bc:	00061a80 	.word	0x00061a80
  4019c0:	3ffd1200 	.word	0x3ffd1200
  4019c4:	000bb800 	.word	0x000bb800

004019c8 <twihs_master_init>:
  4019c8:	f04f 32ff 	mov.w	r2, #4294967295
  4019cc:	b508      	push	{r3, lr}
  4019ce:	6282      	str	r2, [r0, #40]	; 0x28
  4019d0:	6a02      	ldr	r2, [r0, #32]
  4019d2:	2280      	movs	r2, #128	; 0x80
  4019d4:	4b07      	ldr	r3, [pc, #28]	; (4019f4 <twihs_master_init+0x2c>)
  4019d6:	6002      	str	r2, [r0, #0]
  4019d8:	6b02      	ldr	r2, [r0, #48]	; 0x30
  4019da:	2208      	movs	r2, #8
  4019dc:	6002      	str	r2, [r0, #0]
  4019de:	2220      	movs	r2, #32
  4019e0:	6002      	str	r2, [r0, #0]
  4019e2:	2204      	movs	r2, #4
  4019e4:	6002      	str	r2, [r0, #0]
  4019e6:	680a      	ldr	r2, [r1, #0]
  4019e8:	6849      	ldr	r1, [r1, #4]
  4019ea:	4798      	blx	r3
  4019ec:	1e43      	subs	r3, r0, #1
  4019ee:	4258      	negs	r0, r3
  4019f0:	4158      	adcs	r0, r3
  4019f2:	bd08      	pop	{r3, pc}
  4019f4:	00401939 	.word	0x00401939

004019f8 <twihs_master_read>:
  4019f8:	b570      	push	{r4, r5, r6, lr}
  4019fa:	68cc      	ldr	r4, [r1, #12]
  4019fc:	2c00      	cmp	r4, #0
  4019fe:	d03a      	beq.n	401a76 <twihs_master_read+0x7e>
  401a00:	2600      	movs	r6, #0
  401a02:	688d      	ldr	r5, [r1, #8]
  401a04:	6046      	str	r6, [r0, #4]
  401a06:	684b      	ldr	r3, [r1, #4]
  401a08:	021b      	lsls	r3, r3, #8
  401a0a:	f403 7340 	and.w	r3, r3, #768	; 0x300
  401a0e:	f443 5280 	orr.w	r2, r3, #4096	; 0x1000
  401a12:	7c0b      	ldrb	r3, [r1, #16]
  401a14:	041b      	lsls	r3, r3, #16
  401a16:	f403 03fe 	and.w	r3, r3, #8323072	; 0x7f0000
  401a1a:	4313      	orrs	r3, r2
  401a1c:	6043      	str	r3, [r0, #4]
  401a1e:	60c6      	str	r6, [r0, #12]
  401a20:	684a      	ldr	r2, [r1, #4]
  401a22:	b15a      	cbz	r2, 401a3c <twihs_master_read+0x44>
  401a24:	2a01      	cmp	r2, #1
  401a26:	780b      	ldrb	r3, [r1, #0]
  401a28:	dd09      	ble.n	401a3e <twihs_master_read+0x46>
  401a2a:	784e      	ldrb	r6, [r1, #1]
  401a2c:	2a02      	cmp	r2, #2
  401a2e:	ea46 2303 	orr.w	r3, r6, r3, lsl #8
  401a32:	d004      	beq.n	401a3e <twihs_master_read+0x46>
  401a34:	788a      	ldrb	r2, [r1, #2]
  401a36:	ea42 2303 	orr.w	r3, r2, r3, lsl #8
  401a3a:	e000      	b.n	401a3e <twihs_master_read+0x46>
  401a3c:	4613      	mov	r3, r2
  401a3e:	60c3      	str	r3, [r0, #12]
  401a40:	2102      	movs	r1, #2
  401a42:	2301      	movs	r3, #1
  401a44:	6003      	str	r3, [r0, #0]
  401a46:	f643 2399 	movw	r3, #15001	; 0x3a99
  401a4a:	b174      	cbz	r4, 401a6a <twihs_master_read+0x72>
  401a4c:	6a02      	ldr	r2, [r0, #32]
  401a4e:	05d6      	lsls	r6, r2, #23
  401a50:	d413      	bmi.n	401a7a <twihs_master_read+0x82>
  401a52:	3b01      	subs	r3, #1
  401a54:	d013      	beq.n	401a7e <twihs_master_read+0x86>
  401a56:	2c01      	cmp	r4, #1
  401a58:	d100      	bne.n	401a5c <twihs_master_read+0x64>
  401a5a:	6001      	str	r1, [r0, #0]
  401a5c:	0792      	lsls	r2, r2, #30
  401a5e:	d5f4      	bpl.n	401a4a <twihs_master_read+0x52>
  401a60:	6b03      	ldr	r3, [r0, #48]	; 0x30
  401a62:	3c01      	subs	r4, #1
  401a64:	f805 3b01 	strb.w	r3, [r5], #1
  401a68:	e7ed      	b.n	401a46 <twihs_master_read+0x4e>
  401a6a:	6a03      	ldr	r3, [r0, #32]
  401a6c:	07db      	lsls	r3, r3, #31
  401a6e:	d5fc      	bpl.n	401a6a <twihs_master_read+0x72>
  401a70:	6a03      	ldr	r3, [r0, #32]
  401a72:	2000      	movs	r0, #0
  401a74:	bd70      	pop	{r4, r5, r6, pc}
  401a76:	2001      	movs	r0, #1
  401a78:	bd70      	pop	{r4, r5, r6, pc}
  401a7a:	2005      	movs	r0, #5
  401a7c:	bd70      	pop	{r4, r5, r6, pc}
  401a7e:	2009      	movs	r0, #9
  401a80:	bd70      	pop	{r4, r5, r6, pc}

00401a82 <twihs_master_write>:
  401a82:	b570      	push	{r4, r5, r6, lr}
  401a84:	68cd      	ldr	r5, [r1, #12]
  401a86:	4602      	mov	r2, r0
  401a88:	2d00      	cmp	r5, #0
  401a8a:	d035      	beq.n	401af8 <twihs_master_write+0x76>
  401a8c:	2600      	movs	r6, #0
  401a8e:	688c      	ldr	r4, [r1, #8]
  401a90:	6046      	str	r6, [r0, #4]
  401a92:	7c0b      	ldrb	r3, [r1, #16]
  401a94:	041b      	lsls	r3, r3, #16
  401a96:	f403 00fe 	and.w	r0, r3, #8323072	; 0x7f0000
  401a9a:	684b      	ldr	r3, [r1, #4]
  401a9c:	021b      	lsls	r3, r3, #8
  401a9e:	f403 7340 	and.w	r3, r3, #768	; 0x300
  401aa2:	4303      	orrs	r3, r0
  401aa4:	6053      	str	r3, [r2, #4]
  401aa6:	60d6      	str	r6, [r2, #12]
  401aa8:	6848      	ldr	r0, [r1, #4]
  401aaa:	b158      	cbz	r0, 401ac4 <twihs_master_write+0x42>
  401aac:	2801      	cmp	r0, #1
  401aae:	780b      	ldrb	r3, [r1, #0]
  401ab0:	dd09      	ble.n	401ac6 <twihs_master_write+0x44>
  401ab2:	784e      	ldrb	r6, [r1, #1]
  401ab4:	2802      	cmp	r0, #2
  401ab6:	ea46 2303 	orr.w	r3, r6, r3, lsl #8
  401aba:	d004      	beq.n	401ac6 <twihs_master_write+0x44>
  401abc:	7889      	ldrb	r1, [r1, #2]
  401abe:	ea41 2303 	orr.w	r3, r1, r3, lsl #8
  401ac2:	e000      	b.n	401ac6 <twihs_master_write+0x44>
  401ac4:	4603      	mov	r3, r0
  401ac6:	4425      	add	r5, r4
  401ac8:	60d3      	str	r3, [r2, #12]
  401aca:	42a5      	cmp	r5, r4
  401acc:	d008      	beq.n	401ae0 <twihs_master_write+0x5e>
  401ace:	6a13      	ldr	r3, [r2, #32]
  401ad0:	05de      	lsls	r6, r3, #23
  401ad2:	d413      	bmi.n	401afc <twihs_master_write+0x7a>
  401ad4:	0758      	lsls	r0, r3, #29
  401ad6:	d5f8      	bpl.n	401aca <twihs_master_write+0x48>
  401ad8:	f814 3b01 	ldrb.w	r3, [r4], #1
  401adc:	6353      	str	r3, [r2, #52]	; 0x34
  401ade:	e7f4      	b.n	401aca <twihs_master_write+0x48>
  401ae0:	6a13      	ldr	r3, [r2, #32]
  401ae2:	f413 7080 	ands.w	r0, r3, #256	; 0x100
  401ae6:	d109      	bne.n	401afc <twihs_master_write+0x7a>
  401ae8:	0759      	lsls	r1, r3, #29
  401aea:	d5f9      	bpl.n	401ae0 <twihs_master_write+0x5e>
  401aec:	2302      	movs	r3, #2
  401aee:	6013      	str	r3, [r2, #0]
  401af0:	6a13      	ldr	r3, [r2, #32]
  401af2:	07db      	lsls	r3, r3, #31
  401af4:	d5fc      	bpl.n	401af0 <twihs_master_write+0x6e>
  401af6:	bd70      	pop	{r4, r5, r6, pc}
  401af8:	2001      	movs	r0, #1
  401afa:	bd70      	pop	{r4, r5, r6, pc}
  401afc:	2005      	movs	r0, #5
  401afe:	bd70      	pop	{r4, r5, r6, pc}

00401b00 <wdt_restart>:
  401b00:	4b02      	ldr	r3, [pc, #8]	; (401b0c <wdt_restart+0xc>)
  401b02:	4298      	cmp	r0, r3
  401b04:	d101      	bne.n	401b0a <wdt_restart+0xa>
  401b06:	4b02      	ldr	r3, [pc, #8]	; (401b10 <wdt_restart+0x10>)
  401b08:	6003      	str	r3, [r0, #0]
  401b0a:	4770      	bx	lr
  401b0c:	400e1850 	.word	0x400e1850
  401b10:	a5000001 	.word	0xa5000001

00401b14 <ioport_set_pin_mode>:
  401b14:	f000 021f 	and.w	r2, r0, #31
  401b18:	0940      	lsrs	r0, r0, #5
  401b1a:	2301      	movs	r3, #1
  401b1c:	f500 1000 	add.w	r0, r0, #2097152	; 0x200000
  401b20:	4093      	lsls	r3, r2
  401b22:	070a      	lsls	r2, r1, #28
  401b24:	f200 7007 	addw	r0, r0, #1799	; 0x707
  401b28:	ea4f 2040 	mov.w	r0, r0, lsl #9
  401b2c:	d501      	bpl.n	401b32 <ioport_set_pin_mode+0x1e>
  401b2e:	6643      	str	r3, [r0, #100]	; 0x64
  401b30:	e000      	b.n	401b34 <ioport_set_pin_mode+0x20>
  401b32:	6603      	str	r3, [r0, #96]	; 0x60
  401b34:	06ca      	lsls	r2, r1, #27
  401b36:	d502      	bpl.n	401b3e <ioport_set_pin_mode+0x2a>
  401b38:	f8c0 3094 	str.w	r3, [r0, #148]	; 0x94
  401b3c:	e001      	b.n	401b42 <ioport_set_pin_mode+0x2e>
  401b3e:	f8c0 3090 	str.w	r3, [r0, #144]	; 0x90
  401b42:	068a      	lsls	r2, r1, #26
  401b44:	d501      	bpl.n	401b4a <ioport_set_pin_mode+0x36>
  401b46:	6503      	str	r3, [r0, #80]	; 0x50
  401b48:	e000      	b.n	401b4c <ioport_set_pin_mode+0x38>
  401b4a:	6543      	str	r3, [r0, #84]	; 0x54
  401b4c:	f011 0fc0 	tst.w	r1, #192	; 0xc0
  401b50:	d001      	beq.n	401b56 <ioport_set_pin_mode+0x42>
  401b52:	6203      	str	r3, [r0, #32]
  401b54:	e000      	b.n	401b58 <ioport_set_pin_mode+0x44>
  401b56:	6243      	str	r3, [r0, #36]	; 0x24
  401b58:	060a      	lsls	r2, r1, #24
  401b5a:	d502      	bpl.n	401b62 <ioport_set_pin_mode+0x4e>
  401b5c:	f8c0 3084 	str.w	r3, [r0, #132]	; 0x84
  401b60:	e001      	b.n	401b66 <ioport_set_pin_mode+0x52>
  401b62:	f8c0 3080 	str.w	r3, [r0, #128]	; 0x80
  401b66:	6f02      	ldr	r2, [r0, #112]	; 0x70
  401b68:	f011 0f01 	tst.w	r1, #1
  401b6c:	bf14      	ite	ne
  401b6e:	431a      	orrne	r2, r3
  401b70:	439a      	biceq	r2, r3
  401b72:	0789      	lsls	r1, r1, #30
  401b74:	6702      	str	r2, [r0, #112]	; 0x70
  401b76:	6f42      	ldr	r2, [r0, #116]	; 0x74
  401b78:	bf4c      	ite	mi
  401b7a:	4313      	orrmi	r3, r2
  401b7c:	ea22 0303 	bicpl.w	r3, r2, r3
  401b80:	6743      	str	r3, [r0, #116]	; 0x74
  401b82:	4770      	bx	lr

00401b84 <tinkerPwmInit>:
  401b84:	b51f      	push	{r0, r1, r2, r3, r4, lr}
  401b86:	3801      	subs	r0, #1
  401b88:	2803      	cmp	r0, #3
  401b8a:	d854      	bhi.n	401c36 <tinkerPwmInit+0xb2>
  401b8c:	e8df f000 	tbb	[pc, r0]
  401b90:	281a0d02 	.word	0x281a0d02
  401b94:	4b29      	ldr	r3, [pc, #164]	; (401c3c <tinkerPwmInit+0xb8>)
  401b96:	220b      	movs	r2, #11
  401b98:	2400      	movs	r4, #0
  401b9a:	605a      	str	r2, [r3, #4]
  401b9c:	75dc      	strb	r4, [r3, #23]
  401b9e:	4621      	mov	r1, r4
  401ba0:	4620      	mov	r0, r4
  401ba2:	4b27      	ldr	r3, [pc, #156]	; (401c40 <tinkerPwmInit+0xbc>)
  401ba4:	4798      	blx	r3
  401ba6:	2201      	movs	r2, #1
  401ba8:	e009      	b.n	401bbe <tinkerPwmInit+0x3a>
  401baa:	4b24      	ldr	r3, [pc, #144]	; (401c3c <tinkerPwmInit+0xb8>)
  401bac:	220b      	movs	r2, #11
  401bae:	2401      	movs	r4, #1
  401bb0:	2100      	movs	r1, #0
  401bb2:	605a      	str	r2, [r3, #4]
  401bb4:	2002      	movs	r0, #2
  401bb6:	75dc      	strb	r4, [r3, #23]
  401bb8:	4b21      	ldr	r3, [pc, #132]	; (401c40 <tinkerPwmInit+0xbc>)
  401bba:	4798      	blx	r3
  401bbc:	2204      	movs	r2, #4
  401bbe:	4b21      	ldr	r3, [pc, #132]	; (401c44 <tinkerPwmInit+0xc0>)
  401bc0:	605a      	str	r2, [r3, #4]
  401bc2:	e019      	b.n	401bf8 <tinkerPwmInit+0x74>
  401bc4:	4b1d      	ldr	r3, [pc, #116]	; (401c3c <tinkerPwmInit+0xb8>)
  401bc6:	220c      	movs	r2, #12
  401bc8:	2101      	movs	r1, #1
  401bca:	200d      	movs	r0, #13
  401bcc:	605a      	str	r2, [r3, #4]
  401bce:	2402      	movs	r4, #2
  401bd0:	75d9      	strb	r1, [r3, #23]
  401bd2:	4b1b      	ldr	r3, [pc, #108]	; (401c40 <tinkerPwmInit+0xbc>)
  401bd4:	4798      	blx	r3
  401bd6:	f44f 5200 	mov.w	r2, #8192	; 0x2000
  401bda:	4b1a      	ldr	r3, [pc, #104]	; (401c44 <tinkerPwmInit+0xc0>)
  401bdc:	605a      	str	r2, [r3, #4]
  401bde:	e00b      	b.n	401bf8 <tinkerPwmInit+0x74>
  401be0:	4b16      	ldr	r3, [pc, #88]	; (401c3c <tinkerPwmInit+0xb8>)
  401be2:	220c      	movs	r2, #12
  401be4:	2101      	movs	r1, #1
  401be6:	2007      	movs	r0, #7
  401be8:	605a      	str	r2, [r3, #4]
  401bea:	2403      	movs	r4, #3
  401bec:	75d9      	strb	r1, [r3, #23]
  401bee:	4b14      	ldr	r3, [pc, #80]	; (401c40 <tinkerPwmInit+0xbc>)
  401bf0:	4798      	blx	r3
  401bf2:	2280      	movs	r2, #128	; 0x80
  401bf4:	4b13      	ldr	r3, [pc, #76]	; (401c44 <tinkerPwmInit+0xc0>)
  401bf6:	605a      	str	r2, [r3, #4]
  401bf8:	4b13      	ldr	r3, [pc, #76]	; (401c48 <tinkerPwmInit+0xc4>)
  401bfa:	201f      	movs	r0, #31
  401bfc:	4798      	blx	r3
  401bfe:	4621      	mov	r1, r4
  401c00:	4812      	ldr	r0, [pc, #72]	; (401c4c <tinkerPwmInit+0xc8>)
  401c02:	4b13      	ldr	r3, [pc, #76]	; (401c50 <tinkerPwmInit+0xcc>)
  401c04:	4798      	blx	r3
  401c06:	4b13      	ldr	r3, [pc, #76]	; (401c54 <tinkerPwmInit+0xd0>)
  401c08:	a901      	add	r1, sp, #4
  401c0a:	4810      	ldr	r0, [pc, #64]	; (401c4c <tinkerPwmInit+0xc8>)
  401c0c:	9301      	str	r3, [sp, #4]
  401c0e:	9302      	str	r3, [sp, #8]
  401c10:	4b11      	ldr	r3, [pc, #68]	; (401c58 <tinkerPwmInit+0xd4>)
  401c12:	9303      	str	r3, [sp, #12]
  401c14:	4b11      	ldr	r3, [pc, #68]	; (401c5c <tinkerPwmInit+0xd8>)
  401c16:	4798      	blx	r3
  401c18:	4908      	ldr	r1, [pc, #32]	; (401c3c <tinkerPwmInit+0xb8>)
  401c1a:	f44f 737a 	mov.w	r3, #1000	; 0x3e8
  401c1e:	480b      	ldr	r0, [pc, #44]	; (401c4c <tinkerPwmInit+0xc8>)
  401c20:	600c      	str	r4, [r1, #0]
  401c22:	610b      	str	r3, [r1, #16]
  401c24:	2300      	movs	r3, #0
  401c26:	60cb      	str	r3, [r1, #12]
  401c28:	810b      	strh	r3, [r1, #8]
  401c2a:	4b0d      	ldr	r3, [pc, #52]	; (401c60 <tinkerPwmInit+0xdc>)
  401c2c:	4798      	blx	r3
  401c2e:	4621      	mov	r1, r4
  401c30:	4806      	ldr	r0, [pc, #24]	; (401c4c <tinkerPwmInit+0xc8>)
  401c32:	4b0c      	ldr	r3, [pc, #48]	; (401c64 <tinkerPwmInit+0xe0>)
  401c34:	4798      	blx	r3
  401c36:	b004      	add	sp, #16
  401c38:	bd10      	pop	{r4, pc}
  401c3a:	bf00      	nop
  401c3c:	20400c14 	.word	0x20400c14
  401c40:	00401b15 	.word	0x00401b15
  401c44:	400e0e00 	.word	0x400e0e00
  401c48:	00402211 	.word	0x00402211
  401c4c:	40020000 	.word	0x40020000
  401c50:	00402437 	.word	0x00402437
  401c54:	00061a80 	.word	0x00061a80
  401c58:	11e1a300 	.word	0x11e1a300
  401c5c:	0040229d 	.word	0x0040229d
  401c60:	004022dd 	.word	0x004022dd
  401c64:	0040242d 	.word	0x0040242d

00401c68 <tinkerPwmWrite>:
  401c68:	3801      	subs	r0, #1
  401c6a:	b570      	push	{r4, r5, r6, lr}
  401c6c:	460d      	mov	r5, r1
  401c6e:	2803      	cmp	r0, #3
  401c70:	d81a      	bhi.n	401ca8 <tinkerPwmWrite+0x40>
  401c72:	e8df f000 	tbb	[pc, r0]
  401c76:	0208      	.short	0x0208
  401c78:	0604      	.short	0x0604
  401c7a:	2401      	movs	r4, #1
  401c7c:	e004      	b.n	401c88 <tinkerPwmWrite+0x20>
  401c7e:	2402      	movs	r4, #2
  401c80:	e002      	b.n	401c88 <tinkerPwmWrite+0x20>
  401c82:	2403      	movs	r4, #3
  401c84:	e000      	b.n	401c88 <tinkerPwmWrite+0x20>
  401c86:	2400      	movs	r4, #0
  401c88:	4621      	mov	r1, r4
  401c8a:	4808      	ldr	r0, [pc, #32]	; (401cac <tinkerPwmWrite+0x44>)
  401c8c:	4b08      	ldr	r3, [pc, #32]	; (401cb0 <tinkerPwmWrite+0x48>)
  401c8e:	4798      	blx	r3
  401c90:	4908      	ldr	r1, [pc, #32]	; (401cb4 <tinkerPwmWrite+0x4c>)
  401c92:	4b09      	ldr	r3, [pc, #36]	; (401cb8 <tinkerPwmWrite+0x50>)
  401c94:	4805      	ldr	r0, [pc, #20]	; (401cac <tinkerPwmWrite+0x44>)
  401c96:	60cd      	str	r5, [r1, #12]
  401c98:	600c      	str	r4, [r1, #0]
  401c9a:	4798      	blx	r3
  401c9c:	4621      	mov	r1, r4
  401c9e:	4803      	ldr	r0, [pc, #12]	; (401cac <tinkerPwmWrite+0x44>)
  401ca0:	4b06      	ldr	r3, [pc, #24]	; (401cbc <tinkerPwmWrite+0x54>)
  401ca2:	e8bd 4070 	ldmia.w	sp!, {r4, r5, r6, lr}
  401ca6:	4718      	bx	r3
  401ca8:	bd70      	pop	{r4, r5, r6, pc}
  401caa:	bf00      	nop
  401cac:	40020000 	.word	0x40020000
  401cb0:	00402437 	.word	0x00402437
  401cb4:	20400c14 	.word	0x20400c14
  401cb8:	004022dd 	.word	0x004022dd
  401cbc:	0040242d 	.word	0x0040242d

00401cc0 <tinkerUartInit>:
  401cc0:	b51f      	push	{r0, r1, r2, r3, r4, lr}
  401cc2:	4b0f      	ldr	r3, [pc, #60]	; (401d00 <tinkerUartInit+0x40>)
  401cc4:	9301      	str	r3, [sp, #4]
  401cc6:	f44f 33e1 	mov.w	r3, #115200	; 0x1c200
  401cca:	9302      	str	r3, [sp, #8]
  401ccc:	f44f 6300 	mov.w	r3, #2048	; 0x800
  401cd0:	9303      	str	r3, [sp, #12]
  401cd2:	b998      	cbnz	r0, 401cfc <tinkerUartInit+0x3c>
  401cd4:	4b0b      	ldr	r3, [pc, #44]	; (401d04 <tinkerUartInit+0x44>)
  401cd6:	2007      	movs	r0, #7
  401cd8:	4798      	blx	r3
  401cda:	4c0b      	ldr	r4, [pc, #44]	; (401d08 <tinkerUartInit+0x48>)
  401cdc:	f44f 6280 	mov.w	r2, #1024	; 0x400
  401ce0:	f04f 6100 	mov.w	r1, #134217728	; 0x8000000
  401ce4:	4809      	ldr	r0, [pc, #36]	; (401d0c <tinkerUartInit+0x4c>)
  401ce6:	47a0      	blx	r4
  401ce8:	f04f 6100 	mov.w	r1, #134217728	; 0x8000000
  401cec:	4807      	ldr	r0, [pc, #28]	; (401d0c <tinkerUartInit+0x4c>)
  401cee:	f44f 7200 	mov.w	r2, #512	; 0x200
  401cf2:	47a0      	blx	r4
  401cf4:	a901      	add	r1, sp, #4
  401cf6:	4806      	ldr	r0, [pc, #24]	; (401d10 <tinkerUartInit+0x50>)
  401cf8:	4b06      	ldr	r3, [pc, #24]	; (401d14 <tinkerUartInit+0x54>)
  401cfa:	4798      	blx	r3
  401cfc:	b004      	add	sp, #16
  401cfe:	bd10      	pop	{r4, pc}
  401d00:	08f0d180 	.word	0x08f0d180
  401d04:	00402211 	.word	0x00402211
  401d08:	00401f95 	.word	0x00401f95
  401d0c:	400e0e00 	.word	0x400e0e00
  401d10:	400e0800 	.word	0x400e0800
  401d14:	00402441 	.word	0x00402441

00401d18 <tinkerUartPutChar>:
  401d18:	b538      	push	{r3, r4, r5, lr}
  401d1a:	460c      	mov	r4, r1
  401d1c:	2803      	cmp	r0, #3
  401d1e:	d81e      	bhi.n	401d5e <tinkerUartPutChar+0x46>
  401d20:	e8df f000 	tbb	[pc, r0]
  401d24:	17100902 	.word	0x17100902
  401d28:	4d0d      	ldr	r5, [pc, #52]	; (401d60 <tinkerUartPutChar+0x48>)
  401d2a:	4621      	mov	r1, r4
  401d2c:	480d      	ldr	r0, [pc, #52]	; (401d64 <tinkerUartPutChar+0x4c>)
  401d2e:	47a8      	blx	r5
  401d30:	2800      	cmp	r0, #0
  401d32:	d1fa      	bne.n	401d2a <tinkerUartPutChar+0x12>
  401d34:	bd38      	pop	{r3, r4, r5, pc}
  401d36:	4d0a      	ldr	r5, [pc, #40]	; (401d60 <tinkerUartPutChar+0x48>)
  401d38:	4621      	mov	r1, r4
  401d3a:	480b      	ldr	r0, [pc, #44]	; (401d68 <tinkerUartPutChar+0x50>)
  401d3c:	47a8      	blx	r5
  401d3e:	2800      	cmp	r0, #0
  401d40:	d1fa      	bne.n	401d38 <tinkerUartPutChar+0x20>
  401d42:	bd38      	pop	{r3, r4, r5, pc}
  401d44:	4d06      	ldr	r5, [pc, #24]	; (401d60 <tinkerUartPutChar+0x48>)
  401d46:	4621      	mov	r1, r4
  401d48:	4808      	ldr	r0, [pc, #32]	; (401d6c <tinkerUartPutChar+0x54>)
  401d4a:	47a8      	blx	r5
  401d4c:	2800      	cmp	r0, #0
  401d4e:	d1fa      	bne.n	401d46 <tinkerUartPutChar+0x2e>
  401d50:	bd38      	pop	{r3, r4, r5, pc}
  401d52:	4d03      	ldr	r5, [pc, #12]	; (401d60 <tinkerUartPutChar+0x48>)
  401d54:	4621      	mov	r1, r4
  401d56:	4806      	ldr	r0, [pc, #24]	; (401d70 <tinkerUartPutChar+0x58>)
  401d58:	47a8      	blx	r5
  401d5a:	2800      	cmp	r0, #0
  401d5c:	d1fa      	bne.n	401d54 <tinkerUartPutChar+0x3c>
  401d5e:	bd38      	pop	{r3, r4, r5, pc}
  401d60:	00402471 	.word	0x00402471
  401d64:	400e0800 	.word	0x400e0800
  401d68:	400e0a00 	.word	0x400e0a00
  401d6c:	400e1a00 	.word	0x400e1a00
  401d70:	400e1c00 	.word	0x400e1c00

00401d74 <tinkerUartPutBuffer>:
  401d74:	b5f8      	push	{r3, r4, r5, r6, r7, lr}
  401d76:	4606      	mov	r6, r0
  401d78:	460c      	mov	r4, r1
  401d7a:	188d      	adds	r5, r1, r2
  401d7c:	4f04      	ldr	r7, [pc, #16]	; (401d90 <tinkerUartPutBuffer+0x1c>)
  401d7e:	42ac      	cmp	r4, r5
  401d80:	d004      	beq.n	401d8c <tinkerUartPutBuffer+0x18>
  401d82:	f814 1b01 	ldrb.w	r1, [r4], #1
  401d86:	4630      	mov	r0, r6
  401d88:	47b8      	blx	r7
  401d8a:	e7f8      	b.n	401d7e <tinkerUartPutBuffer+0xa>
  401d8c:	bdf8      	pop	{r3, r4, r5, r6, r7, pc}
  401d8e:	bf00      	nop
  401d90:	00401d19 	.word	0x00401d19

00401d94 <tinkerUartPutString>:
  401d94:	b570      	push	{r4, r5, r6, lr}
  401d96:	4605      	mov	r5, r0
  401d98:	460c      	mov	r4, r1
  401d9a:	b149      	cbz	r1, 401db0 <tinkerUartPutString+0x1c>
  401d9c:	4608      	mov	r0, r1
  401d9e:	4b05      	ldr	r3, [pc, #20]	; (401db4 <tinkerUartPutString+0x20>)
  401da0:	4798      	blx	r3
  401da2:	4621      	mov	r1, r4
  401da4:	4602      	mov	r2, r0
  401da6:	4b04      	ldr	r3, [pc, #16]	; (401db8 <tinkerUartPutString+0x24>)
  401da8:	4628      	mov	r0, r5
  401daa:	e8bd 4070 	ldmia.w	sp!, {r4, r5, r6, lr}
  401dae:	4718      	bx	r3
  401db0:	bd70      	pop	{r4, r5, r6, pc}
  401db2:	bf00      	nop
  401db4:	00403941 	.word	0x00403941
  401db8:	00401d75 	.word	0x00401d75

00401dbc <tinkerInitI2C>:
  401dbc:	b530      	push	{r4, r5, lr}
  401dbe:	f04f 6100 	mov.w	r1, #134217728	; 0x8000000
  401dc2:	b085      	sub	sp, #20
  401dc4:	4604      	mov	r4, r0
  401dc6:	4d15      	ldr	r5, [pc, #84]	; (401e1c <tinkerInitI2C+0x60>)
  401dc8:	2024      	movs	r0, #36	; 0x24
  401dca:	47a8      	blx	r5
  401dcc:	f04f 6100 	mov.w	r1, #134217728	; 0x8000000
  401dd0:	2025      	movs	r0, #37	; 0x25
  401dd2:	47a8      	blx	r5
  401dd4:	4d12      	ldr	r5, [pc, #72]	; (401e20 <tinkerInitI2C+0x64>)
  401dd6:	2014      	movs	r0, #20
  401dd8:	47a8      	blx	r5
  401dda:	4a12      	ldr	r2, [pc, #72]	; (401e24 <tinkerInitI2C+0x68>)
  401ddc:	2014      	movs	r0, #20
  401dde:	f8d2 3114 	ldr.w	r3, [r2, #276]	; 0x114
  401de2:	f043 0330 	orr.w	r3, r3, #48	; 0x30
  401de6:	f8c2 3114 	str.w	r3, [r2, #276]	; 0x114
  401dea:	2300      	movs	r3, #0
  401dec:	4a0e      	ldr	r2, [pc, #56]	; (401e28 <tinkerInitI2C+0x6c>)
  401dee:	9303      	str	r3, [sp, #12]
  401df0:	4b0e      	ldr	r3, [pc, #56]	; (401e2c <tinkerInitI2C+0x70>)
  401df2:	7414      	strb	r4, [r2, #16]
  401df4:	9302      	str	r3, [sp, #8]
  401df6:	2301      	movs	r3, #1
  401df8:	f88d 400c 	strb.w	r4, [sp, #12]
  401dfc:	6053      	str	r3, [r2, #4]
  401dfe:	60d3      	str	r3, [r2, #12]
  401e00:	4a0b      	ldr	r2, [pc, #44]	; (401e30 <tinkerInitI2C+0x74>)
  401e02:	6053      	str	r3, [r2, #4]
  401e04:	60d3      	str	r3, [r2, #12]
  401e06:	4b0b      	ldr	r3, [pc, #44]	; (401e34 <tinkerInitI2C+0x78>)
  401e08:	7414      	strb	r4, [r2, #16]
  401e0a:	9301      	str	r3, [sp, #4]
  401e0c:	47a8      	blx	r5
  401e0e:	a901      	add	r1, sp, #4
  401e10:	4b09      	ldr	r3, [pc, #36]	; (401e38 <tinkerInitI2C+0x7c>)
  401e12:	480a      	ldr	r0, [pc, #40]	; (401e3c <tinkerInitI2C+0x80>)
  401e14:	4798      	blx	r3
  401e16:	b005      	add	sp, #20
  401e18:	bd30      	pop	{r4, r5, pc}
  401e1a:	bf00      	nop
  401e1c:	0040206d 	.word	0x0040206d
  401e20:	00402211 	.word	0x00402211
  401e24:	40088000 	.word	0x40088000
  401e28:	20400c50 	.word	0x20400c50
  401e2c:	00061a80 	.word	0x00061a80
  401e30:	20400c00 	.word	0x20400c00
  401e34:	08f0d180 	.word	0x08f0d180
  401e38:	004019c9 	.word	0x004019c9
  401e3c:	4001c000 	.word	0x4001c000

00401e40 <tinkerReadI2C>:
  401e40:	b507      	push	{r0, r1, r2, lr}
  401e42:	2300      	movs	r3, #0
  401e44:	aa02      	add	r2, sp, #8
  401e46:	f802 3d01 	strb.w	r3, [r2, #-1]!
  401e4a:	4b06      	ldr	r3, [pc, #24]	; (401e64 <tinkerReadI2C+0x24>)
  401e4c:	7019      	strb	r1, [r3, #0]
  401e4e:	4619      	mov	r1, r3
  401e50:	7418      	strb	r0, [r3, #16]
  401e52:	609a      	str	r2, [r3, #8]
  401e54:	4804      	ldr	r0, [pc, #16]	; (401e68 <tinkerReadI2C+0x28>)
  401e56:	4b05      	ldr	r3, [pc, #20]	; (401e6c <tinkerReadI2C+0x2c>)
  401e58:	4798      	blx	r3
  401e5a:	f89d 0007 	ldrb.w	r0, [sp, #7]
  401e5e:	b003      	add	sp, #12
  401e60:	f85d fb04 	ldr.w	pc, [sp], #4
  401e64:	20400c50 	.word	0x20400c50
  401e68:	4001c000 	.word	0x4001c000
  401e6c:	004019f9 	.word	0x004019f9

00401e70 <tinkerWriteI2C>:
  401e70:	b513      	push	{r0, r1, r4, lr}
  401e72:	4b06      	ldr	r3, [pc, #24]	; (401e8c <tinkerWriteI2C+0x1c>)
  401e74:	ac02      	add	r4, sp, #8
  401e76:	7019      	strb	r1, [r3, #0]
  401e78:	4619      	mov	r1, r3
  401e7a:	f804 2d01 	strb.w	r2, [r4, #-1]!
  401e7e:	7418      	strb	r0, [r3, #16]
  401e80:	609c      	str	r4, [r3, #8]
  401e82:	4b03      	ldr	r3, [pc, #12]	; (401e90 <tinkerWriteI2C+0x20>)
  401e84:	4803      	ldr	r0, [pc, #12]	; (401e94 <tinkerWriteI2C+0x24>)
  401e86:	4798      	blx	r3
  401e88:	b002      	add	sp, #8
  401e8a:	bd10      	pop	{r4, pc}
  401e8c:	20400c00 	.word	0x20400c00
  401e90:	00401a83 	.word	0x00401a83
  401e94:	4001c000 	.word	0x4001c000

00401e98 <sysclk_init>:
  401e98:	b570      	push	{r4, r5, r6, lr}
  401e9a:	4810      	ldr	r0, [pc, #64]	; (401edc <sysclk_init+0x44>)
  401e9c:	4c10      	ldr	r4, [pc, #64]	; (401ee0 <sysclk_init+0x48>)
  401e9e:	4d11      	ldr	r5, [pc, #68]	; (401ee4 <sysclk_init+0x4c>)
  401ea0:	47a0      	blx	r4
  401ea2:	213e      	movs	r1, #62	; 0x3e
  401ea4:	2000      	movs	r0, #0
  401ea6:	4b10      	ldr	r3, [pc, #64]	; (401ee8 <sysclk_init+0x50>)
  401ea8:	4798      	blx	r3
  401eaa:	47a8      	blx	r5
  401eac:	2800      	cmp	r0, #0
  401eae:	d0fc      	beq.n	401eaa <sysclk_init+0x12>
  401eb0:	4b0e      	ldr	r3, [pc, #56]	; (401eec <sysclk_init+0x54>)
  401eb2:	4798      	blx	r3
  401eb4:	4d0e      	ldr	r5, [pc, #56]	; (401ef0 <sysclk_init+0x58>)
  401eb6:	4a0f      	ldr	r2, [pc, #60]	; (401ef4 <sysclk_init+0x5c>)
  401eb8:	4b0f      	ldr	r3, [pc, #60]	; (401ef8 <sysclk_init+0x60>)
  401eba:	629a      	str	r2, [r3, #40]	; 0x28
  401ebc:	47a8      	blx	r5
  401ebe:	2800      	cmp	r0, #0
  401ec0:	d0fc      	beq.n	401ebc <sysclk_init+0x24>
  401ec2:	2002      	movs	r0, #2
  401ec4:	4b0d      	ldr	r3, [pc, #52]	; (401efc <sysclk_init+0x64>)
  401ec6:	4798      	blx	r3
  401ec8:	4b0d      	ldr	r3, [pc, #52]	; (401f00 <sysclk_init+0x68>)
  401eca:	2000      	movs	r0, #0
  401ecc:	4798      	blx	r3
  401ece:	4b0d      	ldr	r3, [pc, #52]	; (401f04 <sysclk_init+0x6c>)
  401ed0:	4798      	blx	r3
  401ed2:	4623      	mov	r3, r4
  401ed4:	4801      	ldr	r0, [pc, #4]	; (401edc <sysclk_init+0x44>)
  401ed6:	e8bd 4070 	ldmia.w	sp!, {r4, r5, r6, lr}
  401eda:	4718      	bx	r3
  401edc:	11e1a300 	.word	0x11e1a300
  401ee0:	00402561 	.word	0x00402561
  401ee4:	004021e1 	.word	0x004021e1
  401ee8:	00402191 	.word	0x00402191
  401eec:	004021f1 	.word	0x004021f1
  401ef0:	00402201 	.word	0x00402201
  401ef4:	20183f01 	.word	0x20183f01
  401ef8:	400e0600 	.word	0x400e0600
  401efc:	00402121 	.word	0x00402121
  401f00:	0040214d 	.word	0x0040214d
  401f04:	00402495 	.word	0x00402495

00401f08 <pio_handler_process>:
  401f08:	b5f8      	push	{r3, r4, r5, r6, r7, lr}
  401f0a:	4604      	mov	r4, r0
  401f0c:	4b12      	ldr	r3, [pc, #72]	; (401f58 <pio_handler_process+0x50>)
  401f0e:	460f      	mov	r7, r1
  401f10:	4798      	blx	r3
  401f12:	4605      	mov	r5, r0
  401f14:	4b11      	ldr	r3, [pc, #68]	; (401f5c <pio_handler_process+0x54>)
  401f16:	4620      	mov	r0, r4
  401f18:	4798      	blx	r3
  401f1a:	4005      	ands	r5, r0
  401f1c:	d01a      	beq.n	401f54 <pio_handler_process+0x4c>
  401f1e:	4c10      	ldr	r4, [pc, #64]	; (401f60 <pio_handler_process+0x58>)
  401f20:	f104 0660 	add.w	r6, r4, #96	; 0x60
  401f24:	f854 3c0c 	ldr.w	r3, [r4, #-12]
  401f28:	42bb      	cmp	r3, r7
  401f2a:	d10f      	bne.n	401f4c <pio_handler_process+0x44>
  401f2c:	f854 1c08 	ldr.w	r1, [r4, #-8]
  401f30:	4229      	tst	r1, r5
  401f32:	d00b      	beq.n	401f4c <pio_handler_process+0x44>
  401f34:	6823      	ldr	r3, [r4, #0]
  401f36:	4638      	mov	r0, r7
  401f38:	4798      	blx	r3
  401f3a:	f854 3c08 	ldr.w	r3, [r4, #-8]
  401f3e:	42a6      	cmp	r6, r4
  401f40:	ea25 0503 	bic.w	r5, r5, r3
  401f44:	d006      	beq.n	401f54 <pio_handler_process+0x4c>
  401f46:	3410      	adds	r4, #16
  401f48:	b125      	cbz	r5, 401f54 <pio_handler_process+0x4c>
  401f4a:	e7eb      	b.n	401f24 <pio_handler_process+0x1c>
  401f4c:	42a6      	cmp	r6, r4
  401f4e:	d001      	beq.n	401f54 <pio_handler_process+0x4c>
  401f50:	3410      	adds	r4, #16
  401f52:	e7e7      	b.n	401f24 <pio_handler_process+0x1c>
  401f54:	bdf8      	pop	{r3, r4, r5, r6, r7, pc}
  401f56:	bf00      	nop
  401f58:	00402065 	.word	0x00402065
  401f5c:	00402069 	.word	0x00402069
  401f60:	20400c70 	.word	0x20400c70

00401f64 <PIOA_Handler>:
  401f64:	210a      	movs	r1, #10
  401f66:	4801      	ldr	r0, [pc, #4]	; (401f6c <PIOA_Handler+0x8>)
  401f68:	4b01      	ldr	r3, [pc, #4]	; (401f70 <PIOA_Handler+0xc>)
  401f6a:	4718      	bx	r3
  401f6c:	400e0e00 	.word	0x400e0e00
  401f70:	00401f09 	.word	0x00401f09

00401f74 <PIOB_Handler>:
  401f74:	210b      	movs	r1, #11
  401f76:	4801      	ldr	r0, [pc, #4]	; (401f7c <PIOB_Handler+0x8>)
  401f78:	4b01      	ldr	r3, [pc, #4]	; (401f80 <PIOB_Handler+0xc>)
  401f7a:	4718      	bx	r3
  401f7c:	400e1000 	.word	0x400e1000
  401f80:	00401f09 	.word	0x00401f09

00401f84 <PIOD_Handler>:
  401f84:	2110      	movs	r1, #16
  401f86:	4801      	ldr	r0, [pc, #4]	; (401f8c <PIOD_Handler+0x8>)
  401f88:	4b01      	ldr	r3, [pc, #4]	; (401f90 <PIOD_Handler+0xc>)
  401f8a:	4718      	bx	r3
  401f8c:	400e1400 	.word	0x400e1400
  401f90:	00401f09 	.word	0x00401f09

00401f94 <pio_set_peripheral>:
  401f94:	f1b1 5fc0 	cmp.w	r1, #402653184	; 0x18000000
  401f98:	6442      	str	r2, [r0, #68]	; 0x44
  401f9a:	b510      	push	{r4, lr}
  401f9c:	d02d      	beq.n	401ffa <pio_set_peripheral+0x66>
  401f9e:	d807      	bhi.n	401fb0 <pio_set_peripheral+0x1c>
  401fa0:	f1b1 6f00 	cmp.w	r1, #134217728	; 0x8000000
  401fa4:	d015      	beq.n	401fd2 <pio_set_peripheral+0x3e>
  401fa6:	f1b1 5f80 	cmp.w	r1, #268435456	; 0x10000000
  401faa:	d01d      	beq.n	401fe8 <pio_set_peripheral+0x54>
  401fac:	bb71      	cbnz	r1, 40200c <pio_set_peripheral+0x78>
  401fae:	bd10      	pop	{r4, pc}
  401fb0:	f1b1 5f20 	cmp.w	r1, #671088640	; 0x28000000
  401fb4:	d02b      	beq.n	40200e <pio_set_peripheral+0x7a>
  401fb6:	d805      	bhi.n	401fc4 <pio_set_peripheral+0x30>
  401fb8:	f1b1 5f00 	cmp.w	r1, #536870912	; 0x20000000
  401fbc:	d126      	bne.n	40200c <pio_set_peripheral+0x78>
  401fbe:	6f03      	ldr	r3, [r0, #112]	; 0x70
  401fc0:	4313      	orrs	r3, r2
  401fc2:	e01f      	b.n	402004 <pio_set_peripheral+0x70>
  401fc4:	f1b1 5f40 	cmp.w	r1, #805306368	; 0x30000000
  401fc8:	d021      	beq.n	40200e <pio_set_peripheral+0x7a>
  401fca:	f1b1 5f60 	cmp.w	r1, #939524096	; 0x38000000
  401fce:	d01e      	beq.n	40200e <pio_set_peripheral+0x7a>
  401fd0:	e01c      	b.n	40200c <pio_set_peripheral+0x78>
  401fd2:	6f04      	ldr	r4, [r0, #112]	; 0x70
  401fd4:	43d3      	mvns	r3, r2
  401fd6:	6f01      	ldr	r1, [r0, #112]	; 0x70
  401fd8:	4021      	ands	r1, r4
  401fda:	4019      	ands	r1, r3
  401fdc:	6701      	str	r1, [r0, #112]	; 0x70
  401fde:	6f44      	ldr	r4, [r0, #116]	; 0x74
  401fe0:	6f41      	ldr	r1, [r0, #116]	; 0x74
  401fe2:	4021      	ands	r1, r4
  401fe4:	400b      	ands	r3, r1
  401fe6:	e010      	b.n	40200a <pio_set_peripheral+0x76>
  401fe8:	6f03      	ldr	r3, [r0, #112]	; 0x70
  401fea:	4313      	orrs	r3, r2
  401fec:	6703      	str	r3, [r0, #112]	; 0x70
  401fee:	6f41      	ldr	r1, [r0, #116]	; 0x74
  401ff0:	6f43      	ldr	r3, [r0, #116]	; 0x74
  401ff2:	400b      	ands	r3, r1
  401ff4:	ea23 0302 	bic.w	r3, r3, r2
  401ff8:	e007      	b.n	40200a <pio_set_peripheral+0x76>
  401ffa:	6f01      	ldr	r1, [r0, #112]	; 0x70
  401ffc:	6f03      	ldr	r3, [r0, #112]	; 0x70
  401ffe:	400b      	ands	r3, r1
  402000:	ea23 0302 	bic.w	r3, r3, r2
  402004:	6703      	str	r3, [r0, #112]	; 0x70
  402006:	6f43      	ldr	r3, [r0, #116]	; 0x74
  402008:	4313      	orrs	r3, r2
  40200a:	6743      	str	r3, [r0, #116]	; 0x74
  40200c:	6042      	str	r2, [r0, #4]
  40200e:	bd10      	pop	{r4, pc}

00402010 <pio_set_input>:
  402010:	07d3      	lsls	r3, r2, #31
  402012:	6441      	str	r1, [r0, #68]	; 0x44
  402014:	d501      	bpl.n	40201a <pio_set_input+0xa>
  402016:	6641      	str	r1, [r0, #100]	; 0x64
  402018:	e000      	b.n	40201c <pio_set_input+0xc>
  40201a:	6601      	str	r1, [r0, #96]	; 0x60
  40201c:	f012 0f0a 	tst.w	r2, #10
  402020:	d001      	beq.n	402026 <pio_set_input+0x16>
  402022:	6201      	str	r1, [r0, #32]
  402024:	e000      	b.n	402028 <pio_set_input+0x18>
  402026:	6241      	str	r1, [r0, #36]	; 0x24
  402028:	0793      	lsls	r3, r2, #30
  40202a:	d502      	bpl.n	402032 <pio_set_input+0x22>
  40202c:	f8c0 1080 	str.w	r1, [r0, #128]	; 0x80
  402030:	e003      	b.n	40203a <pio_set_input+0x2a>
  402032:	0713      	lsls	r3, r2, #28
  402034:	d501      	bpl.n	40203a <pio_set_input+0x2a>
  402036:	f8c0 1084 	str.w	r1, [r0, #132]	; 0x84
  40203a:	6141      	str	r1, [r0, #20]
  40203c:	6001      	str	r1, [r0, #0]
  40203e:	4770      	bx	lr

00402040 <pio_set_output>:
  402040:	b510      	push	{r4, lr}
  402042:	9c02      	ldr	r4, [sp, #8]
  402044:	6441      	str	r1, [r0, #68]	; 0x44
  402046:	b10c      	cbz	r4, 40204c <pio_set_output+0xc>
  402048:	6641      	str	r1, [r0, #100]	; 0x64
  40204a:	e000      	b.n	40204e <pio_set_output+0xe>
  40204c:	6601      	str	r1, [r0, #96]	; 0x60
  40204e:	b10b      	cbz	r3, 402054 <pio_set_output+0x14>
  402050:	6501      	str	r1, [r0, #80]	; 0x50
  402052:	e000      	b.n	402056 <pio_set_output+0x16>
  402054:	6541      	str	r1, [r0, #84]	; 0x54
  402056:	b10a      	cbz	r2, 40205c <pio_set_output+0x1c>
  402058:	6301      	str	r1, [r0, #48]	; 0x30
  40205a:	e000      	b.n	40205e <pio_set_output+0x1e>
  40205c:	6341      	str	r1, [r0, #52]	; 0x34
  40205e:	6101      	str	r1, [r0, #16]
  402060:	6001      	str	r1, [r0, #0]
  402062:	bd10      	pop	{r4, pc}

00402064 <pio_get_interrupt_status>:
  402064:	6cc0      	ldr	r0, [r0, #76]	; 0x4c
  402066:	4770      	bx	lr

00402068 <pio_get_interrupt_mask>:
  402068:	6c80      	ldr	r0, [r0, #72]	; 0x48
  40206a:	4770      	bx	lr

0040206c <pio_configure_pin>:
  40206c:	b5f7      	push	{r0, r1, r2, r4, r5, r6, r7, lr}
  40206e:	0945      	lsrs	r5, r0, #5
  402070:	460e      	mov	r6, r1
  402072:	f001 41f0 	and.w	r1, r1, #2013265920	; 0x78000000
  402076:	f505 1500 	add.w	r5, r5, #2097152	; 0x200000
  40207a:	f1b1 5f00 	cmp.w	r1, #536870912	; 0x20000000
  40207e:	f205 7507 	addw	r5, r5, #1799	; 0x707
  402082:	ea4f 2545 	mov.w	r5, r5, lsl #9
  402086:	d01d      	beq.n	4020c4 <pio_configure_pin+0x58>
  402088:	d809      	bhi.n	40209e <pio_configure_pin+0x32>
  40208a:	f1b1 5f80 	cmp.w	r1, #268435456	; 0x10000000
  40208e:	d019      	beq.n	4020c4 <pio_configure_pin+0x58>
  402090:	f1b1 5fc0 	cmp.w	r1, #402653184	; 0x18000000
  402094:	d016      	beq.n	4020c4 <pio_configure_pin+0x58>
  402096:	f1b1 6f00 	cmp.w	r1, #134217728	; 0x8000000
  40209a:	d138      	bne.n	40210e <pio_configure_pin+0xa2>
  40209c:	e012      	b.n	4020c4 <pio_configure_pin+0x58>
  40209e:	f1b1 5f40 	cmp.w	r1, #805306368	; 0x30000000
  4020a2:	d01f      	beq.n	4020e4 <pio_configure_pin+0x78>
  4020a4:	f1b1 5f60 	cmp.w	r1, #939524096	; 0x38000000
  4020a8:	d01c      	beq.n	4020e4 <pio_configure_pin+0x78>
  4020aa:	f1b1 5f20 	cmp.w	r1, #671088640	; 0x28000000
  4020ae:	d12e      	bne.n	40210e <pio_configure_pin+0xa2>
  4020b0:	f000 011f 	and.w	r1, r0, #31
  4020b4:	2401      	movs	r4, #1
  4020b6:	4632      	mov	r2, r6
  4020b8:	4628      	mov	r0, r5
  4020ba:	fa04 f101 	lsl.w	r1, r4, r1
  4020be:	4b15      	ldr	r3, [pc, #84]	; (402114 <pio_configure_pin+0xa8>)
  4020c0:	4798      	blx	r3
  4020c2:	e022      	b.n	40210a <pio_configure_pin+0x9e>
  4020c4:	f000 041f 	and.w	r4, r0, #31
  4020c8:	2701      	movs	r7, #1
  4020ca:	4628      	mov	r0, r5
  4020cc:	4b12      	ldr	r3, [pc, #72]	; (402118 <pio_configure_pin+0xac>)
  4020ce:	fa07 f404 	lsl.w	r4, r7, r4
  4020d2:	4622      	mov	r2, r4
  4020d4:	4798      	blx	r3
  4020d6:	07f6      	lsls	r6, r6, #31
  4020d8:	d402      	bmi.n	4020e0 <pio_configure_pin+0x74>
  4020da:	662c      	str	r4, [r5, #96]	; 0x60
  4020dc:	4638      	mov	r0, r7
  4020de:	e017      	b.n	402110 <pio_configure_pin+0xa4>
  4020e0:	666c      	str	r4, [r5, #100]	; 0x64
  4020e2:	e7fb      	b.n	4020dc <pio_configure_pin+0x70>
  4020e4:	f006 5260 	and.w	r2, r6, #939524096	; 0x38000000
  4020e8:	f000 011f 	and.w	r1, r0, #31
  4020ec:	2401      	movs	r4, #1
  4020ee:	f102 4048 	add.w	r0, r2, #3355443200	; 0xc8000000
  4020f2:	ea06 0304 	and.w	r3, r6, r4
  4020f6:	fa04 f101 	lsl.w	r1, r4, r1
  4020fa:	4242      	negs	r2, r0
  4020fc:	9300      	str	r3, [sp, #0]
  4020fe:	f3c6 0380 	ubfx	r3, r6, #2, #1
  402102:	4142      	adcs	r2, r0
  402104:	4628      	mov	r0, r5
  402106:	4d05      	ldr	r5, [pc, #20]	; (40211c <pio_configure_pin+0xb0>)
  402108:	47a8      	blx	r5
  40210a:	4620      	mov	r0, r4
  40210c:	e000      	b.n	402110 <pio_configure_pin+0xa4>
  40210e:	2000      	movs	r0, #0
  402110:	b003      	add	sp, #12
  402112:	bdf0      	pop	{r4, r5, r6, r7, pc}
  402114:	00402011 	.word	0x00402011
  402118:	00401f95 	.word	0x00401f95
  40211c:	00402041 	.word	0x00402041

00402120 <pmc_mck_set_division>:
  402120:	3802      	subs	r0, #2
  402122:	2802      	cmp	r0, #2
  402124:	bf96      	itet	ls
  402126:	4b07      	ldrls	r3, [pc, #28]	; (402144 <pmc_mck_set_division+0x24>)
  402128:	2200      	movhi	r2, #0
  40212a:	f833 2010 	ldrhls.w	r2, [r3, r0, lsl #1]
  40212e:	4b06      	ldr	r3, [pc, #24]	; (402148 <pmc_mck_set_division+0x28>)
  402130:	6b19      	ldr	r1, [r3, #48]	; 0x30
  402132:	f421 7140 	bic.w	r1, r1, #768	; 0x300
  402136:	430a      	orrs	r2, r1
  402138:	631a      	str	r2, [r3, #48]	; 0x30
  40213a:	6e9a      	ldr	r2, [r3, #104]	; 0x68
  40213c:	0712      	lsls	r2, r2, #28
  40213e:	d5fc      	bpl.n	40213a <pmc_mck_set_division+0x1a>
  402140:	4770      	bx	lr
  402142:	bf00      	nop
  402144:	0040655e 	.word	0x0040655e
  402148:	400e0600 	.word	0x400e0600

0040214c <pmc_switch_mck_to_pllack>:
  40214c:	4b0f      	ldr	r3, [pc, #60]	; (40218c <pmc_switch_mck_to_pllack+0x40>)
  40214e:	6b1a      	ldr	r2, [r3, #48]	; 0x30
  402150:	f022 0270 	bic.w	r2, r2, #112	; 0x70
  402154:	4310      	orrs	r0, r2
  402156:	f241 0201 	movw	r2, #4097	; 0x1001
  40215a:	6318      	str	r0, [r3, #48]	; 0x30
  40215c:	6e98      	ldr	r0, [r3, #104]	; 0x68
  40215e:	490b      	ldr	r1, [pc, #44]	; (40218c <pmc_switch_mck_to_pllack+0x40>)
  402160:	0700      	lsls	r0, r0, #28
  402162:	d403      	bmi.n	40216c <pmc_switch_mck_to_pllack+0x20>
  402164:	3a01      	subs	r2, #1
  402166:	d1f9      	bne.n	40215c <pmc_switch_mck_to_pllack+0x10>
  402168:	2001      	movs	r0, #1
  40216a:	4770      	bx	lr
  40216c:	6b0a      	ldr	r2, [r1, #48]	; 0x30
  40216e:	f022 0203 	bic.w	r2, r2, #3
  402172:	f042 0202 	orr.w	r2, r2, #2
  402176:	630a      	str	r2, [r1, #48]	; 0x30
  402178:	f241 0201 	movw	r2, #4097	; 0x1001
  40217c:	6e99      	ldr	r1, [r3, #104]	; 0x68
  40217e:	0709      	lsls	r1, r1, #28
  402180:	d402      	bmi.n	402188 <pmc_switch_mck_to_pllack+0x3c>
  402182:	3a01      	subs	r2, #1
  402184:	d1fa      	bne.n	40217c <pmc_switch_mck_to_pllack+0x30>
  402186:	e7ef      	b.n	402168 <pmc_switch_mck_to_pllack+0x1c>
  402188:	2000      	movs	r0, #0
  40218a:	4770      	bx	lr
  40218c:	400e0600 	.word	0x400e0600

00402190 <pmc_switch_mainck_to_xtal>:
  402190:	b510      	push	{r4, lr}
  402192:	4c10      	ldr	r4, [pc, #64]	; (4021d4 <pmc_switch_mainck_to_xtal+0x44>)
  402194:	b130      	cbz	r0, 4021a4 <pmc_switch_mainck_to_xtal+0x14>
  402196:	6a23      	ldr	r3, [r4, #32]
  402198:	4a0f      	ldr	r2, [pc, #60]	; (4021d8 <pmc_switch_mainck_to_xtal+0x48>)
  40219a:	401a      	ands	r2, r3
  40219c:	4b0f      	ldr	r3, [pc, #60]	; (4021dc <pmc_switch_mainck_to_xtal+0x4c>)
  40219e:	4313      	orrs	r3, r2
  4021a0:	6223      	str	r3, [r4, #32]
  4021a2:	bd10      	pop	{r4, pc}
  4021a4:	6a22      	ldr	r2, [r4, #32]
  4021a6:	0209      	lsls	r1, r1, #8
  4021a8:	f422 135c 	bic.w	r3, r2, #3604480	; 0x370000
  4021ac:	b289      	uxth	r1, r1
  4021ae:	f023 0303 	bic.w	r3, r3, #3
  4021b2:	f443 135c 	orr.w	r3, r3, #3604480	; 0x370000
  4021b6:	f043 0301 	orr.w	r3, r3, #1
  4021ba:	430b      	orrs	r3, r1
  4021bc:	6223      	str	r3, [r4, #32]
  4021be:	6ea3      	ldr	r3, [r4, #104]	; 0x68
  4021c0:	4a04      	ldr	r2, [pc, #16]	; (4021d4 <pmc_switch_mainck_to_xtal+0x44>)
  4021c2:	07db      	lsls	r3, r3, #31
  4021c4:	d5fb      	bpl.n	4021be <pmc_switch_mainck_to_xtal+0x2e>
  4021c6:	6a13      	ldr	r3, [r2, #32]
  4021c8:	f043 739b 	orr.w	r3, r3, #20316160	; 0x1360000
  4021cc:	f443 3380 	orr.w	r3, r3, #65536	; 0x10000
  4021d0:	6213      	str	r3, [r2, #32]
  4021d2:	bd10      	pop	{r4, pc}
  4021d4:	400e0600 	.word	0x400e0600
  4021d8:	fec8fffc 	.word	0xfec8fffc
  4021dc:	01370002 	.word	0x01370002

004021e0 <pmc_osc_is_ready_mainck>:
  4021e0:	4b02      	ldr	r3, [pc, #8]	; (4021ec <pmc_osc_is_ready_mainck+0xc>)
  4021e2:	6e98      	ldr	r0, [r3, #104]	; 0x68
  4021e4:	f400 3080 	and.w	r0, r0, #65536	; 0x10000
  4021e8:	4770      	bx	lr
  4021ea:	bf00      	nop
  4021ec:	400e0600 	.word	0x400e0600

004021f0 <pmc_disable_pllack>:
  4021f0:	f04f 5200 	mov.w	r2, #536870912	; 0x20000000
  4021f4:	4b01      	ldr	r3, [pc, #4]	; (4021fc <pmc_disable_pllack+0xc>)
  4021f6:	629a      	str	r2, [r3, #40]	; 0x28
  4021f8:	4770      	bx	lr
  4021fa:	bf00      	nop
  4021fc:	400e0600 	.word	0x400e0600

00402200 <pmc_is_locked_pllack>:
  402200:	4b02      	ldr	r3, [pc, #8]	; (40220c <pmc_is_locked_pllack+0xc>)
  402202:	6e98      	ldr	r0, [r3, #104]	; 0x68
  402204:	f000 0002 	and.w	r0, r0, #2
  402208:	4770      	bx	lr
  40220a:	bf00      	nop
  40220c:	400e0600 	.word	0x400e0600

00402210 <pmc_enable_periph_clk>:
  402210:	283f      	cmp	r0, #63	; 0x3f
  402212:	d817      	bhi.n	402244 <pmc_enable_periph_clk+0x34>
  402214:	281f      	cmp	r0, #31
  402216:	4a0d      	ldr	r2, [pc, #52]	; (40224c <pmc_enable_periph_clk+0x3c>)
  402218:	f04f 0301 	mov.w	r3, #1
  40221c:	d807      	bhi.n	40222e <pmc_enable_periph_clk+0x1e>
  40221e:	6991      	ldr	r1, [r2, #24]
  402220:	fa03 f000 	lsl.w	r0, r3, r0
  402224:	ea30 0301 	bics.w	r3, r0, r1
  402228:	d00e      	beq.n	402248 <pmc_enable_periph_clk+0x38>
  40222a:	6110      	str	r0, [r2, #16]
  40222c:	e00c      	b.n	402248 <pmc_enable_periph_clk+0x38>
  40222e:	3820      	subs	r0, #32
  402230:	f8d2 1108 	ldr.w	r1, [r2, #264]	; 0x108
  402234:	fa03 f000 	lsl.w	r0, r3, r0
  402238:	ea30 0301 	bics.w	r3, r0, r1
  40223c:	d004      	beq.n	402248 <pmc_enable_periph_clk+0x38>
  40223e:	f8c2 0100 	str.w	r0, [r2, #256]	; 0x100
  402242:	e001      	b.n	402248 <pmc_enable_periph_clk+0x38>
  402244:	2001      	movs	r0, #1
  402246:	4770      	bx	lr
  402248:	2000      	movs	r0, #0
  40224a:	4770      	bx	lr
  40224c:	400e0600 	.word	0x400e0600

00402250 <pwm_clocks_generate>:
  402250:	b5f0      	push	{r4, r5, r6, r7, lr}
  402252:	4d11      	ldr	r5, [pc, #68]	; (402298 <pwm_clocks_generate+0x48>)
  402254:	b08d      	sub	sp, #52	; 0x34
  402256:	4606      	mov	r6, r0
  402258:	460f      	mov	r7, r1
  40225a:	ac01      	add	r4, sp, #4
  40225c:	cd0f      	ldmia	r5!, {r0, r1, r2, r3}
  40225e:	c40f      	stmia	r4!, {r0, r1, r2, r3}
  402260:	cd0f      	ldmia	r5!, {r0, r1, r2, r3}
  402262:	c40f      	stmia	r4!, {r0, r1, r2, r3}
  402264:	e895 0007 	ldmia.w	r5, {r0, r1, r2}
  402268:	e884 0007 	stmia.w	r4, {r0, r1, r2}
  40226c:	2200      	movs	r2, #0
  40226e:	a901      	add	r1, sp, #4
  402270:	f851 3022 	ldr.w	r3, [r1, r2, lsl #2]
  402274:	fbb7 f0f3 	udiv	r0, r7, r3
  402278:	fbb0 f0f6 	udiv	r0, r0, r6
  40227c:	f5b0 7f80 	cmp.w	r0, #256	; 0x100
  402280:	d905      	bls.n	40228e <pwm_clocks_generate+0x3e>
  402282:	3201      	adds	r2, #1
  402284:	2a0b      	cmp	r2, #11
  402286:	d1f3      	bne.n	402270 <pwm_clocks_generate+0x20>
  402288:	f64f 70ff 	movw	r0, #65535	; 0xffff
  40228c:	e001      	b.n	402292 <pwm_clocks_generate+0x42>
  40228e:	ea40 2002 	orr.w	r0, r0, r2, lsl #8
  402292:	b00d      	add	sp, #52	; 0x34
  402294:	bdf0      	pop	{r4, r5, r6, r7, pc}
  402296:	bf00      	nop
  402298:	00406564 	.word	0x00406564

0040229c <pwm_init>:
  40229c:	b570      	push	{r4, r5, r6, lr}
  40229e:	4606      	mov	r6, r0
  4022a0:	6808      	ldr	r0, [r1, #0]
  4022a2:	460d      	mov	r5, r1
  4022a4:	b140      	cbz	r0, 4022b8 <pwm_init+0x1c>
  4022a6:	4b0c      	ldr	r3, [pc, #48]	; (4022d8 <pwm_init+0x3c>)
  4022a8:	6889      	ldr	r1, [r1, #8]
  4022aa:	4798      	blx	r3
  4022ac:	f64f 73ff 	movw	r3, #65535	; 0xffff
  4022b0:	4604      	mov	r4, r0
  4022b2:	4298      	cmp	r0, r3
  4022b4:	d101      	bne.n	4022ba <pwm_init+0x1e>
  4022b6:	e00e      	b.n	4022d6 <pwm_init+0x3a>
  4022b8:	4604      	mov	r4, r0
  4022ba:	6868      	ldr	r0, [r5, #4]
  4022bc:	b140      	cbz	r0, 4022d0 <pwm_init+0x34>
  4022be:	4b06      	ldr	r3, [pc, #24]	; (4022d8 <pwm_init+0x3c>)
  4022c0:	68a9      	ldr	r1, [r5, #8]
  4022c2:	4798      	blx	r3
  4022c4:	f64f 73ff 	movw	r3, #65535	; 0xffff
  4022c8:	4298      	cmp	r0, r3
  4022ca:	d004      	beq.n	4022d6 <pwm_init+0x3a>
  4022cc:	ea44 4400 	orr.w	r4, r4, r0, lsl #16
  4022d0:	6034      	str	r4, [r6, #0]
  4022d2:	2000      	movs	r0, #0
  4022d4:	bd70      	pop	{r4, r5, r6, pc}
  4022d6:	bd70      	pop	{r4, r5, r6, pc}
  4022d8:	00402251 	.word	0x00402251

004022dc <pwm_channel_init>:
  4022dc:	684a      	ldr	r2, [r1, #4]
  4022de:	680b      	ldr	r3, [r1, #0]
  4022e0:	f002 020f 	and.w	r2, r2, #15
  4022e4:	b570      	push	{r4, r5, r6, lr}
  4022e6:	8a8c      	ldrh	r4, [r1, #20]
  4022e8:	4322      	orrs	r2, r4
  4022ea:	890c      	ldrh	r4, [r1, #8]
  4022ec:	4322      	orrs	r2, r4
  4022ee:	7a8c      	ldrb	r4, [r1, #10]
  4022f0:	ea42 2244 	orr.w	r2, r2, r4, lsl #9
  4022f4:	7d8c      	ldrb	r4, [r1, #22]
  4022f6:	ea42 4204 	orr.w	r2, r2, r4, lsl #16
  4022fa:	7dcc      	ldrb	r4, [r1, #23]
  4022fc:	ea42 4244 	orr.w	r2, r2, r4, lsl #17
  402300:	7e0c      	ldrb	r4, [r1, #24]
  402302:	ea42 4284 	orr.w	r2, r2, r4, lsl #18
  402306:	eb00 1443 	add.w	r4, r0, r3, lsl #5
  40230a:	f8c4 2200 	str.w	r2, [r4, #512]	; 0x200
  40230e:	68ca      	ldr	r2, [r1, #12]
  402310:	f8c4 2204 	str.w	r2, [r4, #516]	; 0x204
  402314:	690a      	ldr	r2, [r1, #16]
  402316:	f8c4 220c 	str.w	r2, [r4, #524]	; 0x20c
  40231a:	7d8a      	ldrb	r2, [r1, #22]
  40231c:	b11a      	cbz	r2, 402326 <pwm_channel_init+0x4a>
  40231e:	f8d1 201a 	ldr.w	r2, [r1, #26]
  402322:	f8c4 2218 	str.w	r2, [r4, #536]	; 0x218
  402326:	f04f 1201 	mov.w	r2, #65537	; 0x10001
  40232a:	6c84      	ldr	r4, [r0, #72]	; 0x48
  40232c:	409a      	lsls	r2, r3
  40232e:	43d2      	mvns	r2, r2
  402330:	ea04 0502 	and.w	r5, r4, r2
  402334:	7fcc      	ldrb	r4, [r1, #31]
  402336:	fa04 f603 	lsl.w	r6, r4, r3
  40233a:	7f8c      	ldrb	r4, [r1, #30]
  40233c:	409c      	lsls	r4, r3
  40233e:	ea44 4406 	orr.w	r4, r4, r6, lsl #16
  402342:	432c      	orrs	r4, r5
  402344:	6484      	str	r4, [r0, #72]	; 0x48
  402346:	6c44      	ldr	r4, [r0, #68]	; 0x44
  402348:	4022      	ands	r2, r4
  40234a:	f891 4021 	ldrb.w	r4, [r1, #33]	; 0x21
  40234e:	fa04 f503 	lsl.w	r5, r4, r3
  402352:	f891 4020 	ldrb.w	r4, [r1, #32]
  402356:	409c      	lsls	r4, r3
  402358:	ea44 4405 	orr.w	r4, r4, r5, lsl #16
  40235c:	4322      	orrs	r2, r4
  40235e:	6442      	str	r2, [r0, #68]	; 0x44
  402360:	2201      	movs	r2, #1
  402362:	f891 4022 	ldrb.w	r4, [r1, #34]	; 0x22
  402366:	409a      	lsls	r2, r3
  402368:	b114      	cbz	r4, 402370 <pwm_channel_init+0x94>
  40236a:	6a04      	ldr	r4, [r0, #32]
  40236c:	4314      	orrs	r4, r2
  40236e:	e002      	b.n	402376 <pwm_channel_init+0x9a>
  402370:	6a04      	ldr	r4, [r0, #32]
  402372:	ea24 0402 	bic.w	r4, r4, r2
  402376:	6204      	str	r4, [r0, #32]
  402378:	f891 4024 	ldrb.w	r4, [r1, #36]	; 0x24
  40237c:	2c02      	cmp	r4, #2
  40237e:	d105      	bne.n	40238c <pwm_channel_init+0xb0>
  402380:	f8d0 40c0 	ldr.w	r4, [r0, #192]	; 0xc0
  402384:	4314      	orrs	r4, r2
  402386:	f8c0 40c0 	str.w	r4, [r0, #192]	; 0xc0
  40238a:	e00d      	b.n	4023a8 <pwm_channel_init+0xcc>
  40238c:	f8d0 50c0 	ldr.w	r5, [r0, #192]	; 0xc0
  402390:	43d6      	mvns	r6, r2
  402392:	4035      	ands	r5, r6
  402394:	f8c0 50c0 	str.w	r5, [r0, #192]	; 0xc0
  402398:	f891 4024 	ldrb.w	r4, [r1, #36]	; 0x24
  40239c:	2c01      	cmp	r4, #1
  40239e:	6e84      	ldr	r4, [r0, #104]	; 0x68
  4023a0:	bf0c      	ite	eq
  4023a2:	4314      	orreq	r4, r2
  4023a4:	4034      	andne	r4, r6
  4023a6:	6684      	str	r4, [r0, #104]	; 0x68
  4023a8:	f891 4025 	ldrb.w	r4, [r1, #37]	; 0x25
  4023ac:	0412      	lsls	r2, r2, #16
  4023ae:	2c02      	cmp	r4, #2
  4023b0:	f8d0 40c0 	ldr.w	r4, [r0, #192]	; 0xc0
  4023b4:	d103      	bne.n	4023be <pwm_channel_init+0xe2>
  4023b6:	4322      	orrs	r2, r4
  4023b8:	f8c0 20c0 	str.w	r2, [r0, #192]	; 0xc0
  4023bc:	e00d      	b.n	4023da <pwm_channel_init+0xfe>
  4023be:	43d5      	mvns	r5, r2
  4023c0:	402c      	ands	r4, r5
  4023c2:	f8c0 40c0 	str.w	r4, [r0, #192]	; 0xc0
  4023c6:	f891 4025 	ldrb.w	r4, [r1, #37]	; 0x25
  4023ca:	2c01      	cmp	r4, #1
  4023cc:	d102      	bne.n	4023d4 <pwm_channel_init+0xf8>
  4023ce:	6e84      	ldr	r4, [r0, #104]	; 0x68
  4023d0:	4322      	orrs	r2, r4
  4023d2:	e001      	b.n	4023d8 <pwm_channel_init+0xfc>
  4023d4:	6e82      	ldr	r2, [r0, #104]	; 0x68
  4023d6:	402a      	ands	r2, r5
  4023d8:	6682      	str	r2, [r0, #104]	; 0x68
  4023da:	00db      	lsls	r3, r3, #3
  4023dc:	22ff      	movs	r2, #255	; 0xff
  4023de:	6ec5      	ldr	r5, [r0, #108]	; 0x6c
  4023e0:	409a      	lsls	r2, r3
  4023e2:	ea25 0402 	bic.w	r4, r5, r2
  4023e6:	f891 2023 	ldrb.w	r2, [r1, #35]	; 0x23
  4023ea:	409a      	lsls	r2, r3
  4023ec:	4322      	orrs	r2, r4
  4023ee:	66c2      	str	r2, [r0, #108]	; 0x6c
  4023f0:	b953      	cbnz	r3, 402408 <pwm_channel_init+0x12c>
  4023f2:	f891 202c 	ldrb.w	r2, [r1, #44]	; 0x2c
  4023f6:	2a01      	cmp	r2, #1
  4023f8:	6a8a      	ldr	r2, [r1, #40]	; 0x28
  4023fa:	f022 427f 	bic.w	r2, r2, #4278190080	; 0xff000000
  4023fe:	bf08      	it	eq
  402400:	f042 7280 	orreq.w	r2, r2, #16777216	; 0x1000000
  402404:	f8c0 20a0 	str.w	r2, [r0, #160]	; 0xa0
  402408:	eb00 1043 	add.w	r0, r0, r3, lsl #5
  40240c:	f8d0 3200 	ldr.w	r3, [r0, #512]	; 0x200
  402410:	f423 2300 	bic.w	r3, r3, #524288	; 0x80000
  402414:	f8c0 3200 	str.w	r3, [r0, #512]	; 0x200
  402418:	6b8b      	ldr	r3, [r1, #56]	; 0x38
  40241a:	f8d0 2200 	ldr.w	r2, [r0, #512]	; 0x200
  40241e:	f403 2300 	and.w	r3, r3, #524288	; 0x80000
  402422:	4313      	orrs	r3, r2
  402424:	f8c0 3200 	str.w	r3, [r0, #512]	; 0x200
  402428:	2000      	movs	r0, #0
  40242a:	bd70      	pop	{r4, r5, r6, pc}

0040242c <pwm_channel_enable>:
  40242c:	2301      	movs	r3, #1
  40242e:	fa03 f101 	lsl.w	r1, r3, r1
  402432:	6041      	str	r1, [r0, #4]
  402434:	4770      	bx	lr

00402436 <pwm_channel_disable>:
  402436:	2301      	movs	r3, #1
  402438:	fa03 f101 	lsl.w	r1, r3, r1
  40243c:	6081      	str	r1, [r0, #8]
  40243e:	4770      	bx	lr

00402440 <uart_init>:
  402440:	23ac      	movs	r3, #172	; 0xac
  402442:	b510      	push	{r4, lr}
  402444:	6003      	str	r3, [r0, #0]
  402446:	684a      	ldr	r2, [r1, #4]
  402448:	680b      	ldr	r3, [r1, #0]
  40244a:	fbb3 f3f2 	udiv	r3, r3, r2
  40244e:	091b      	lsrs	r3, r3, #4
  402450:	f64f 72fe 	movw	r2, #65534	; 0xfffe
  402454:	1e5c      	subs	r4, r3, #1
  402456:	4294      	cmp	r4, r2
  402458:	d806      	bhi.n	402468 <uart_init+0x28>
  40245a:	6203      	str	r3, [r0, #32]
  40245c:	688b      	ldr	r3, [r1, #8]
  40245e:	6043      	str	r3, [r0, #4]
  402460:	2350      	movs	r3, #80	; 0x50
  402462:	6003      	str	r3, [r0, #0]
  402464:	2000      	movs	r0, #0
  402466:	bd10      	pop	{r4, pc}
  402468:	2001      	movs	r0, #1
  40246a:	bd10      	pop	{r4, pc}

0040246c <uart_enable_interrupt>:
  40246c:	6081      	str	r1, [r0, #8]
  40246e:	4770      	bx	lr

00402470 <uart_write>:
  402470:	6943      	ldr	r3, [r0, #20]
  402472:	079b      	lsls	r3, r3, #30
  402474:	d502      	bpl.n	40247c <uart_write+0xc>
  402476:	61c1      	str	r1, [r0, #28]
  402478:	2000      	movs	r0, #0
  40247a:	4770      	bx	lr
  40247c:	2001      	movs	r0, #1
  40247e:	4770      	bx	lr

00402480 <uart_read>:
  402480:	6943      	ldr	r3, [r0, #20]
  402482:	07db      	lsls	r3, r3, #31
  402484:	d503      	bpl.n	40248e <uart_read+0xe>
  402486:	6983      	ldr	r3, [r0, #24]
  402488:	2000      	movs	r0, #0
  40248a:	700b      	strb	r3, [r1, #0]
  40248c:	4770      	bx	lr
  40248e:	2001      	movs	r0, #1
  402490:	4770      	bx	lr

00402492 <board_init>:
  402492:	4770      	bx	lr

00402494 <SystemCoreClockUpdate>:
  402494:	4a2c      	ldr	r2, [pc, #176]	; (402548 <SystemCoreClockUpdate+0xb4>)
  402496:	4b2d      	ldr	r3, [pc, #180]	; (40254c <SystemCoreClockUpdate+0xb8>)
  402498:	b510      	push	{r4, lr}
  40249a:	6b11      	ldr	r1, [r2, #48]	; 0x30
  40249c:	f001 0103 	and.w	r1, r1, #3
  4024a0:	2901      	cmp	r1, #1
  4024a2:	d00c      	beq.n	4024be <SystemCoreClockUpdate+0x2a>
  4024a4:	d302      	bcc.n	4024ac <SystemCoreClockUpdate+0x18>
  4024a6:	2902      	cmp	r1, #2
  4024a8:	d01a      	beq.n	4024e0 <SystemCoreClockUpdate+0x4c>
  4024aa:	e03b      	b.n	402524 <SystemCoreClockUpdate+0x90>
  4024ac:	4928      	ldr	r1, [pc, #160]	; (402550 <SystemCoreClockUpdate+0xbc>)
  4024ae:	6949      	ldr	r1, [r1, #20]
  4024b0:	060c      	lsls	r4, r1, #24
  4024b2:	bf4c      	ite	mi
  4024b4:	f44f 4100 	movmi.w	r1, #32768	; 0x8000
  4024b8:	f44f 41fa 	movpl.w	r1, #32000	; 0x7d00
  4024bc:	e031      	b.n	402522 <SystemCoreClockUpdate+0x8e>
  4024be:	6a11      	ldr	r1, [r2, #32]
  4024c0:	01c8      	lsls	r0, r1, #7
  4024c2:	d40b      	bmi.n	4024dc <SystemCoreClockUpdate+0x48>
  4024c4:	4923      	ldr	r1, [pc, #140]	; (402554 <SystemCoreClockUpdate+0xc0>)
  4024c6:	6019      	str	r1, [r3, #0]
  4024c8:	6a11      	ldr	r1, [r2, #32]
  4024ca:	f001 0170 	and.w	r1, r1, #112	; 0x70
  4024ce:	2910      	cmp	r1, #16
  4024d0:	d002      	beq.n	4024d8 <SystemCoreClockUpdate+0x44>
  4024d2:	2920      	cmp	r1, #32
  4024d4:	d002      	beq.n	4024dc <SystemCoreClockUpdate+0x48>
  4024d6:	e025      	b.n	402524 <SystemCoreClockUpdate+0x90>
  4024d8:	491f      	ldr	r1, [pc, #124]	; (402558 <SystemCoreClockUpdate+0xc4>)
  4024da:	e022      	b.n	402522 <SystemCoreClockUpdate+0x8e>
  4024dc:	491f      	ldr	r1, [pc, #124]	; (40255c <SystemCoreClockUpdate+0xc8>)
  4024de:	e020      	b.n	402522 <SystemCoreClockUpdate+0x8e>
  4024e0:	6a11      	ldr	r1, [r2, #32]
  4024e2:	01c9      	lsls	r1, r1, #7
  4024e4:	d40b      	bmi.n	4024fe <SystemCoreClockUpdate+0x6a>
  4024e6:	491b      	ldr	r1, [pc, #108]	; (402554 <SystemCoreClockUpdate+0xc0>)
  4024e8:	6019      	str	r1, [r3, #0]
  4024ea:	6a11      	ldr	r1, [r2, #32]
  4024ec:	f001 0170 	and.w	r1, r1, #112	; 0x70
  4024f0:	2910      	cmp	r1, #16
  4024f2:	d002      	beq.n	4024fa <SystemCoreClockUpdate+0x66>
  4024f4:	2920      	cmp	r1, #32
  4024f6:	d002      	beq.n	4024fe <SystemCoreClockUpdate+0x6a>
  4024f8:	e003      	b.n	402502 <SystemCoreClockUpdate+0x6e>
  4024fa:	4917      	ldr	r1, [pc, #92]	; (402558 <SystemCoreClockUpdate+0xc4>)
  4024fc:	e000      	b.n	402500 <SystemCoreClockUpdate+0x6c>
  4024fe:	4917      	ldr	r1, [pc, #92]	; (40255c <SystemCoreClockUpdate+0xc8>)
  402500:	6019      	str	r1, [r3, #0]
  402502:	6b11      	ldr	r1, [r2, #48]	; 0x30
  402504:	4810      	ldr	r0, [pc, #64]	; (402548 <SystemCoreClockUpdate+0xb4>)
  402506:	f001 0103 	and.w	r1, r1, #3
  40250a:	2902      	cmp	r1, #2
  40250c:	d10a      	bne.n	402524 <SystemCoreClockUpdate+0x90>
  40250e:	6a81      	ldr	r1, [r0, #40]	; 0x28
  402510:	6a80      	ldr	r0, [r0, #40]	; 0x28
  402512:	f3c1 440a 	ubfx	r4, r1, #16, #11
  402516:	6819      	ldr	r1, [r3, #0]
  402518:	b2c0      	uxtb	r0, r0
  40251a:	fb04 1101 	mla	r1, r4, r1, r1
  40251e:	fbb1 f1f0 	udiv	r1, r1, r0
  402522:	6019      	str	r1, [r3, #0]
  402524:	6b12      	ldr	r2, [r2, #48]	; 0x30
  402526:	f002 0270 	and.w	r2, r2, #112	; 0x70
  40252a:	2a70      	cmp	r2, #112	; 0x70
  40252c:	d104      	bne.n	402538 <SystemCoreClockUpdate+0xa4>
  40252e:	681a      	ldr	r2, [r3, #0]
  402530:	2103      	movs	r1, #3
  402532:	fbb2 f2f1 	udiv	r2, r2, r1
  402536:	e005      	b.n	402544 <SystemCoreClockUpdate+0xb0>
  402538:	4a03      	ldr	r2, [pc, #12]	; (402548 <SystemCoreClockUpdate+0xb4>)
  40253a:	6b12      	ldr	r2, [r2, #48]	; 0x30
  40253c:	f3c2 1102 	ubfx	r1, r2, #4, #3
  402540:	681a      	ldr	r2, [r3, #0]
  402542:	40ca      	lsrs	r2, r1
  402544:	601a      	str	r2, [r3, #0]
  402546:	bd10      	pop	{r4, pc}
  402548:	400e0600 	.word	0x400e0600
  40254c:	20400004 	.word	0x20400004
  402550:	400e1810 	.word	0x400e1810
  402554:	003d0900 	.word	0x003d0900
  402558:	007a1200 	.word	0x007a1200
  40255c:	00b71b00 	.word	0x00b71b00

00402560 <system_init_flash>:
  402560:	4b0e      	ldr	r3, [pc, #56]	; (40259c <system_init_flash+0x3c>)
  402562:	4298      	cmp	r0, r3
  402564:	4b0e      	ldr	r3, [pc, #56]	; (4025a0 <system_init_flash+0x40>)
  402566:	d802      	bhi.n	40256e <system_init_flash+0xe>
  402568:	f04f 6280 	mov.w	r2, #67108864	; 0x4000000
  40256c:	e014      	b.n	402598 <system_init_flash+0x38>
  40256e:	4a0d      	ldr	r2, [pc, #52]	; (4025a4 <system_init_flash+0x44>)
  402570:	4290      	cmp	r0, r2
  402572:	d801      	bhi.n	402578 <system_init_flash+0x18>
  402574:	4a0c      	ldr	r2, [pc, #48]	; (4025a8 <system_init_flash+0x48>)
  402576:	e00f      	b.n	402598 <system_init_flash+0x38>
  402578:	4a0c      	ldr	r2, [pc, #48]	; (4025ac <system_init_flash+0x4c>)
  40257a:	4290      	cmp	r0, r2
  40257c:	d801      	bhi.n	402582 <system_init_flash+0x22>
  40257e:	4a0c      	ldr	r2, [pc, #48]	; (4025b0 <system_init_flash+0x50>)
  402580:	e00a      	b.n	402598 <system_init_flash+0x38>
  402582:	4a0c      	ldr	r2, [pc, #48]	; (4025b4 <system_init_flash+0x54>)
  402584:	4290      	cmp	r0, r2
  402586:	d801      	bhi.n	40258c <system_init_flash+0x2c>
  402588:	4a0b      	ldr	r2, [pc, #44]	; (4025b8 <system_init_flash+0x58>)
  40258a:	e005      	b.n	402598 <system_init_flash+0x38>
  40258c:	4a0b      	ldr	r2, [pc, #44]	; (4025bc <system_init_flash+0x5c>)
  40258e:	4290      	cmp	r0, r2
  402590:	bf94      	ite	ls
  402592:	f04f 2204 	movls.w	r2, #67109888	; 0x4000400
  402596:	4a0a      	ldrhi	r2, [pc, #40]	; (4025c0 <system_init_flash+0x60>)
  402598:	601a      	str	r2, [r3, #0]
  40259a:	4770      	bx	lr
  40259c:	01312cff 	.word	0x01312cff
  4025a0:	400e0c00 	.word	0x400e0c00
  4025a4:	026259ff 	.word	0x026259ff
  4025a8:	04000100 	.word	0x04000100
  4025ac:	039386ff 	.word	0x039386ff
  4025b0:	04000200 	.word	0x04000200
  4025b4:	04c4b3ff 	.word	0x04c4b3ff
  4025b8:	04000300 	.word	0x04000300
  4025bc:	05f5e0ff 	.word	0x05f5e0ff
  4025c0:	04000500 	.word	0x04000500

004025c4 <_sbrk>:
  4025c4:	4b07      	ldr	r3, [pc, #28]	; (4025e4 <_sbrk+0x20>)
  4025c6:	681a      	ldr	r2, [r3, #0]
  4025c8:	b90a      	cbnz	r2, 4025ce <_sbrk+0xa>
  4025ca:	4a07      	ldr	r2, [pc, #28]	; (4025e8 <_sbrk+0x24>)
  4025cc:	601a      	str	r2, [r3, #0]
  4025ce:	681b      	ldr	r3, [r3, #0]
  4025d0:	4a06      	ldr	r2, [pc, #24]	; (4025ec <_sbrk+0x28>)
  4025d2:	4418      	add	r0, r3
  4025d4:	4282      	cmp	r2, r0
  4025d6:	bfa3      	ittte	ge
  4025d8:	4a02      	ldrge	r2, [pc, #8]	; (4025e4 <_sbrk+0x20>)
  4025da:	6010      	strge	r0, [r2, #0]
  4025dc:	4618      	movge	r0, r3
  4025de:	f04f 30ff 	movlt.w	r0, #4294967295
  4025e2:	4770      	bx	lr
  4025e4:	20400cd4 	.word	0x20400cd4
  4025e8:	20401390 	.word	0x20401390
  4025ec:	2045fffc 	.word	0x2045fffc

004025f0 <atan>:
  4025f0:	e92d 4ff8 	stmdb	sp!, {r3, r4, r5, r6, r7, r8, r9, sl, fp, lr}
  4025f4:	4bc0      	ldr	r3, [pc, #768]	; (4028f8 <atan+0x308>)
  4025f6:	f021 4600 	bic.w	r6, r1, #2147483648	; 0x80000000
  4025fa:	429e      	cmp	r6, r3
  4025fc:	460d      	mov	r5, r1
  4025fe:	468a      	mov	sl, r1
  402600:	4604      	mov	r4, r0
  402602:	dd0f      	ble.n	402624 <atan+0x34>
  402604:	4bbd      	ldr	r3, [pc, #756]	; (4028fc <atan+0x30c>)
  402606:	429e      	cmp	r6, r3
  402608:	f300 80b2 	bgt.w	402770 <atan+0x180>
  40260c:	f000 80ad 	beq.w	40276a <atan+0x17a>
  402610:	4bbb      	ldr	r3, [pc, #748]	; (402900 <atan+0x310>)
  402612:	49bc      	ldr	r1, [pc, #752]	; (402904 <atan+0x314>)
  402614:	4cbc      	ldr	r4, [pc, #752]	; (402908 <atan+0x318>)
  402616:	f1ba 0f00 	cmp.w	sl, #0
  40261a:	bfc8      	it	gt
  40261c:	4619      	movgt	r1, r3
  40261e:	4620      	mov	r0, r4
  402620:	e8bd 8ff8 	ldmia.w	sp!, {r3, r4, r5, r6, r7, r8, r9, sl, fp, pc}
  402624:	4bb9      	ldr	r3, [pc, #740]	; (40290c <atan+0x31c>)
  402626:	429e      	cmp	r6, r3
  402628:	f300 80bc 	bgt.w	4027a4 <atan+0x1b4>
  40262c:	f1a3 73de 	sub.w	r3, r3, #29097984	; 0x1bc0000
  402630:	429e      	cmp	r6, r3
  402632:	f340 80a7 	ble.w	402784 <atan+0x194>
  402636:	f04f 3bff 	mov.w	fp, #4294967295
  40263a:	4622      	mov	r2, r4
  40263c:	462b      	mov	r3, r5
  40263e:	4620      	mov	r0, r4
  402640:	4629      	mov	r1, r5
  402642:	f000 fd19 	bl	403078 <__aeabi_dmul>
  402646:	4602      	mov	r2, r0
  402648:	460b      	mov	r3, r1
  40264a:	4680      	mov	r8, r0
  40264c:	4689      	mov	r9, r1
  40264e:	f000 fd13 	bl	403078 <__aeabi_dmul>
  402652:	a391      	add	r3, pc, #580	; (adr r3, 402898 <atan+0x2a8>)
  402654:	e9d3 2300 	ldrd	r2, r3, [r3]
  402658:	4606      	mov	r6, r0
  40265a:	460f      	mov	r7, r1
  40265c:	f000 fd0c 	bl	403078 <__aeabi_dmul>
  402660:	a38f      	add	r3, pc, #572	; (adr r3, 4028a0 <atan+0x2b0>)
  402662:	e9d3 2300 	ldrd	r2, r3, [r3]
  402666:	f000 fb55 	bl	402d14 <__adddf3>
  40266a:	4632      	mov	r2, r6
  40266c:	463b      	mov	r3, r7
  40266e:	f000 fd03 	bl	403078 <__aeabi_dmul>
  402672:	a38d      	add	r3, pc, #564	; (adr r3, 4028a8 <atan+0x2b8>)
  402674:	e9d3 2300 	ldrd	r2, r3, [r3]
  402678:	f000 fb4c 	bl	402d14 <__adddf3>
  40267c:	4632      	mov	r2, r6
  40267e:	463b      	mov	r3, r7
  402680:	f000 fcfa 	bl	403078 <__aeabi_dmul>
  402684:	a38a      	add	r3, pc, #552	; (adr r3, 4028b0 <atan+0x2c0>)
  402686:	e9d3 2300 	ldrd	r2, r3, [r3]
  40268a:	f000 fb43 	bl	402d14 <__adddf3>
  40268e:	4632      	mov	r2, r6
  402690:	463b      	mov	r3, r7
  402692:	f000 fcf1 	bl	403078 <__aeabi_dmul>
  402696:	a388      	add	r3, pc, #544	; (adr r3, 4028b8 <atan+0x2c8>)
  402698:	e9d3 2300 	ldrd	r2, r3, [r3]
  40269c:	f000 fb3a 	bl	402d14 <__adddf3>
  4026a0:	4632      	mov	r2, r6
  4026a2:	463b      	mov	r3, r7
  4026a4:	f000 fce8 	bl	403078 <__aeabi_dmul>
  4026a8:	a385      	add	r3, pc, #532	; (adr r3, 4028c0 <atan+0x2d0>)
  4026aa:	e9d3 2300 	ldrd	r2, r3, [r3]
  4026ae:	f000 fb31 	bl	402d14 <__adddf3>
  4026b2:	4642      	mov	r2, r8
  4026b4:	464b      	mov	r3, r9
  4026b6:	f000 fcdf 	bl	403078 <__aeabi_dmul>
  4026ba:	a383      	add	r3, pc, #524	; (adr r3, 4028c8 <atan+0x2d8>)
  4026bc:	e9d3 2300 	ldrd	r2, r3, [r3]
  4026c0:	4680      	mov	r8, r0
  4026c2:	4689      	mov	r9, r1
  4026c4:	4630      	mov	r0, r6
  4026c6:	4639      	mov	r1, r7
  4026c8:	f000 fcd6 	bl	403078 <__aeabi_dmul>
  4026cc:	a380      	add	r3, pc, #512	; (adr r3, 4028d0 <atan+0x2e0>)
  4026ce:	e9d3 2300 	ldrd	r2, r3, [r3]
  4026d2:	f000 fb1d 	bl	402d10 <__aeabi_dsub>
  4026d6:	4632      	mov	r2, r6
  4026d8:	463b      	mov	r3, r7
  4026da:	f000 fccd 	bl	403078 <__aeabi_dmul>
  4026de:	a37e      	add	r3, pc, #504	; (adr r3, 4028d8 <atan+0x2e8>)
  4026e0:	e9d3 2300 	ldrd	r2, r3, [r3]
  4026e4:	f000 fb14 	bl	402d10 <__aeabi_dsub>
  4026e8:	4632      	mov	r2, r6
  4026ea:	463b      	mov	r3, r7
  4026ec:	f000 fcc4 	bl	403078 <__aeabi_dmul>
  4026f0:	a37b      	add	r3, pc, #492	; (adr r3, 4028e0 <atan+0x2f0>)
  4026f2:	e9d3 2300 	ldrd	r2, r3, [r3]
  4026f6:	f000 fb0b 	bl	402d10 <__aeabi_dsub>
  4026fa:	4632      	mov	r2, r6
  4026fc:	463b      	mov	r3, r7
  4026fe:	f000 fcbb 	bl	403078 <__aeabi_dmul>
  402702:	a379      	add	r3, pc, #484	; (adr r3, 4028e8 <atan+0x2f8>)
  402704:	e9d3 2300 	ldrd	r2, r3, [r3]
  402708:	f000 fb02 	bl	402d10 <__aeabi_dsub>
  40270c:	4632      	mov	r2, r6
  40270e:	463b      	mov	r3, r7
  402710:	f000 fcb2 	bl	403078 <__aeabi_dmul>
  402714:	f1bb 3fff 	cmp.w	fp, #4294967295
  402718:	4602      	mov	r2, r0
  40271a:	460b      	mov	r3, r1
  40271c:	d069      	beq.n	4027f2 <atan+0x202>
  40271e:	4640      	mov	r0, r8
  402720:	4649      	mov	r1, r9
  402722:	f000 faf7 	bl	402d14 <__adddf3>
  402726:	4622      	mov	r2, r4
  402728:	462b      	mov	r3, r5
  40272a:	f000 fca5 	bl	403078 <__aeabi_dmul>
  40272e:	4e78      	ldr	r6, [pc, #480]	; (402910 <atan+0x320>)
  402730:	4b78      	ldr	r3, [pc, #480]	; (402914 <atan+0x324>)
  402732:	ea4f 0bcb 	mov.w	fp, fp, lsl #3
  402736:	445e      	add	r6, fp
  402738:	449b      	add	fp, r3
  40273a:	e9db 2300 	ldrd	r2, r3, [fp]
  40273e:	f000 fae7 	bl	402d10 <__aeabi_dsub>
  402742:	4622      	mov	r2, r4
  402744:	462b      	mov	r3, r5
  402746:	f000 fae3 	bl	402d10 <__aeabi_dsub>
  40274a:	4602      	mov	r2, r0
  40274c:	460b      	mov	r3, r1
  40274e:	e9d6 0100 	ldrd	r0, r1, [r6]
  402752:	f000 fadd 	bl	402d10 <__aeabi_dsub>
  402756:	f1ba 0f00 	cmp.w	sl, #0
  40275a:	4604      	mov	r4, r0
  40275c:	f6bf af5f 	bge.w	40261e <atan+0x2e>
  402760:	f101 4100 	add.w	r1, r1, #2147483648	; 0x80000000
  402764:	4620      	mov	r0, r4
  402766:	e8bd 8ff8 	ldmia.w	sp!, {r3, r4, r5, r6, r7, r8, r9, sl, fp, pc}
  40276a:	2800      	cmp	r0, #0
  40276c:	f43f af50 	beq.w	402610 <atan+0x20>
  402770:	4622      	mov	r2, r4
  402772:	4620      	mov	r0, r4
  402774:	462b      	mov	r3, r5
  402776:	4629      	mov	r1, r5
  402778:	f000 facc 	bl	402d14 <__adddf3>
  40277c:	4604      	mov	r4, r0
  40277e:	4620      	mov	r0, r4
  402780:	e8bd 8ff8 	ldmia.w	sp!, {r3, r4, r5, r6, r7, r8, r9, sl, fp, pc}
  402784:	a35a      	add	r3, pc, #360	; (adr r3, 4028f0 <atan+0x300>)
  402786:	e9d3 2300 	ldrd	r2, r3, [r3]
  40278a:	f000 fac3 	bl	402d14 <__adddf3>
  40278e:	2200      	movs	r2, #0
  402790:	4b61      	ldr	r3, [pc, #388]	; (402918 <atan+0x328>)
  402792:	f000 ff01 	bl	403598 <__aeabi_dcmpgt>
  402796:	2800      	cmp	r0, #0
  402798:	f43f af4d 	beq.w	402636 <atan+0x46>
  40279c:	4629      	mov	r1, r5
  40279e:	4620      	mov	r0, r4
  4027a0:	e8bd 8ff8 	ldmia.w	sp!, {r3, r4, r5, r6, r7, r8, r9, sl, fp, pc}
  4027a4:	f000 f8c2 	bl	40292c <fabs>
  4027a8:	4b5c      	ldr	r3, [pc, #368]	; (40291c <atan+0x32c>)
  4027aa:	429e      	cmp	r6, r3
  4027ac:	4604      	mov	r4, r0
  4027ae:	460d      	mov	r5, r1
  4027b0:	dc2f      	bgt.n	402812 <atan+0x222>
  4027b2:	f5a3 2350 	sub.w	r3, r3, #851968	; 0xd0000
  4027b6:	429e      	cmp	r6, r3
  4027b8:	dc54      	bgt.n	402864 <atan+0x274>
  4027ba:	4602      	mov	r2, r0
  4027bc:	460b      	mov	r3, r1
  4027be:	f000 faa9 	bl	402d14 <__adddf3>
  4027c2:	2200      	movs	r2, #0
  4027c4:	4b54      	ldr	r3, [pc, #336]	; (402918 <atan+0x328>)
  4027c6:	f000 faa3 	bl	402d10 <__aeabi_dsub>
  4027ca:	2200      	movs	r2, #0
  4027cc:	4606      	mov	r6, r0
  4027ce:	460f      	mov	r7, r1
  4027d0:	f04f 4380 	mov.w	r3, #1073741824	; 0x40000000
  4027d4:	4620      	mov	r0, r4
  4027d6:	4629      	mov	r1, r5
  4027d8:	f000 fa9c 	bl	402d14 <__adddf3>
  4027dc:	4602      	mov	r2, r0
  4027de:	460b      	mov	r3, r1
  4027e0:	4630      	mov	r0, r6
  4027e2:	4639      	mov	r1, r7
  4027e4:	f000 fd72 	bl	4032cc <__aeabi_ddiv>
  4027e8:	f04f 0b00 	mov.w	fp, #0
  4027ec:	4604      	mov	r4, r0
  4027ee:	460d      	mov	r5, r1
  4027f0:	e723      	b.n	40263a <atan+0x4a>
  4027f2:	4640      	mov	r0, r8
  4027f4:	4649      	mov	r1, r9
  4027f6:	f000 fa8d 	bl	402d14 <__adddf3>
  4027fa:	4622      	mov	r2, r4
  4027fc:	462b      	mov	r3, r5
  4027fe:	f000 fc3b 	bl	403078 <__aeabi_dmul>
  402802:	4602      	mov	r2, r0
  402804:	460b      	mov	r3, r1
  402806:	4620      	mov	r0, r4
  402808:	4629      	mov	r1, r5
  40280a:	f000 fa81 	bl	402d10 <__aeabi_dsub>
  40280e:	4604      	mov	r4, r0
  402810:	e705      	b.n	40261e <atan+0x2e>
  402812:	4b43      	ldr	r3, [pc, #268]	; (402920 <atan+0x330>)
  402814:	429e      	cmp	r6, r3
  402816:	dc1a      	bgt.n	40284e <atan+0x25e>
  402818:	2200      	movs	r2, #0
  40281a:	4b42      	ldr	r3, [pc, #264]	; (402924 <atan+0x334>)
  40281c:	f000 fa78 	bl	402d10 <__aeabi_dsub>
  402820:	2200      	movs	r2, #0
  402822:	4606      	mov	r6, r0
  402824:	460f      	mov	r7, r1
  402826:	4b3f      	ldr	r3, [pc, #252]	; (402924 <atan+0x334>)
  402828:	4620      	mov	r0, r4
  40282a:	4629      	mov	r1, r5
  40282c:	f000 fc24 	bl	403078 <__aeabi_dmul>
  402830:	2200      	movs	r2, #0
  402832:	4b39      	ldr	r3, [pc, #228]	; (402918 <atan+0x328>)
  402834:	f000 fa6e 	bl	402d14 <__adddf3>
  402838:	4602      	mov	r2, r0
  40283a:	460b      	mov	r3, r1
  40283c:	4630      	mov	r0, r6
  40283e:	4639      	mov	r1, r7
  402840:	f000 fd44 	bl	4032cc <__aeabi_ddiv>
  402844:	f04f 0b02 	mov.w	fp, #2
  402848:	4604      	mov	r4, r0
  40284a:	460d      	mov	r5, r1
  40284c:	e6f5      	b.n	40263a <atan+0x4a>
  40284e:	4602      	mov	r2, r0
  402850:	460b      	mov	r3, r1
  402852:	2000      	movs	r0, #0
  402854:	4934      	ldr	r1, [pc, #208]	; (402928 <atan+0x338>)
  402856:	f000 fd39 	bl	4032cc <__aeabi_ddiv>
  40285a:	f04f 0b03 	mov.w	fp, #3
  40285e:	4604      	mov	r4, r0
  402860:	460d      	mov	r5, r1
  402862:	e6ea      	b.n	40263a <atan+0x4a>
  402864:	2200      	movs	r2, #0
  402866:	4b2c      	ldr	r3, [pc, #176]	; (402918 <atan+0x328>)
  402868:	f000 fa52 	bl	402d10 <__aeabi_dsub>
  40286c:	2200      	movs	r2, #0
  40286e:	4606      	mov	r6, r0
  402870:	460f      	mov	r7, r1
  402872:	4b29      	ldr	r3, [pc, #164]	; (402918 <atan+0x328>)
  402874:	4620      	mov	r0, r4
  402876:	4629      	mov	r1, r5
  402878:	f000 fa4c 	bl	402d14 <__adddf3>
  40287c:	4602      	mov	r2, r0
  40287e:	460b      	mov	r3, r1
  402880:	4630      	mov	r0, r6
  402882:	4639      	mov	r1, r7
  402884:	f000 fd22 	bl	4032cc <__aeabi_ddiv>
  402888:	f04f 0b01 	mov.w	fp, #1
  40288c:	4604      	mov	r4, r0
  40288e:	460d      	mov	r5, r1
  402890:	e6d3      	b.n	40263a <atan+0x4a>
  402892:	bf00      	nop
  402894:	f3af 8000 	nop.w
  402898:	e322da11 	.word	0xe322da11
  40289c:	3f90ad3a 	.word	0x3f90ad3a
  4028a0:	24760deb 	.word	0x24760deb
  4028a4:	3fa97b4b 	.word	0x3fa97b4b
  4028a8:	a0d03d51 	.word	0xa0d03d51
  4028ac:	3fb10d66 	.word	0x3fb10d66
  4028b0:	c54c206e 	.word	0xc54c206e
  4028b4:	3fb745cd 	.word	0x3fb745cd
  4028b8:	920083ff 	.word	0x920083ff
  4028bc:	3fc24924 	.word	0x3fc24924
  4028c0:	5555550d 	.word	0x5555550d
  4028c4:	3fd55555 	.word	0x3fd55555
  4028c8:	2c6a6c2f 	.word	0x2c6a6c2f
  4028cc:	bfa2b444 	.word	0xbfa2b444
  4028d0:	52defd9a 	.word	0x52defd9a
  4028d4:	3fadde2d 	.word	0x3fadde2d
  4028d8:	af749a6d 	.word	0xaf749a6d
  4028dc:	3fb3b0f2 	.word	0x3fb3b0f2
  4028e0:	fe231671 	.word	0xfe231671
  4028e4:	3fbc71c6 	.word	0x3fbc71c6
  4028e8:	9998ebc4 	.word	0x9998ebc4
  4028ec:	3fc99999 	.word	0x3fc99999
  4028f0:	8800759c 	.word	0x8800759c
  4028f4:	7e37e43c 	.word	0x7e37e43c
  4028f8:	440fffff 	.word	0x440fffff
  4028fc:	7ff00000 	.word	0x7ff00000
  402900:	3ff921fb 	.word	0x3ff921fb
  402904:	bff921fb 	.word	0xbff921fb
  402908:	54442d18 	.word	0x54442d18
  40290c:	3fdbffff 	.word	0x3fdbffff
  402910:	004065b0 	.word	0x004065b0
  402914:	00406590 	.word	0x00406590
  402918:	3ff00000 	.word	0x3ff00000
  40291c:	3ff2ffff 	.word	0x3ff2ffff
  402920:	40037fff 	.word	0x40037fff
  402924:	3ff80000 	.word	0x3ff80000
  402928:	bff00000 	.word	0xbff00000

0040292c <fabs>:
  40292c:	f021 4100 	bic.w	r1, r1, #2147483648	; 0x80000000
  402930:	4770      	bx	lr
  402932:	bf00      	nop

00402934 <atan2>:
  402934:	f000 b85c 	b.w	4029f0 <__ieee754_atan2>

00402938 <sqrt>:
  402938:	e92d 4ff0 	stmdb	sp!, {r4, r5, r6, r7, r8, r9, sl, fp, lr}
  40293c:	b08b      	sub	sp, #44	; 0x2c
  40293e:	4604      	mov	r4, r0
  402940:	460d      	mov	r5, r1
  402942:	f000 f91f 	bl	402b84 <__ieee754_sqrt>
  402946:	4b28      	ldr	r3, [pc, #160]	; (4029e8 <sqrt+0xb0>)
  402948:	f993 a000 	ldrsb.w	sl, [r3]
  40294c:	f1ba 3fff 	cmp.w	sl, #4294967295
  402950:	4606      	mov	r6, r0
  402952:	460f      	mov	r7, r1
  402954:	d012      	beq.n	40297c <sqrt+0x44>
  402956:	4622      	mov	r2, r4
  402958:	462b      	mov	r3, r5
  40295a:	4620      	mov	r0, r4
  40295c:	4629      	mov	r1, r5
  40295e:	f000 fe25 	bl	4035ac <__aeabi_dcmpun>
  402962:	4683      	mov	fp, r0
  402964:	b950      	cbnz	r0, 40297c <sqrt+0x44>
  402966:	f04f 0800 	mov.w	r8, #0
  40296a:	f04f 0900 	mov.w	r9, #0
  40296e:	4642      	mov	r2, r8
  402970:	464b      	mov	r3, r9
  402972:	4620      	mov	r0, r4
  402974:	4629      	mov	r1, r5
  402976:	f000 fdf1 	bl	40355c <__aeabi_dcmplt>
  40297a:	b920      	cbnz	r0, 402986 <sqrt+0x4e>
  40297c:	4630      	mov	r0, r6
  40297e:	4639      	mov	r1, r7
  402980:	b00b      	add	sp, #44	; 0x2c
  402982:	e8bd 8ff0 	ldmia.w	sp!, {r4, r5, r6, r7, r8, r9, sl, fp, pc}
  402986:	4b19      	ldr	r3, [pc, #100]	; (4029ec <sqrt+0xb4>)
  402988:	f8cd b020 	str.w	fp, [sp, #32]
  40298c:	2201      	movs	r2, #1
  40298e:	e9cd 4504 	strd	r4, r5, [sp, #16]
  402992:	e9cd 4502 	strd	r4, r5, [sp, #8]
  402996:	e88d 000c 	stmia.w	sp, {r2, r3}
  40299a:	f1ba 0f00 	cmp.w	sl, #0
  40299e:	d015      	beq.n	4029cc <sqrt+0x94>
  4029a0:	4642      	mov	r2, r8
  4029a2:	464b      	mov	r3, r9
  4029a4:	4640      	mov	r0, r8
  4029a6:	4649      	mov	r1, r9
  4029a8:	f000 fc90 	bl	4032cc <__aeabi_ddiv>
  4029ac:	f1ba 0f02 	cmp.w	sl, #2
  4029b0:	e9cd 0106 	strd	r0, r1, [sp, #24]
  4029b4:	d10c      	bne.n	4029d0 <sqrt+0x98>
  4029b6:	f000 feab 	bl	403710 <__errno>
  4029ba:	2321      	movs	r3, #33	; 0x21
  4029bc:	6003      	str	r3, [r0, #0]
  4029be:	9b08      	ldr	r3, [sp, #32]
  4029c0:	b963      	cbnz	r3, 4029dc <sqrt+0xa4>
  4029c2:	e9dd 0106 	ldrd	r0, r1, [sp, #24]
  4029c6:	b00b      	add	sp, #44	; 0x2c
  4029c8:	e8bd 8ff0 	ldmia.w	sp!, {r4, r5, r6, r7, r8, r9, sl, fp, pc}
  4029cc:	e9cd 8906 	strd	r8, r9, [sp, #24]
  4029d0:	4668      	mov	r0, sp
  4029d2:	f000 f997 	bl	402d04 <matherr>
  4029d6:	2800      	cmp	r0, #0
  4029d8:	d1f1      	bne.n	4029be <sqrt+0x86>
  4029da:	e7ec      	b.n	4029b6 <sqrt+0x7e>
  4029dc:	f000 fe98 	bl	403710 <__errno>
  4029e0:	9b08      	ldr	r3, [sp, #32]
  4029e2:	6003      	str	r3, [r0, #0]
  4029e4:	e7ed      	b.n	4029c2 <sqrt+0x8a>
  4029e6:	bf00      	nop
  4029e8:	20400008 	.word	0x20400008
  4029ec:	004065d0 	.word	0x004065d0

004029f0 <__ieee754_atan2>:
  4029f0:	e92d 4ff8 	stmdb	sp!, {r3, r4, r5, r6, r7, r8, r9, sl, fp, lr}
  4029f4:	4254      	negs	r4, r2
  4029f6:	4314      	orrs	r4, r2
  4029f8:	f023 4900 	bic.w	r9, r3, #2147483648	; 0x80000000
  4029fc:	f8df e180 	ldr.w	lr, [pc, #384]	; 402b80 <__ieee754_atan2+0x190>
  402a00:	ea49 74d4 	orr.w	r4, r9, r4, lsr #31
  402a04:	4574      	cmp	r4, lr
  402a06:	4606      	mov	r6, r0
  402a08:	460d      	mov	r5, r1
  402a0a:	d83e      	bhi.n	402a8a <__ieee754_atan2+0x9a>
  402a0c:	4244      	negs	r4, r0
  402a0e:	4304      	orrs	r4, r0
  402a10:	f021 4b00 	bic.w	fp, r1, #2147483648	; 0x80000000
  402a14:	ea4b 74d4 	orr.w	r4, fp, r4, lsr #31
  402a18:	4574      	cmp	r4, lr
  402a1a:	468a      	mov	sl, r1
  402a1c:	d835      	bhi.n	402a8a <__ieee754_atan2+0x9a>
  402a1e:	f103 4440 	add.w	r4, r3, #3221225472	; 0xc0000000
  402a22:	f504 1480 	add.w	r4, r4, #1048576	; 0x100000
  402a26:	4314      	orrs	r4, r2
  402a28:	d044      	beq.n	402ab4 <__ieee754_atan2+0xc4>
  402a2a:	179c      	asrs	r4, r3, #30
  402a2c:	f004 0402 	and.w	r4, r4, #2
  402a30:	ea44 74d1 	orr.w	r4, r4, r1, lsr #31
  402a34:	ea50 010b 	orrs.w	r1, r0, fp
  402a38:	d02f      	beq.n	402a9a <__ieee754_atan2+0xaa>
  402a3a:	ea52 0109 	orrs.w	r1, r2, r9
  402a3e:	d033      	beq.n	402aa8 <__ieee754_atan2+0xb8>
  402a40:	45f1      	cmp	r9, lr
  402a42:	d046      	beq.n	402ad2 <__ieee754_atan2+0xe2>
  402a44:	45f3      	cmp	fp, lr
  402a46:	d02f      	beq.n	402aa8 <__ieee754_atan2+0xb8>
  402a48:	ebc9 090b 	rsb	r9, r9, fp
  402a4c:	ea4f 5929 	mov.w	r9, r9, asr #20
  402a50:	f1b9 0f3c 	cmp.w	r9, #60	; 0x3c
  402a54:	dc34      	bgt.n	402ac0 <__ieee754_atan2+0xd0>
  402a56:	2b00      	cmp	r3, #0
  402a58:	db57      	blt.n	402b0a <__ieee754_atan2+0x11a>
  402a5a:	4630      	mov	r0, r6
  402a5c:	4629      	mov	r1, r5
  402a5e:	f000 fc35 	bl	4032cc <__aeabi_ddiv>
  402a62:	f7ff ff63 	bl	40292c <fabs>
  402a66:	f7ff fdc3 	bl	4025f0 <atan>
  402a6a:	2c01      	cmp	r4, #1
  402a6c:	d04a      	beq.n	402b04 <__ieee754_atan2+0x114>
  402a6e:	2c02      	cmp	r4, #2
  402a70:	d03b      	beq.n	402aea <__ieee754_atan2+0xfa>
  402a72:	b184      	cbz	r4, 402a96 <__ieee754_atan2+0xa6>
  402a74:	a332      	add	r3, pc, #200	; (adr r3, 402b40 <__ieee754_atan2+0x150>)
  402a76:	e9d3 2300 	ldrd	r2, r3, [r3]
  402a7a:	f000 f949 	bl	402d10 <__aeabi_dsub>
  402a7e:	a332      	add	r3, pc, #200	; (adr r3, 402b48 <__ieee754_atan2+0x158>)
  402a80:	e9d3 2300 	ldrd	r2, r3, [r3]
  402a84:	f000 f944 	bl	402d10 <__aeabi_dsub>
  402a88:	e005      	b.n	402a96 <__ieee754_atan2+0xa6>
  402a8a:	4610      	mov	r0, r2
  402a8c:	4619      	mov	r1, r3
  402a8e:	4632      	mov	r2, r6
  402a90:	462b      	mov	r3, r5
  402a92:	f000 f93f 	bl	402d14 <__adddf3>
  402a96:	e8bd 8ff8 	ldmia.w	sp!, {r3, r4, r5, r6, r7, r8, r9, sl, fp, pc}
  402a9a:	2c02      	cmp	r4, #2
  402a9c:	d014      	beq.n	402ac8 <__ieee754_atan2+0xd8>
  402a9e:	2c03      	cmp	r4, #3
  402aa0:	d10c      	bne.n	402abc <__ieee754_atan2+0xcc>
  402aa2:	482d      	ldr	r0, [pc, #180]	; (402b58 <__ieee754_atan2+0x168>)
  402aa4:	492d      	ldr	r1, [pc, #180]	; (402b5c <__ieee754_atan2+0x16c>)
  402aa6:	e7f6      	b.n	402a96 <__ieee754_atan2+0xa6>
  402aa8:	f1ba 0f00 	cmp.w	sl, #0
  402aac:	482a      	ldr	r0, [pc, #168]	; (402b58 <__ieee754_atan2+0x168>)
  402aae:	db0e      	blt.n	402ace <__ieee754_atan2+0xde>
  402ab0:	492b      	ldr	r1, [pc, #172]	; (402b60 <__ieee754_atan2+0x170>)
  402ab2:	e7f0      	b.n	402a96 <__ieee754_atan2+0xa6>
  402ab4:	e8bd 4ff8 	ldmia.w	sp!, {r3, r4, r5, r6, r7, r8, r9, sl, fp, lr}
  402ab8:	f7ff bd9a 	b.w	4025f0 <atan>
  402abc:	4629      	mov	r1, r5
  402abe:	e7ea      	b.n	402a96 <__ieee754_atan2+0xa6>
  402ac0:	a123      	add	r1, pc, #140	; (adr r1, 402b50 <__ieee754_atan2+0x160>)
  402ac2:	e9d1 0100 	ldrd	r0, r1, [r1]
  402ac6:	e7d0      	b.n	402a6a <__ieee754_atan2+0x7a>
  402ac8:	4823      	ldr	r0, [pc, #140]	; (402b58 <__ieee754_atan2+0x168>)
  402aca:	4926      	ldr	r1, [pc, #152]	; (402b64 <__ieee754_atan2+0x174>)
  402acc:	e7e3      	b.n	402a96 <__ieee754_atan2+0xa6>
  402ace:	4926      	ldr	r1, [pc, #152]	; (402b68 <__ieee754_atan2+0x178>)
  402ad0:	e7e1      	b.n	402a96 <__ieee754_atan2+0xa6>
  402ad2:	45cb      	cmp	fp, r9
  402ad4:	d01f      	beq.n	402b16 <__ieee754_atan2+0x126>
  402ad6:	2c02      	cmp	r4, #2
  402ad8:	d0f6      	beq.n	402ac8 <__ieee754_atan2+0xd8>
  402ada:	2c03      	cmp	r4, #3
  402adc:	d0e1      	beq.n	402aa2 <__ieee754_atan2+0xb2>
  402ade:	2c01      	cmp	r4, #1
  402ae0:	f04f 0000 	mov.w	r0, #0
  402ae4:	d020      	beq.n	402b28 <__ieee754_atan2+0x138>
  402ae6:	4601      	mov	r1, r0
  402ae8:	e7d5      	b.n	402a96 <__ieee754_atan2+0xa6>
  402aea:	a315      	add	r3, pc, #84	; (adr r3, 402b40 <__ieee754_atan2+0x150>)
  402aec:	e9d3 2300 	ldrd	r2, r3, [r3]
  402af0:	f000 f90e 	bl	402d10 <__aeabi_dsub>
  402af4:	4602      	mov	r2, r0
  402af6:	460b      	mov	r3, r1
  402af8:	a113      	add	r1, pc, #76	; (adr r1, 402b48 <__ieee754_atan2+0x158>)
  402afa:	e9d1 0100 	ldrd	r0, r1, [r1]
  402afe:	f000 f907 	bl	402d10 <__aeabi_dsub>
  402b02:	e7c8      	b.n	402a96 <__ieee754_atan2+0xa6>
  402b04:	f101 4100 	add.w	r1, r1, #2147483648	; 0x80000000
  402b08:	e7c5      	b.n	402a96 <__ieee754_atan2+0xa6>
  402b0a:	f119 0f3c 	cmn.w	r9, #60	; 0x3c
  402b0e:	daa4      	bge.n	402a5a <__ieee754_atan2+0x6a>
  402b10:	2000      	movs	r0, #0
  402b12:	2100      	movs	r1, #0
  402b14:	e7a9      	b.n	402a6a <__ieee754_atan2+0x7a>
  402b16:	2c02      	cmp	r4, #2
  402b18:	d00e      	beq.n	402b38 <__ieee754_atan2+0x148>
  402b1a:	2c03      	cmp	r4, #3
  402b1c:	d009      	beq.n	402b32 <__ieee754_atan2+0x142>
  402b1e:	2c01      	cmp	r4, #1
  402b20:	480d      	ldr	r0, [pc, #52]	; (402b58 <__ieee754_atan2+0x168>)
  402b22:	d004      	beq.n	402b2e <__ieee754_atan2+0x13e>
  402b24:	4911      	ldr	r1, [pc, #68]	; (402b6c <__ieee754_atan2+0x17c>)
  402b26:	e7b6      	b.n	402a96 <__ieee754_atan2+0xa6>
  402b28:	f04f 4100 	mov.w	r1, #2147483648	; 0x80000000
  402b2c:	e7b3      	b.n	402a96 <__ieee754_atan2+0xa6>
  402b2e:	4910      	ldr	r1, [pc, #64]	; (402b70 <__ieee754_atan2+0x180>)
  402b30:	e7b1      	b.n	402a96 <__ieee754_atan2+0xa6>
  402b32:	4810      	ldr	r0, [pc, #64]	; (402b74 <__ieee754_atan2+0x184>)
  402b34:	4910      	ldr	r1, [pc, #64]	; (402b78 <__ieee754_atan2+0x188>)
  402b36:	e7ae      	b.n	402a96 <__ieee754_atan2+0xa6>
  402b38:	480e      	ldr	r0, [pc, #56]	; (402b74 <__ieee754_atan2+0x184>)
  402b3a:	4910      	ldr	r1, [pc, #64]	; (402b7c <__ieee754_atan2+0x18c>)
  402b3c:	e7ab      	b.n	402a96 <__ieee754_atan2+0xa6>
  402b3e:	bf00      	nop
  402b40:	33145c07 	.word	0x33145c07
  402b44:	3ca1a626 	.word	0x3ca1a626
  402b48:	54442d18 	.word	0x54442d18
  402b4c:	400921fb 	.word	0x400921fb
  402b50:	54442d18 	.word	0x54442d18
  402b54:	3ff921fb 	.word	0x3ff921fb
  402b58:	54442d18 	.word	0x54442d18
  402b5c:	c00921fb 	.word	0xc00921fb
  402b60:	3ff921fb 	.word	0x3ff921fb
  402b64:	400921fb 	.word	0x400921fb
  402b68:	bff921fb 	.word	0xbff921fb
  402b6c:	3fe921fb 	.word	0x3fe921fb
  402b70:	bfe921fb 	.word	0xbfe921fb
  402b74:	7f3321d2 	.word	0x7f3321d2
  402b78:	c002d97c 	.word	0xc002d97c
  402b7c:	4002d97c 	.word	0x4002d97c
  402b80:	7ff00000 	.word	0x7ff00000

00402b84 <__ieee754_sqrt>:
  402b84:	e92d 43f8 	stmdb	sp!, {r3, r4, r5, r6, r7, r8, r9, lr}
  402b88:	4e5d      	ldr	r6, [pc, #372]	; (402d00 <__ieee754_sqrt+0x17c>)
  402b8a:	46b6      	mov	lr, r6
  402b8c:	400e      	ands	r6, r1
  402b8e:	4576      	cmp	r6, lr
  402b90:	460c      	mov	r4, r1
  402b92:	4605      	mov	r5, r0
  402b94:	f000 8095 	beq.w	402cc2 <__ieee754_sqrt+0x13e>
  402b98:	2900      	cmp	r1, #0
  402b9a:	460b      	mov	r3, r1
  402b9c:	4602      	mov	r2, r0
  402b9e:	dd73      	ble.n	402c88 <__ieee754_sqrt+0x104>
  402ba0:	150f      	asrs	r7, r1, #20
  402ba2:	d07e      	beq.n	402ca2 <__ieee754_sqrt+0x11e>
  402ba4:	f2a7 37ff 	subw	r7, r7, #1023	; 0x3ff
  402ba8:	f3c3 0313 	ubfx	r3, r3, #0, #20
  402bac:	07f8      	lsls	r0, r7, #31
  402bae:	f443 1380 	orr.w	r3, r3, #1048576	; 0x100000
  402bb2:	d464      	bmi.n	402c7e <__ieee754_sqrt+0xfa>
  402bb4:	eb03 71d2 	add.w	r1, r3, r2, lsr #31
  402bb8:	2600      	movs	r6, #0
  402bba:	440b      	add	r3, r1
  402bbc:	107f      	asrs	r7, r7, #1
  402bbe:	0052      	lsls	r2, r2, #1
  402bc0:	46b6      	mov	lr, r6
  402bc2:	2016      	movs	r0, #22
  402bc4:	f44f 1100 	mov.w	r1, #2097152	; 0x200000
  402bc8:	eb0e 0401 	add.w	r4, lr, r1
  402bcc:	429c      	cmp	r4, r3
  402bce:	ea4f 75d2 	mov.w	r5, r2, lsr #31
  402bd2:	ea4f 0242 	mov.w	r2, r2, lsl #1
  402bd6:	dc03      	bgt.n	402be0 <__ieee754_sqrt+0x5c>
  402bd8:	1b1b      	subs	r3, r3, r4
  402bda:	eb04 0e01 	add.w	lr, r4, r1
  402bde:	440e      	add	r6, r1
  402be0:	3801      	subs	r0, #1
  402be2:	eb05 0343 	add.w	r3, r5, r3, lsl #1
  402be6:	ea4f 0151 	mov.w	r1, r1, lsr #1
  402bea:	d1ed      	bne.n	402bc8 <__ieee754_sqrt+0x44>
  402bec:	4684      	mov	ip, r0
  402bee:	2420      	movs	r4, #32
  402bf0:	f04f 4100 	mov.w	r1, #2147483648	; 0x80000000
  402bf4:	e009      	b.n	402c0a <__ieee754_sqrt+0x86>
  402bf6:	d020      	beq.n	402c3a <__ieee754_sqrt+0xb6>
  402bf8:	eb03 75d2 	add.w	r5, r3, r2, lsr #31
  402bfc:	3c01      	subs	r4, #1
  402bfe:	ea4f 0151 	mov.w	r1, r1, lsr #1
  402c02:	442b      	add	r3, r5
  402c04:	ea4f 0242 	mov.w	r2, r2, lsl #1
  402c08:	d020      	beq.n	402c4c <__ieee754_sqrt+0xc8>
  402c0a:	459e      	cmp	lr, r3
  402c0c:	eb01 050c 	add.w	r5, r1, ip
  402c10:	daf1      	bge.n	402bf6 <__ieee754_sqrt+0x72>
  402c12:	2d00      	cmp	r5, #0
  402c14:	eb05 0c01 	add.w	ip, r5, r1
  402c18:	db09      	blt.n	402c2e <__ieee754_sqrt+0xaa>
  402c1a:	46f0      	mov	r8, lr
  402c1c:	4295      	cmp	r5, r2
  402c1e:	ebce 0303 	rsb	r3, lr, r3
  402c22:	d900      	bls.n	402c26 <__ieee754_sqrt+0xa2>
  402c24:	3b01      	subs	r3, #1
  402c26:	1b52      	subs	r2, r2, r5
  402c28:	4408      	add	r0, r1
  402c2a:	46c6      	mov	lr, r8
  402c2c:	e7e4      	b.n	402bf8 <__ieee754_sqrt+0x74>
  402c2e:	f1bc 0f00 	cmp.w	ip, #0
  402c32:	dbf2      	blt.n	402c1a <__ieee754_sqrt+0x96>
  402c34:	f10e 0801 	add.w	r8, lr, #1
  402c38:	e7f0      	b.n	402c1c <__ieee754_sqrt+0x98>
  402c3a:	4295      	cmp	r5, r2
  402c3c:	d817      	bhi.n	402c6e <__ieee754_sqrt+0xea>
  402c3e:	2d00      	cmp	r5, #0
  402c40:	eb05 0c01 	add.w	ip, r5, r1
  402c44:	db47      	blt.n	402cd6 <__ieee754_sqrt+0x152>
  402c46:	4698      	mov	r8, r3
  402c48:	2300      	movs	r3, #0
  402c4a:	e7ec      	b.n	402c26 <__ieee754_sqrt+0xa2>
  402c4c:	4313      	orrs	r3, r2
  402c4e:	d110      	bne.n	402c72 <__ieee754_sqrt+0xee>
  402c50:	0840      	lsrs	r0, r0, #1
  402c52:	1073      	asrs	r3, r6, #1
  402c54:	f103 537f 	add.w	r3, r3, #1069547520	; 0x3fc00000
  402c58:	f503 1300 	add.w	r3, r3, #2097152	; 0x200000
  402c5c:	07f2      	lsls	r2, r6, #31
  402c5e:	eb03 5907 	add.w	r9, r3, r7, lsl #20
  402c62:	bf48      	it	mi
  402c64:	f040 4000 	orrmi.w	r0, r0, #2147483648	; 0x80000000
  402c68:	4649      	mov	r1, r9
  402c6a:	e8bd 83f8 	ldmia.w	sp!, {r3, r4, r5, r6, r7, r8, r9, pc}
  402c6e:	4673      	mov	r3, lr
  402c70:	e7c2      	b.n	402bf8 <__ieee754_sqrt+0x74>
  402c72:	1c41      	adds	r1, r0, #1
  402c74:	d033      	beq.n	402cde <__ieee754_sqrt+0x15a>
  402c76:	f000 0301 	and.w	r3, r0, #1
  402c7a:	4418      	add	r0, r3
  402c7c:	e7e8      	b.n	402c50 <__ieee754_sqrt+0xcc>
  402c7e:	005b      	lsls	r3, r3, #1
  402c80:	eb03 73d2 	add.w	r3, r3, r2, lsr #31
  402c84:	0052      	lsls	r2, r2, #1
  402c86:	e795      	b.n	402bb4 <__ieee754_sqrt+0x30>
  402c88:	f021 4600 	bic.w	r6, r1, #2147483648	; 0x80000000
  402c8c:	4306      	orrs	r6, r0
  402c8e:	d0ec      	beq.n	402c6a <__ieee754_sqrt+0xe6>
  402c90:	bb69      	cbnz	r1, 402cee <__ieee754_sqrt+0x16a>
  402c92:	460f      	mov	r7, r1
  402c94:	0ad3      	lsrs	r3, r2, #11
  402c96:	3f15      	subs	r7, #21
  402c98:	0552      	lsls	r2, r2, #21
  402c9a:	2b00      	cmp	r3, #0
  402c9c:	d0fa      	beq.n	402c94 <__ieee754_sqrt+0x110>
  402c9e:	02dd      	lsls	r5, r3, #11
  402ca0:	d420      	bmi.n	402ce4 <__ieee754_sqrt+0x160>
  402ca2:	2100      	movs	r1, #0
  402ca4:	e000      	b.n	402ca8 <__ieee754_sqrt+0x124>
  402ca6:	4601      	mov	r1, r0
  402ca8:	005b      	lsls	r3, r3, #1
  402caa:	02dc      	lsls	r4, r3, #11
  402cac:	f101 0001 	add.w	r0, r1, #1
  402cb0:	d5f9      	bpl.n	402ca6 <__ieee754_sqrt+0x122>
  402cb2:	f1c0 0420 	rsb	r4, r0, #32
  402cb6:	fa22 f404 	lsr.w	r4, r2, r4
  402cba:	4323      	orrs	r3, r4
  402cbc:	1a7f      	subs	r7, r7, r1
  402cbe:	4082      	lsls	r2, r0
  402cc0:	e770      	b.n	402ba4 <__ieee754_sqrt+0x20>
  402cc2:	4602      	mov	r2, r0
  402cc4:	460b      	mov	r3, r1
  402cc6:	f000 f9d7 	bl	403078 <__aeabi_dmul>
  402cca:	462a      	mov	r2, r5
  402ccc:	4623      	mov	r3, r4
  402cce:	f000 f821 	bl	402d14 <__adddf3>
  402cd2:	e8bd 83f8 	ldmia.w	sp!, {r3, r4, r5, r6, r7, r8, r9, pc}
  402cd6:	f1bc 0f00 	cmp.w	ip, #0
  402cda:	daab      	bge.n	402c34 <__ieee754_sqrt+0xb0>
  402cdc:	e7b3      	b.n	402c46 <__ieee754_sqrt+0xc2>
  402cde:	3601      	adds	r6, #1
  402ce0:	4620      	mov	r0, r4
  402ce2:	e7b6      	b.n	402c52 <__ieee754_sqrt+0xce>
  402ce4:	2420      	movs	r4, #32
  402ce6:	f04f 31ff 	mov.w	r1, #4294967295
  402cea:	2000      	movs	r0, #0
  402cec:	e7e3      	b.n	402cb6 <__ieee754_sqrt+0x132>
  402cee:	4602      	mov	r2, r0
  402cf0:	460b      	mov	r3, r1
  402cf2:	f000 f80d 	bl	402d10 <__aeabi_dsub>
  402cf6:	4602      	mov	r2, r0
  402cf8:	460b      	mov	r3, r1
  402cfa:	f000 fae7 	bl	4032cc <__aeabi_ddiv>
  402cfe:	e7b4      	b.n	402c6a <__ieee754_sqrt+0xe6>
  402d00:	7ff00000 	.word	0x7ff00000

00402d04 <matherr>:
  402d04:	2000      	movs	r0, #0
  402d06:	4770      	bx	lr

00402d08 <__aeabi_drsub>:
  402d08:	f081 4100 	eor.w	r1, r1, #2147483648	; 0x80000000
  402d0c:	e002      	b.n	402d14 <__adddf3>
  402d0e:	bf00      	nop

00402d10 <__aeabi_dsub>:
  402d10:	f083 4300 	eor.w	r3, r3, #2147483648	; 0x80000000

00402d14 <__adddf3>:
  402d14:	b530      	push	{r4, r5, lr}
  402d16:	ea4f 0441 	mov.w	r4, r1, lsl #1
  402d1a:	ea4f 0543 	mov.w	r5, r3, lsl #1
  402d1e:	ea94 0f05 	teq	r4, r5
  402d22:	bf08      	it	eq
  402d24:	ea90 0f02 	teqeq	r0, r2
  402d28:	bf1f      	itttt	ne
  402d2a:	ea54 0c00 	orrsne.w	ip, r4, r0
  402d2e:	ea55 0c02 	orrsne.w	ip, r5, r2
  402d32:	ea7f 5c64 	mvnsne.w	ip, r4, asr #21
  402d36:	ea7f 5c65 	mvnsne.w	ip, r5, asr #21
  402d3a:	f000 80e2 	beq.w	402f02 <__adddf3+0x1ee>
  402d3e:	ea4f 5454 	mov.w	r4, r4, lsr #21
  402d42:	ebd4 5555 	rsbs	r5, r4, r5, lsr #21
  402d46:	bfb8      	it	lt
  402d48:	426d      	neglt	r5, r5
  402d4a:	dd0c      	ble.n	402d66 <__adddf3+0x52>
  402d4c:	442c      	add	r4, r5
  402d4e:	ea80 0202 	eor.w	r2, r0, r2
  402d52:	ea81 0303 	eor.w	r3, r1, r3
  402d56:	ea82 0000 	eor.w	r0, r2, r0
  402d5a:	ea83 0101 	eor.w	r1, r3, r1
  402d5e:	ea80 0202 	eor.w	r2, r0, r2
  402d62:	ea81 0303 	eor.w	r3, r1, r3
  402d66:	2d36      	cmp	r5, #54	; 0x36
  402d68:	bf88      	it	hi
  402d6a:	bd30      	pophi	{r4, r5, pc}
  402d6c:	f011 4f00 	tst.w	r1, #2147483648	; 0x80000000
  402d70:	ea4f 3101 	mov.w	r1, r1, lsl #12
  402d74:	f44f 1c80 	mov.w	ip, #1048576	; 0x100000
  402d78:	ea4c 3111 	orr.w	r1, ip, r1, lsr #12
  402d7c:	d002      	beq.n	402d84 <__adddf3+0x70>
  402d7e:	4240      	negs	r0, r0
  402d80:	eb61 0141 	sbc.w	r1, r1, r1, lsl #1
  402d84:	f013 4f00 	tst.w	r3, #2147483648	; 0x80000000
  402d88:	ea4f 3303 	mov.w	r3, r3, lsl #12
  402d8c:	ea4c 3313 	orr.w	r3, ip, r3, lsr #12
  402d90:	d002      	beq.n	402d98 <__adddf3+0x84>
  402d92:	4252      	negs	r2, r2
  402d94:	eb63 0343 	sbc.w	r3, r3, r3, lsl #1
  402d98:	ea94 0f05 	teq	r4, r5
  402d9c:	f000 80a7 	beq.w	402eee <__adddf3+0x1da>
  402da0:	f1a4 0401 	sub.w	r4, r4, #1
  402da4:	f1d5 0e20 	rsbs	lr, r5, #32
  402da8:	db0d      	blt.n	402dc6 <__adddf3+0xb2>
  402daa:	fa02 fc0e 	lsl.w	ip, r2, lr
  402dae:	fa22 f205 	lsr.w	r2, r2, r5
  402db2:	1880      	adds	r0, r0, r2
  402db4:	f141 0100 	adc.w	r1, r1, #0
  402db8:	fa03 f20e 	lsl.w	r2, r3, lr
  402dbc:	1880      	adds	r0, r0, r2
  402dbe:	fa43 f305 	asr.w	r3, r3, r5
  402dc2:	4159      	adcs	r1, r3
  402dc4:	e00e      	b.n	402de4 <__adddf3+0xd0>
  402dc6:	f1a5 0520 	sub.w	r5, r5, #32
  402dca:	f10e 0e20 	add.w	lr, lr, #32
  402dce:	2a01      	cmp	r2, #1
  402dd0:	fa03 fc0e 	lsl.w	ip, r3, lr
  402dd4:	bf28      	it	cs
  402dd6:	f04c 0c02 	orrcs.w	ip, ip, #2
  402dda:	fa43 f305 	asr.w	r3, r3, r5
  402dde:	18c0      	adds	r0, r0, r3
  402de0:	eb51 71e3 	adcs.w	r1, r1, r3, asr #31
  402de4:	f001 4500 	and.w	r5, r1, #2147483648	; 0x80000000
  402de8:	d507      	bpl.n	402dfa <__adddf3+0xe6>
  402dea:	f04f 0e00 	mov.w	lr, #0
  402dee:	f1dc 0c00 	rsbs	ip, ip, #0
  402df2:	eb7e 0000 	sbcs.w	r0, lr, r0
  402df6:	eb6e 0101 	sbc.w	r1, lr, r1
  402dfa:	f5b1 1f80 	cmp.w	r1, #1048576	; 0x100000
  402dfe:	d31b      	bcc.n	402e38 <__adddf3+0x124>
  402e00:	f5b1 1f00 	cmp.w	r1, #2097152	; 0x200000
  402e04:	d30c      	bcc.n	402e20 <__adddf3+0x10c>
  402e06:	0849      	lsrs	r1, r1, #1
  402e08:	ea5f 0030 	movs.w	r0, r0, rrx
  402e0c:	ea4f 0c3c 	mov.w	ip, ip, rrx
  402e10:	f104 0401 	add.w	r4, r4, #1
  402e14:	ea4f 5244 	mov.w	r2, r4, lsl #21
  402e18:	f512 0f80 	cmn.w	r2, #4194304	; 0x400000
  402e1c:	f080 809a 	bcs.w	402f54 <__adddf3+0x240>
  402e20:	f1bc 4f00 	cmp.w	ip, #2147483648	; 0x80000000
  402e24:	bf08      	it	eq
  402e26:	ea5f 0c50 	movseq.w	ip, r0, lsr #1
  402e2a:	f150 0000 	adcs.w	r0, r0, #0
  402e2e:	eb41 5104 	adc.w	r1, r1, r4, lsl #20
  402e32:	ea41 0105 	orr.w	r1, r1, r5
  402e36:	bd30      	pop	{r4, r5, pc}
  402e38:	ea5f 0c4c 	movs.w	ip, ip, lsl #1
  402e3c:	4140      	adcs	r0, r0
  402e3e:	eb41 0101 	adc.w	r1, r1, r1
  402e42:	f411 1f80 	tst.w	r1, #1048576	; 0x100000
  402e46:	f1a4 0401 	sub.w	r4, r4, #1
  402e4a:	d1e9      	bne.n	402e20 <__adddf3+0x10c>
  402e4c:	f091 0f00 	teq	r1, #0
  402e50:	bf04      	itt	eq
  402e52:	4601      	moveq	r1, r0
  402e54:	2000      	moveq	r0, #0
  402e56:	fab1 f381 	clz	r3, r1
  402e5a:	bf08      	it	eq
  402e5c:	3320      	addeq	r3, #32
  402e5e:	f1a3 030b 	sub.w	r3, r3, #11
  402e62:	f1b3 0220 	subs.w	r2, r3, #32
  402e66:	da0c      	bge.n	402e82 <__adddf3+0x16e>
  402e68:	320c      	adds	r2, #12
  402e6a:	dd08      	ble.n	402e7e <__adddf3+0x16a>
  402e6c:	f102 0c14 	add.w	ip, r2, #20
  402e70:	f1c2 020c 	rsb	r2, r2, #12
  402e74:	fa01 f00c 	lsl.w	r0, r1, ip
  402e78:	fa21 f102 	lsr.w	r1, r1, r2
  402e7c:	e00c      	b.n	402e98 <__adddf3+0x184>
  402e7e:	f102 0214 	add.w	r2, r2, #20
  402e82:	bfd8      	it	le
  402e84:	f1c2 0c20 	rsble	ip, r2, #32
  402e88:	fa01 f102 	lsl.w	r1, r1, r2
  402e8c:	fa20 fc0c 	lsr.w	ip, r0, ip
  402e90:	bfdc      	itt	le
  402e92:	ea41 010c 	orrle.w	r1, r1, ip
  402e96:	4090      	lslle	r0, r2
  402e98:	1ae4      	subs	r4, r4, r3
  402e9a:	bfa2      	ittt	ge
  402e9c:	eb01 5104 	addge.w	r1, r1, r4, lsl #20
  402ea0:	4329      	orrge	r1, r5
  402ea2:	bd30      	popge	{r4, r5, pc}
  402ea4:	ea6f 0404 	mvn.w	r4, r4
  402ea8:	3c1f      	subs	r4, #31
  402eaa:	da1c      	bge.n	402ee6 <__adddf3+0x1d2>
  402eac:	340c      	adds	r4, #12
  402eae:	dc0e      	bgt.n	402ece <__adddf3+0x1ba>
  402eb0:	f104 0414 	add.w	r4, r4, #20
  402eb4:	f1c4 0220 	rsb	r2, r4, #32
  402eb8:	fa20 f004 	lsr.w	r0, r0, r4
  402ebc:	fa01 f302 	lsl.w	r3, r1, r2
  402ec0:	ea40 0003 	orr.w	r0, r0, r3
  402ec4:	fa21 f304 	lsr.w	r3, r1, r4
  402ec8:	ea45 0103 	orr.w	r1, r5, r3
  402ecc:	bd30      	pop	{r4, r5, pc}
  402ece:	f1c4 040c 	rsb	r4, r4, #12
  402ed2:	f1c4 0220 	rsb	r2, r4, #32
  402ed6:	fa20 f002 	lsr.w	r0, r0, r2
  402eda:	fa01 f304 	lsl.w	r3, r1, r4
  402ede:	ea40 0003 	orr.w	r0, r0, r3
  402ee2:	4629      	mov	r1, r5
  402ee4:	bd30      	pop	{r4, r5, pc}
  402ee6:	fa21 f004 	lsr.w	r0, r1, r4
  402eea:	4629      	mov	r1, r5
  402eec:	bd30      	pop	{r4, r5, pc}
  402eee:	f094 0f00 	teq	r4, #0
  402ef2:	f483 1380 	eor.w	r3, r3, #1048576	; 0x100000
  402ef6:	bf06      	itte	eq
  402ef8:	f481 1180 	eoreq.w	r1, r1, #1048576	; 0x100000
  402efc:	3401      	addeq	r4, #1
  402efe:	3d01      	subne	r5, #1
  402f00:	e74e      	b.n	402da0 <__adddf3+0x8c>
  402f02:	ea7f 5c64 	mvns.w	ip, r4, asr #21
  402f06:	bf18      	it	ne
  402f08:	ea7f 5c65 	mvnsne.w	ip, r5, asr #21
  402f0c:	d029      	beq.n	402f62 <__adddf3+0x24e>
  402f0e:	ea94 0f05 	teq	r4, r5
  402f12:	bf08      	it	eq
  402f14:	ea90 0f02 	teqeq	r0, r2
  402f18:	d005      	beq.n	402f26 <__adddf3+0x212>
  402f1a:	ea54 0c00 	orrs.w	ip, r4, r0
  402f1e:	bf04      	itt	eq
  402f20:	4619      	moveq	r1, r3
  402f22:	4610      	moveq	r0, r2
  402f24:	bd30      	pop	{r4, r5, pc}
  402f26:	ea91 0f03 	teq	r1, r3
  402f2a:	bf1e      	ittt	ne
  402f2c:	2100      	movne	r1, #0
  402f2e:	2000      	movne	r0, #0
  402f30:	bd30      	popne	{r4, r5, pc}
  402f32:	ea5f 5c54 	movs.w	ip, r4, lsr #21
  402f36:	d105      	bne.n	402f44 <__adddf3+0x230>
  402f38:	0040      	lsls	r0, r0, #1
  402f3a:	4149      	adcs	r1, r1
  402f3c:	bf28      	it	cs
  402f3e:	f041 4100 	orrcs.w	r1, r1, #2147483648	; 0x80000000
  402f42:	bd30      	pop	{r4, r5, pc}
  402f44:	f514 0480 	adds.w	r4, r4, #4194304	; 0x400000
  402f48:	bf3c      	itt	cc
  402f4a:	f501 1180 	addcc.w	r1, r1, #1048576	; 0x100000
  402f4e:	bd30      	popcc	{r4, r5, pc}
  402f50:	f001 4500 	and.w	r5, r1, #2147483648	; 0x80000000
  402f54:	f045 41fe 	orr.w	r1, r5, #2130706432	; 0x7f000000
  402f58:	f441 0170 	orr.w	r1, r1, #15728640	; 0xf00000
  402f5c:	f04f 0000 	mov.w	r0, #0
  402f60:	bd30      	pop	{r4, r5, pc}
  402f62:	ea7f 5c64 	mvns.w	ip, r4, asr #21
  402f66:	bf1a      	itte	ne
  402f68:	4619      	movne	r1, r3
  402f6a:	4610      	movne	r0, r2
  402f6c:	ea7f 5c65 	mvnseq.w	ip, r5, asr #21
  402f70:	bf1c      	itt	ne
  402f72:	460b      	movne	r3, r1
  402f74:	4602      	movne	r2, r0
  402f76:	ea50 3401 	orrs.w	r4, r0, r1, lsl #12
  402f7a:	bf06      	itte	eq
  402f7c:	ea52 3503 	orrseq.w	r5, r2, r3, lsl #12
  402f80:	ea91 0f03 	teqeq	r1, r3
  402f84:	f441 2100 	orrne.w	r1, r1, #524288	; 0x80000
  402f88:	bd30      	pop	{r4, r5, pc}
  402f8a:	bf00      	nop

00402f8c <__aeabi_ui2d>:
  402f8c:	f090 0f00 	teq	r0, #0
  402f90:	bf04      	itt	eq
  402f92:	2100      	moveq	r1, #0
  402f94:	4770      	bxeq	lr
  402f96:	b530      	push	{r4, r5, lr}
  402f98:	f44f 6480 	mov.w	r4, #1024	; 0x400
  402f9c:	f104 0432 	add.w	r4, r4, #50	; 0x32
  402fa0:	f04f 0500 	mov.w	r5, #0
  402fa4:	f04f 0100 	mov.w	r1, #0
  402fa8:	e750      	b.n	402e4c <__adddf3+0x138>
  402faa:	bf00      	nop

00402fac <__aeabi_i2d>:
  402fac:	f090 0f00 	teq	r0, #0
  402fb0:	bf04      	itt	eq
  402fb2:	2100      	moveq	r1, #0
  402fb4:	4770      	bxeq	lr
  402fb6:	b530      	push	{r4, r5, lr}
  402fb8:	f44f 6480 	mov.w	r4, #1024	; 0x400
  402fbc:	f104 0432 	add.w	r4, r4, #50	; 0x32
  402fc0:	f010 4500 	ands.w	r5, r0, #2147483648	; 0x80000000
  402fc4:	bf48      	it	mi
  402fc6:	4240      	negmi	r0, r0
  402fc8:	f04f 0100 	mov.w	r1, #0
  402fcc:	e73e      	b.n	402e4c <__adddf3+0x138>
  402fce:	bf00      	nop

00402fd0 <__aeabi_f2d>:
  402fd0:	0042      	lsls	r2, r0, #1
  402fd2:	ea4f 01e2 	mov.w	r1, r2, asr #3
  402fd6:	ea4f 0131 	mov.w	r1, r1, rrx
  402fda:	ea4f 7002 	mov.w	r0, r2, lsl #28
  402fde:	bf1f      	itttt	ne
  402fe0:	f012 437f 	andsne.w	r3, r2, #4278190080	; 0xff000000
  402fe4:	f093 4f7f 	teqne	r3, #4278190080	; 0xff000000
  402fe8:	f081 5160 	eorne.w	r1, r1, #939524096	; 0x38000000
  402fec:	4770      	bxne	lr
  402fee:	f092 0f00 	teq	r2, #0
  402ff2:	bf14      	ite	ne
  402ff4:	f093 4f7f 	teqne	r3, #4278190080	; 0xff000000
  402ff8:	4770      	bxeq	lr
  402ffa:	b530      	push	{r4, r5, lr}
  402ffc:	f44f 7460 	mov.w	r4, #896	; 0x380
  403000:	f001 4500 	and.w	r5, r1, #2147483648	; 0x80000000
  403004:	f021 4100 	bic.w	r1, r1, #2147483648	; 0x80000000
  403008:	e720      	b.n	402e4c <__adddf3+0x138>
  40300a:	bf00      	nop

0040300c <__aeabi_ul2d>:
  40300c:	ea50 0201 	orrs.w	r2, r0, r1
  403010:	bf08      	it	eq
  403012:	4770      	bxeq	lr
  403014:	b530      	push	{r4, r5, lr}
  403016:	f04f 0500 	mov.w	r5, #0
  40301a:	e00a      	b.n	403032 <__aeabi_l2d+0x16>

0040301c <__aeabi_l2d>:
  40301c:	ea50 0201 	orrs.w	r2, r0, r1
  403020:	bf08      	it	eq
  403022:	4770      	bxeq	lr
  403024:	b530      	push	{r4, r5, lr}
  403026:	f011 4500 	ands.w	r5, r1, #2147483648	; 0x80000000
  40302a:	d502      	bpl.n	403032 <__aeabi_l2d+0x16>
  40302c:	4240      	negs	r0, r0
  40302e:	eb61 0141 	sbc.w	r1, r1, r1, lsl #1
  403032:	f44f 6480 	mov.w	r4, #1024	; 0x400
  403036:	f104 0432 	add.w	r4, r4, #50	; 0x32
  40303a:	ea5f 5c91 	movs.w	ip, r1, lsr #22
  40303e:	f43f aedc 	beq.w	402dfa <__adddf3+0xe6>
  403042:	f04f 0203 	mov.w	r2, #3
  403046:	ea5f 0cdc 	movs.w	ip, ip, lsr #3
  40304a:	bf18      	it	ne
  40304c:	3203      	addne	r2, #3
  40304e:	ea5f 0cdc 	movs.w	ip, ip, lsr #3
  403052:	bf18      	it	ne
  403054:	3203      	addne	r2, #3
  403056:	eb02 02dc 	add.w	r2, r2, ip, lsr #3
  40305a:	f1c2 0320 	rsb	r3, r2, #32
  40305e:	fa00 fc03 	lsl.w	ip, r0, r3
  403062:	fa20 f002 	lsr.w	r0, r0, r2
  403066:	fa01 fe03 	lsl.w	lr, r1, r3
  40306a:	ea40 000e 	orr.w	r0, r0, lr
  40306e:	fa21 f102 	lsr.w	r1, r1, r2
  403072:	4414      	add	r4, r2
  403074:	e6c1      	b.n	402dfa <__adddf3+0xe6>
  403076:	bf00      	nop

00403078 <__aeabi_dmul>:
  403078:	b570      	push	{r4, r5, r6, lr}
  40307a:	f04f 0cff 	mov.w	ip, #255	; 0xff
  40307e:	f44c 6ce0 	orr.w	ip, ip, #1792	; 0x700
  403082:	ea1c 5411 	ands.w	r4, ip, r1, lsr #20
  403086:	bf1d      	ittte	ne
  403088:	ea1c 5513 	andsne.w	r5, ip, r3, lsr #20
  40308c:	ea94 0f0c 	teqne	r4, ip
  403090:	ea95 0f0c 	teqne	r5, ip
  403094:	f000 f8de 	bleq	403254 <__aeabi_dmul+0x1dc>
  403098:	442c      	add	r4, r5
  40309a:	ea81 0603 	eor.w	r6, r1, r3
  40309e:	ea21 514c 	bic.w	r1, r1, ip, lsl #21
  4030a2:	ea23 534c 	bic.w	r3, r3, ip, lsl #21
  4030a6:	ea50 3501 	orrs.w	r5, r0, r1, lsl #12
  4030aa:	bf18      	it	ne
  4030ac:	ea52 3503 	orrsne.w	r5, r2, r3, lsl #12
  4030b0:	f441 1180 	orr.w	r1, r1, #1048576	; 0x100000
  4030b4:	f443 1380 	orr.w	r3, r3, #1048576	; 0x100000
  4030b8:	d038      	beq.n	40312c <__aeabi_dmul+0xb4>
  4030ba:	fba0 ce02 	umull	ip, lr, r0, r2
  4030be:	f04f 0500 	mov.w	r5, #0
  4030c2:	fbe1 e502 	umlal	lr, r5, r1, r2
  4030c6:	f006 4200 	and.w	r2, r6, #2147483648	; 0x80000000
  4030ca:	fbe0 e503 	umlal	lr, r5, r0, r3
  4030ce:	f04f 0600 	mov.w	r6, #0
  4030d2:	fbe1 5603 	umlal	r5, r6, r1, r3
  4030d6:	f09c 0f00 	teq	ip, #0
  4030da:	bf18      	it	ne
  4030dc:	f04e 0e01 	orrne.w	lr, lr, #1
  4030e0:	f1a4 04ff 	sub.w	r4, r4, #255	; 0xff
  4030e4:	f5b6 7f00 	cmp.w	r6, #512	; 0x200
  4030e8:	f564 7440 	sbc.w	r4, r4, #768	; 0x300
  4030ec:	d204      	bcs.n	4030f8 <__aeabi_dmul+0x80>
  4030ee:	ea5f 0e4e 	movs.w	lr, lr, lsl #1
  4030f2:	416d      	adcs	r5, r5
  4030f4:	eb46 0606 	adc.w	r6, r6, r6
  4030f8:	ea42 21c6 	orr.w	r1, r2, r6, lsl #11
  4030fc:	ea41 5155 	orr.w	r1, r1, r5, lsr #21
  403100:	ea4f 20c5 	mov.w	r0, r5, lsl #11
  403104:	ea40 505e 	orr.w	r0, r0, lr, lsr #21
  403108:	ea4f 2ece 	mov.w	lr, lr, lsl #11
  40310c:	f1b4 0cfd 	subs.w	ip, r4, #253	; 0xfd
  403110:	bf88      	it	hi
  403112:	f5bc 6fe0 	cmphi.w	ip, #1792	; 0x700
  403116:	d81e      	bhi.n	403156 <__aeabi_dmul+0xde>
  403118:	f1be 4f00 	cmp.w	lr, #2147483648	; 0x80000000
  40311c:	bf08      	it	eq
  40311e:	ea5f 0e50 	movseq.w	lr, r0, lsr #1
  403122:	f150 0000 	adcs.w	r0, r0, #0
  403126:	eb41 5104 	adc.w	r1, r1, r4, lsl #20
  40312a:	bd70      	pop	{r4, r5, r6, pc}
  40312c:	f006 4600 	and.w	r6, r6, #2147483648	; 0x80000000
  403130:	ea46 0101 	orr.w	r1, r6, r1
  403134:	ea40 0002 	orr.w	r0, r0, r2
  403138:	ea81 0103 	eor.w	r1, r1, r3
  40313c:	ebb4 045c 	subs.w	r4, r4, ip, lsr #1
  403140:	bfc2      	ittt	gt
  403142:	ebd4 050c 	rsbsgt	r5, r4, ip
  403146:	ea41 5104 	orrgt.w	r1, r1, r4, lsl #20
  40314a:	bd70      	popgt	{r4, r5, r6, pc}
  40314c:	f441 1180 	orr.w	r1, r1, #1048576	; 0x100000
  403150:	f04f 0e00 	mov.w	lr, #0
  403154:	3c01      	subs	r4, #1
  403156:	f300 80ab 	bgt.w	4032b0 <__aeabi_dmul+0x238>
  40315a:	f114 0f36 	cmn.w	r4, #54	; 0x36
  40315e:	bfde      	ittt	le
  403160:	2000      	movle	r0, #0
  403162:	f001 4100 	andle.w	r1, r1, #2147483648	; 0x80000000
  403166:	bd70      	pople	{r4, r5, r6, pc}
  403168:	f1c4 0400 	rsb	r4, r4, #0
  40316c:	3c20      	subs	r4, #32
  40316e:	da35      	bge.n	4031dc <__aeabi_dmul+0x164>
  403170:	340c      	adds	r4, #12
  403172:	dc1b      	bgt.n	4031ac <__aeabi_dmul+0x134>
  403174:	f104 0414 	add.w	r4, r4, #20
  403178:	f1c4 0520 	rsb	r5, r4, #32
  40317c:	fa00 f305 	lsl.w	r3, r0, r5
  403180:	fa20 f004 	lsr.w	r0, r0, r4
  403184:	fa01 f205 	lsl.w	r2, r1, r5
  403188:	ea40 0002 	orr.w	r0, r0, r2
  40318c:	f001 4200 	and.w	r2, r1, #2147483648	; 0x80000000
  403190:	f021 4100 	bic.w	r1, r1, #2147483648	; 0x80000000
  403194:	eb10 70d3 	adds.w	r0, r0, r3, lsr #31
  403198:	fa21 f604 	lsr.w	r6, r1, r4
  40319c:	eb42 0106 	adc.w	r1, r2, r6
  4031a0:	ea5e 0e43 	orrs.w	lr, lr, r3, lsl #1
  4031a4:	bf08      	it	eq
  4031a6:	ea20 70d3 	biceq.w	r0, r0, r3, lsr #31
  4031aa:	bd70      	pop	{r4, r5, r6, pc}
  4031ac:	f1c4 040c 	rsb	r4, r4, #12
  4031b0:	f1c4 0520 	rsb	r5, r4, #32
  4031b4:	fa00 f304 	lsl.w	r3, r0, r4
  4031b8:	fa20 f005 	lsr.w	r0, r0, r5
  4031bc:	fa01 f204 	lsl.w	r2, r1, r4
  4031c0:	ea40 0002 	orr.w	r0, r0, r2
  4031c4:	f001 4100 	and.w	r1, r1, #2147483648	; 0x80000000
  4031c8:	eb10 70d3 	adds.w	r0, r0, r3, lsr #31
  4031cc:	f141 0100 	adc.w	r1, r1, #0
  4031d0:	ea5e 0e43 	orrs.w	lr, lr, r3, lsl #1
  4031d4:	bf08      	it	eq
  4031d6:	ea20 70d3 	biceq.w	r0, r0, r3, lsr #31
  4031da:	bd70      	pop	{r4, r5, r6, pc}
  4031dc:	f1c4 0520 	rsb	r5, r4, #32
  4031e0:	fa00 f205 	lsl.w	r2, r0, r5
  4031e4:	ea4e 0e02 	orr.w	lr, lr, r2
  4031e8:	fa20 f304 	lsr.w	r3, r0, r4
  4031ec:	fa01 f205 	lsl.w	r2, r1, r5
  4031f0:	ea43 0302 	orr.w	r3, r3, r2
  4031f4:	fa21 f004 	lsr.w	r0, r1, r4
  4031f8:	f001 4100 	and.w	r1, r1, #2147483648	; 0x80000000
  4031fc:	fa21 f204 	lsr.w	r2, r1, r4
  403200:	ea20 0002 	bic.w	r0, r0, r2
  403204:	eb00 70d3 	add.w	r0, r0, r3, lsr #31
  403208:	ea5e 0e43 	orrs.w	lr, lr, r3, lsl #1
  40320c:	bf08      	it	eq
  40320e:	ea20 70d3 	biceq.w	r0, r0, r3, lsr #31
  403212:	bd70      	pop	{r4, r5, r6, pc}
  403214:	f094 0f00 	teq	r4, #0
  403218:	d10f      	bne.n	40323a <__aeabi_dmul+0x1c2>
  40321a:	f001 4600 	and.w	r6, r1, #2147483648	; 0x80000000
  40321e:	0040      	lsls	r0, r0, #1
  403220:	eb41 0101 	adc.w	r1, r1, r1
  403224:	f411 1f80 	tst.w	r1, #1048576	; 0x100000
  403228:	bf08      	it	eq
  40322a:	3c01      	subeq	r4, #1
  40322c:	d0f7      	beq.n	40321e <__aeabi_dmul+0x1a6>
  40322e:	ea41 0106 	orr.w	r1, r1, r6
  403232:	f095 0f00 	teq	r5, #0
  403236:	bf18      	it	ne
  403238:	4770      	bxne	lr
  40323a:	f003 4600 	and.w	r6, r3, #2147483648	; 0x80000000
  40323e:	0052      	lsls	r2, r2, #1
  403240:	eb43 0303 	adc.w	r3, r3, r3
  403244:	f413 1f80 	tst.w	r3, #1048576	; 0x100000
  403248:	bf08      	it	eq
  40324a:	3d01      	subeq	r5, #1
  40324c:	d0f7      	beq.n	40323e <__aeabi_dmul+0x1c6>
  40324e:	ea43 0306 	orr.w	r3, r3, r6
  403252:	4770      	bx	lr
  403254:	ea94 0f0c 	teq	r4, ip
  403258:	ea0c 5513 	and.w	r5, ip, r3, lsr #20
  40325c:	bf18      	it	ne
  40325e:	ea95 0f0c 	teqne	r5, ip
  403262:	d00c      	beq.n	40327e <__aeabi_dmul+0x206>
  403264:	ea50 0641 	orrs.w	r6, r0, r1, lsl #1
  403268:	bf18      	it	ne
  40326a:	ea52 0643 	orrsne.w	r6, r2, r3, lsl #1
  40326e:	d1d1      	bne.n	403214 <__aeabi_dmul+0x19c>
  403270:	ea81 0103 	eor.w	r1, r1, r3
  403274:	f001 4100 	and.w	r1, r1, #2147483648	; 0x80000000
  403278:	f04f 0000 	mov.w	r0, #0
  40327c:	bd70      	pop	{r4, r5, r6, pc}
  40327e:	ea50 0641 	orrs.w	r6, r0, r1, lsl #1
  403282:	bf06      	itte	eq
  403284:	4610      	moveq	r0, r2
  403286:	4619      	moveq	r1, r3
  403288:	ea52 0643 	orrsne.w	r6, r2, r3, lsl #1
  40328c:	d019      	beq.n	4032c2 <__aeabi_dmul+0x24a>
  40328e:	ea94 0f0c 	teq	r4, ip
  403292:	d102      	bne.n	40329a <__aeabi_dmul+0x222>
  403294:	ea50 3601 	orrs.w	r6, r0, r1, lsl #12
  403298:	d113      	bne.n	4032c2 <__aeabi_dmul+0x24a>
  40329a:	ea95 0f0c 	teq	r5, ip
  40329e:	d105      	bne.n	4032ac <__aeabi_dmul+0x234>
  4032a0:	ea52 3603 	orrs.w	r6, r2, r3, lsl #12
  4032a4:	bf1c      	itt	ne
  4032a6:	4610      	movne	r0, r2
  4032a8:	4619      	movne	r1, r3
  4032aa:	d10a      	bne.n	4032c2 <__aeabi_dmul+0x24a>
  4032ac:	ea81 0103 	eor.w	r1, r1, r3
  4032b0:	f001 4100 	and.w	r1, r1, #2147483648	; 0x80000000
  4032b4:	f041 41fe 	orr.w	r1, r1, #2130706432	; 0x7f000000
  4032b8:	f441 0170 	orr.w	r1, r1, #15728640	; 0xf00000
  4032bc:	f04f 0000 	mov.w	r0, #0
  4032c0:	bd70      	pop	{r4, r5, r6, pc}
  4032c2:	f041 41fe 	orr.w	r1, r1, #2130706432	; 0x7f000000
  4032c6:	f441 0178 	orr.w	r1, r1, #16252928	; 0xf80000
  4032ca:	bd70      	pop	{r4, r5, r6, pc}

004032cc <__aeabi_ddiv>:
  4032cc:	b570      	push	{r4, r5, r6, lr}
  4032ce:	f04f 0cff 	mov.w	ip, #255	; 0xff
  4032d2:	f44c 6ce0 	orr.w	ip, ip, #1792	; 0x700
  4032d6:	ea1c 5411 	ands.w	r4, ip, r1, lsr #20
  4032da:	bf1d      	ittte	ne
  4032dc:	ea1c 5513 	andsne.w	r5, ip, r3, lsr #20
  4032e0:	ea94 0f0c 	teqne	r4, ip
  4032e4:	ea95 0f0c 	teqne	r5, ip
  4032e8:	f000 f8a7 	bleq	40343a <__aeabi_ddiv+0x16e>
  4032ec:	eba4 0405 	sub.w	r4, r4, r5
  4032f0:	ea81 0e03 	eor.w	lr, r1, r3
  4032f4:	ea52 3503 	orrs.w	r5, r2, r3, lsl #12
  4032f8:	ea4f 3101 	mov.w	r1, r1, lsl #12
  4032fc:	f000 8088 	beq.w	403410 <__aeabi_ddiv+0x144>
  403300:	ea4f 3303 	mov.w	r3, r3, lsl #12
  403304:	f04f 5580 	mov.w	r5, #268435456	; 0x10000000
  403308:	ea45 1313 	orr.w	r3, r5, r3, lsr #4
  40330c:	ea43 6312 	orr.w	r3, r3, r2, lsr #24
  403310:	ea4f 2202 	mov.w	r2, r2, lsl #8
  403314:	ea45 1511 	orr.w	r5, r5, r1, lsr #4
  403318:	ea45 6510 	orr.w	r5, r5, r0, lsr #24
  40331c:	ea4f 2600 	mov.w	r6, r0, lsl #8
  403320:	f00e 4100 	and.w	r1, lr, #2147483648	; 0x80000000
  403324:	429d      	cmp	r5, r3
  403326:	bf08      	it	eq
  403328:	4296      	cmpeq	r6, r2
  40332a:	f144 04fd 	adc.w	r4, r4, #253	; 0xfd
  40332e:	f504 7440 	add.w	r4, r4, #768	; 0x300
  403332:	d202      	bcs.n	40333a <__aeabi_ddiv+0x6e>
  403334:	085b      	lsrs	r3, r3, #1
  403336:	ea4f 0232 	mov.w	r2, r2, rrx
  40333a:	1ab6      	subs	r6, r6, r2
  40333c:	eb65 0503 	sbc.w	r5, r5, r3
  403340:	085b      	lsrs	r3, r3, #1
  403342:	ea4f 0232 	mov.w	r2, r2, rrx
  403346:	f44f 1080 	mov.w	r0, #1048576	; 0x100000
  40334a:	f44f 2c00 	mov.w	ip, #524288	; 0x80000
  40334e:	ebb6 0e02 	subs.w	lr, r6, r2
  403352:	eb75 0e03 	sbcs.w	lr, r5, r3
  403356:	bf22      	ittt	cs
  403358:	1ab6      	subcs	r6, r6, r2
  40335a:	4675      	movcs	r5, lr
  40335c:	ea40 000c 	orrcs.w	r0, r0, ip
  403360:	085b      	lsrs	r3, r3, #1
  403362:	ea4f 0232 	mov.w	r2, r2, rrx
  403366:	ebb6 0e02 	subs.w	lr, r6, r2
  40336a:	eb75 0e03 	sbcs.w	lr, r5, r3
  40336e:	bf22      	ittt	cs
  403370:	1ab6      	subcs	r6, r6, r2
  403372:	4675      	movcs	r5, lr
  403374:	ea40 005c 	orrcs.w	r0, r0, ip, lsr #1
  403378:	085b      	lsrs	r3, r3, #1
  40337a:	ea4f 0232 	mov.w	r2, r2, rrx
  40337e:	ebb6 0e02 	subs.w	lr, r6, r2
  403382:	eb75 0e03 	sbcs.w	lr, r5, r3
  403386:	bf22      	ittt	cs
  403388:	1ab6      	subcs	r6, r6, r2
  40338a:	4675      	movcs	r5, lr
  40338c:	ea40 009c 	orrcs.w	r0, r0, ip, lsr #2
  403390:	085b      	lsrs	r3, r3, #1
  403392:	ea4f 0232 	mov.w	r2, r2, rrx
  403396:	ebb6 0e02 	subs.w	lr, r6, r2
  40339a:	eb75 0e03 	sbcs.w	lr, r5, r3
  40339e:	bf22      	ittt	cs
  4033a0:	1ab6      	subcs	r6, r6, r2
  4033a2:	4675      	movcs	r5, lr
  4033a4:	ea40 00dc 	orrcs.w	r0, r0, ip, lsr #3
  4033a8:	ea55 0e06 	orrs.w	lr, r5, r6
  4033ac:	d018      	beq.n	4033e0 <__aeabi_ddiv+0x114>
  4033ae:	ea4f 1505 	mov.w	r5, r5, lsl #4
  4033b2:	ea45 7516 	orr.w	r5, r5, r6, lsr #28
  4033b6:	ea4f 1606 	mov.w	r6, r6, lsl #4
  4033ba:	ea4f 03c3 	mov.w	r3, r3, lsl #3
  4033be:	ea43 7352 	orr.w	r3, r3, r2, lsr #29
  4033c2:	ea4f 02c2 	mov.w	r2, r2, lsl #3
  4033c6:	ea5f 1c1c 	movs.w	ip, ip, lsr #4
  4033ca:	d1c0      	bne.n	40334e <__aeabi_ddiv+0x82>
  4033cc:	f411 1f80 	tst.w	r1, #1048576	; 0x100000
  4033d0:	d10b      	bne.n	4033ea <__aeabi_ddiv+0x11e>
  4033d2:	ea41 0100 	orr.w	r1, r1, r0
  4033d6:	f04f 0000 	mov.w	r0, #0
  4033da:	f04f 4c00 	mov.w	ip, #2147483648	; 0x80000000
  4033de:	e7b6      	b.n	40334e <__aeabi_ddiv+0x82>
  4033e0:	f411 1f80 	tst.w	r1, #1048576	; 0x100000
  4033e4:	bf04      	itt	eq
  4033e6:	4301      	orreq	r1, r0
  4033e8:	2000      	moveq	r0, #0
  4033ea:	f1b4 0cfd 	subs.w	ip, r4, #253	; 0xfd
  4033ee:	bf88      	it	hi
  4033f0:	f5bc 6fe0 	cmphi.w	ip, #1792	; 0x700
  4033f4:	f63f aeaf 	bhi.w	403156 <__aeabi_dmul+0xde>
  4033f8:	ebb5 0c03 	subs.w	ip, r5, r3
  4033fc:	bf04      	itt	eq
  4033fe:	ebb6 0c02 	subseq.w	ip, r6, r2
  403402:	ea5f 0c50 	movseq.w	ip, r0, lsr #1
  403406:	f150 0000 	adcs.w	r0, r0, #0
  40340a:	eb41 5104 	adc.w	r1, r1, r4, lsl #20
  40340e:	bd70      	pop	{r4, r5, r6, pc}
  403410:	f00e 4e00 	and.w	lr, lr, #2147483648	; 0x80000000
  403414:	ea4e 3111 	orr.w	r1, lr, r1, lsr #12
  403418:	eb14 045c 	adds.w	r4, r4, ip, lsr #1
  40341c:	bfc2      	ittt	gt
  40341e:	ebd4 050c 	rsbsgt	r5, r4, ip
  403422:	ea41 5104 	orrgt.w	r1, r1, r4, lsl #20
  403426:	bd70      	popgt	{r4, r5, r6, pc}
  403428:	f441 1180 	orr.w	r1, r1, #1048576	; 0x100000
  40342c:	f04f 0e00 	mov.w	lr, #0
  403430:	3c01      	subs	r4, #1
  403432:	e690      	b.n	403156 <__aeabi_dmul+0xde>
  403434:	ea45 0e06 	orr.w	lr, r5, r6
  403438:	e68d      	b.n	403156 <__aeabi_dmul+0xde>
  40343a:	ea0c 5513 	and.w	r5, ip, r3, lsr #20
  40343e:	ea94 0f0c 	teq	r4, ip
  403442:	bf08      	it	eq
  403444:	ea95 0f0c 	teqeq	r5, ip
  403448:	f43f af3b 	beq.w	4032c2 <__aeabi_dmul+0x24a>
  40344c:	ea94 0f0c 	teq	r4, ip
  403450:	d10a      	bne.n	403468 <__aeabi_ddiv+0x19c>
  403452:	ea50 3401 	orrs.w	r4, r0, r1, lsl #12
  403456:	f47f af34 	bne.w	4032c2 <__aeabi_dmul+0x24a>
  40345a:	ea95 0f0c 	teq	r5, ip
  40345e:	f47f af25 	bne.w	4032ac <__aeabi_dmul+0x234>
  403462:	4610      	mov	r0, r2
  403464:	4619      	mov	r1, r3
  403466:	e72c      	b.n	4032c2 <__aeabi_dmul+0x24a>
  403468:	ea95 0f0c 	teq	r5, ip
  40346c:	d106      	bne.n	40347c <__aeabi_ddiv+0x1b0>
  40346e:	ea52 3503 	orrs.w	r5, r2, r3, lsl #12
  403472:	f43f aefd 	beq.w	403270 <__aeabi_dmul+0x1f8>
  403476:	4610      	mov	r0, r2
  403478:	4619      	mov	r1, r3
  40347a:	e722      	b.n	4032c2 <__aeabi_dmul+0x24a>
  40347c:	ea50 0641 	orrs.w	r6, r0, r1, lsl #1
  403480:	bf18      	it	ne
  403482:	ea52 0643 	orrsne.w	r6, r2, r3, lsl #1
  403486:	f47f aec5 	bne.w	403214 <__aeabi_dmul+0x19c>
  40348a:	ea50 0441 	orrs.w	r4, r0, r1, lsl #1
  40348e:	f47f af0d 	bne.w	4032ac <__aeabi_dmul+0x234>
  403492:	ea52 0543 	orrs.w	r5, r2, r3, lsl #1
  403496:	f47f aeeb 	bne.w	403270 <__aeabi_dmul+0x1f8>
  40349a:	e712      	b.n	4032c2 <__aeabi_dmul+0x24a>

0040349c <__gedf2>:
  40349c:	f04f 3cff 	mov.w	ip, #4294967295
  4034a0:	e006      	b.n	4034b0 <__cmpdf2+0x4>
  4034a2:	bf00      	nop

004034a4 <__ledf2>:
  4034a4:	f04f 0c01 	mov.w	ip, #1
  4034a8:	e002      	b.n	4034b0 <__cmpdf2+0x4>
  4034aa:	bf00      	nop

004034ac <__cmpdf2>:
  4034ac:	f04f 0c01 	mov.w	ip, #1
  4034b0:	f84d cd04 	str.w	ip, [sp, #-4]!
  4034b4:	ea4f 0c41 	mov.w	ip, r1, lsl #1
  4034b8:	ea7f 5c6c 	mvns.w	ip, ip, asr #21
  4034bc:	ea4f 0c43 	mov.w	ip, r3, lsl #1
  4034c0:	bf18      	it	ne
  4034c2:	ea7f 5c6c 	mvnsne.w	ip, ip, asr #21
  4034c6:	d01b      	beq.n	403500 <__cmpdf2+0x54>
  4034c8:	b001      	add	sp, #4
  4034ca:	ea50 0c41 	orrs.w	ip, r0, r1, lsl #1
  4034ce:	bf0c      	ite	eq
  4034d0:	ea52 0c43 	orrseq.w	ip, r2, r3, lsl #1
  4034d4:	ea91 0f03 	teqne	r1, r3
  4034d8:	bf02      	ittt	eq
  4034da:	ea90 0f02 	teqeq	r0, r2
  4034de:	2000      	moveq	r0, #0
  4034e0:	4770      	bxeq	lr
  4034e2:	f110 0f00 	cmn.w	r0, #0
  4034e6:	ea91 0f03 	teq	r1, r3
  4034ea:	bf58      	it	pl
  4034ec:	4299      	cmppl	r1, r3
  4034ee:	bf08      	it	eq
  4034f0:	4290      	cmpeq	r0, r2
  4034f2:	bf2c      	ite	cs
  4034f4:	17d8      	asrcs	r0, r3, #31
  4034f6:	ea6f 70e3 	mvncc.w	r0, r3, asr #31
  4034fa:	f040 0001 	orr.w	r0, r0, #1
  4034fe:	4770      	bx	lr
  403500:	ea4f 0c41 	mov.w	ip, r1, lsl #1
  403504:	ea7f 5c6c 	mvns.w	ip, ip, asr #21
  403508:	d102      	bne.n	403510 <__cmpdf2+0x64>
  40350a:	ea50 3c01 	orrs.w	ip, r0, r1, lsl #12
  40350e:	d107      	bne.n	403520 <__cmpdf2+0x74>
  403510:	ea4f 0c43 	mov.w	ip, r3, lsl #1
  403514:	ea7f 5c6c 	mvns.w	ip, ip, asr #21
  403518:	d1d6      	bne.n	4034c8 <__cmpdf2+0x1c>
  40351a:	ea52 3c03 	orrs.w	ip, r2, r3, lsl #12
  40351e:	d0d3      	beq.n	4034c8 <__cmpdf2+0x1c>
  403520:	f85d 0b04 	ldr.w	r0, [sp], #4
  403524:	4770      	bx	lr
  403526:	bf00      	nop

00403528 <__aeabi_cdrcmple>:
  403528:	4684      	mov	ip, r0
  40352a:	4610      	mov	r0, r2
  40352c:	4662      	mov	r2, ip
  40352e:	468c      	mov	ip, r1
  403530:	4619      	mov	r1, r3
  403532:	4663      	mov	r3, ip
  403534:	e000      	b.n	403538 <__aeabi_cdcmpeq>
  403536:	bf00      	nop

00403538 <__aeabi_cdcmpeq>:
  403538:	b501      	push	{r0, lr}
  40353a:	f7ff ffb7 	bl	4034ac <__cmpdf2>
  40353e:	2800      	cmp	r0, #0
  403540:	bf48      	it	mi
  403542:	f110 0f00 	cmnmi.w	r0, #0
  403546:	bd01      	pop	{r0, pc}

00403548 <__aeabi_dcmpeq>:
  403548:	f84d ed08 	str.w	lr, [sp, #-8]!
  40354c:	f7ff fff4 	bl	403538 <__aeabi_cdcmpeq>
  403550:	bf0c      	ite	eq
  403552:	2001      	moveq	r0, #1
  403554:	2000      	movne	r0, #0
  403556:	f85d fb08 	ldr.w	pc, [sp], #8
  40355a:	bf00      	nop

0040355c <__aeabi_dcmplt>:
  40355c:	f84d ed08 	str.w	lr, [sp, #-8]!
  403560:	f7ff ffea 	bl	403538 <__aeabi_cdcmpeq>
  403564:	bf34      	ite	cc
  403566:	2001      	movcc	r0, #1
  403568:	2000      	movcs	r0, #0
  40356a:	f85d fb08 	ldr.w	pc, [sp], #8
  40356e:	bf00      	nop

00403570 <__aeabi_dcmple>:
  403570:	f84d ed08 	str.w	lr, [sp, #-8]!
  403574:	f7ff ffe0 	bl	403538 <__aeabi_cdcmpeq>
  403578:	bf94      	ite	ls
  40357a:	2001      	movls	r0, #1
  40357c:	2000      	movhi	r0, #0
  40357e:	f85d fb08 	ldr.w	pc, [sp], #8
  403582:	bf00      	nop

00403584 <__aeabi_dcmpge>:
  403584:	f84d ed08 	str.w	lr, [sp, #-8]!
  403588:	f7ff ffce 	bl	403528 <__aeabi_cdrcmple>
  40358c:	bf94      	ite	ls
  40358e:	2001      	movls	r0, #1
  403590:	2000      	movhi	r0, #0
  403592:	f85d fb08 	ldr.w	pc, [sp], #8
  403596:	bf00      	nop

00403598 <__aeabi_dcmpgt>:
  403598:	f84d ed08 	str.w	lr, [sp, #-8]!
  40359c:	f7ff ffc4 	bl	403528 <__aeabi_cdrcmple>
  4035a0:	bf34      	ite	cc
  4035a2:	2001      	movcc	r0, #1
  4035a4:	2000      	movcs	r0, #0
  4035a6:	f85d fb08 	ldr.w	pc, [sp], #8
  4035aa:	bf00      	nop

004035ac <__aeabi_dcmpun>:
  4035ac:	ea4f 0c41 	mov.w	ip, r1, lsl #1
  4035b0:	ea7f 5c6c 	mvns.w	ip, ip, asr #21
  4035b4:	d102      	bne.n	4035bc <__aeabi_dcmpun+0x10>
  4035b6:	ea50 3c01 	orrs.w	ip, r0, r1, lsl #12
  4035ba:	d10a      	bne.n	4035d2 <__aeabi_dcmpun+0x26>
  4035bc:	ea4f 0c43 	mov.w	ip, r3, lsl #1
  4035c0:	ea7f 5c6c 	mvns.w	ip, ip, asr #21
  4035c4:	d102      	bne.n	4035cc <__aeabi_dcmpun+0x20>
  4035c6:	ea52 3c03 	orrs.w	ip, r2, r3, lsl #12
  4035ca:	d102      	bne.n	4035d2 <__aeabi_dcmpun+0x26>
  4035cc:	f04f 0000 	mov.w	r0, #0
  4035d0:	4770      	bx	lr
  4035d2:	f04f 0001 	mov.w	r0, #1
  4035d6:	4770      	bx	lr

004035d8 <__aeabi_d2iz>:
  4035d8:	ea4f 0241 	mov.w	r2, r1, lsl #1
  4035dc:	f512 1200 	adds.w	r2, r2, #2097152	; 0x200000
  4035e0:	d215      	bcs.n	40360e <__aeabi_d2iz+0x36>
  4035e2:	d511      	bpl.n	403608 <__aeabi_d2iz+0x30>
  4035e4:	f46f 7378 	mvn.w	r3, #992	; 0x3e0
  4035e8:	ebb3 5262 	subs.w	r2, r3, r2, asr #21
  4035ec:	d912      	bls.n	403614 <__aeabi_d2iz+0x3c>
  4035ee:	ea4f 23c1 	mov.w	r3, r1, lsl #11
  4035f2:	f043 4300 	orr.w	r3, r3, #2147483648	; 0x80000000
  4035f6:	ea43 5350 	orr.w	r3, r3, r0, lsr #21
  4035fa:	f011 4f00 	tst.w	r1, #2147483648	; 0x80000000
  4035fe:	fa23 f002 	lsr.w	r0, r3, r2
  403602:	bf18      	it	ne
  403604:	4240      	negne	r0, r0
  403606:	4770      	bx	lr
  403608:	f04f 0000 	mov.w	r0, #0
  40360c:	4770      	bx	lr
  40360e:	ea50 3001 	orrs.w	r0, r0, r1, lsl #12
  403612:	d105      	bne.n	403620 <__aeabi_d2iz+0x48>
  403614:	f011 4000 	ands.w	r0, r1, #2147483648	; 0x80000000
  403618:	bf08      	it	eq
  40361a:	f06f 4000 	mvneq.w	r0, #2147483648	; 0x80000000
  40361e:	4770      	bx	lr
  403620:	f04f 0000 	mov.w	r0, #0
  403624:	4770      	bx	lr
  403626:	bf00      	nop

00403628 <__aeabi_d2uiz>:
  403628:	004a      	lsls	r2, r1, #1
  40362a:	d211      	bcs.n	403650 <__aeabi_d2uiz+0x28>
  40362c:	f512 1200 	adds.w	r2, r2, #2097152	; 0x200000
  403630:	d211      	bcs.n	403656 <__aeabi_d2uiz+0x2e>
  403632:	d50d      	bpl.n	403650 <__aeabi_d2uiz+0x28>
  403634:	f46f 7378 	mvn.w	r3, #992	; 0x3e0
  403638:	ebb3 5262 	subs.w	r2, r3, r2, asr #21
  40363c:	d40e      	bmi.n	40365c <__aeabi_d2uiz+0x34>
  40363e:	ea4f 23c1 	mov.w	r3, r1, lsl #11
  403642:	f043 4300 	orr.w	r3, r3, #2147483648	; 0x80000000
  403646:	ea43 5350 	orr.w	r3, r3, r0, lsr #21
  40364a:	fa23 f002 	lsr.w	r0, r3, r2
  40364e:	4770      	bx	lr
  403650:	f04f 0000 	mov.w	r0, #0
  403654:	4770      	bx	lr
  403656:	ea50 3001 	orrs.w	r0, r0, r1, lsl #12
  40365a:	d102      	bne.n	403662 <__aeabi_d2uiz+0x3a>
  40365c:	f04f 30ff 	mov.w	r0, #4294967295
  403660:	4770      	bx	lr
  403662:	f04f 0000 	mov.w	r0, #0
  403666:	4770      	bx	lr

00403668 <__aeabi_d2f>:
  403668:	ea4f 0241 	mov.w	r2, r1, lsl #1
  40366c:	f1b2 43e0 	subs.w	r3, r2, #1879048192	; 0x70000000
  403670:	bf24      	itt	cs
  403672:	f5b3 1c00 	subscs.w	ip, r3, #2097152	; 0x200000
  403676:	f1dc 5cfe 	rsbscs	ip, ip, #532676608	; 0x1fc00000
  40367a:	d90d      	bls.n	403698 <__aeabi_d2f+0x30>
  40367c:	f001 4c00 	and.w	ip, r1, #2147483648	; 0x80000000
  403680:	ea4f 02c0 	mov.w	r2, r0, lsl #3
  403684:	ea4c 7050 	orr.w	r0, ip, r0, lsr #29
  403688:	f1b2 4f00 	cmp.w	r2, #2147483648	; 0x80000000
  40368c:	eb40 0083 	adc.w	r0, r0, r3, lsl #2
  403690:	bf08      	it	eq
  403692:	f020 0001 	biceq.w	r0, r0, #1
  403696:	4770      	bx	lr
  403698:	f011 4f80 	tst.w	r1, #1073741824	; 0x40000000
  40369c:	d121      	bne.n	4036e2 <__aeabi_d2f+0x7a>
  40369e:	f113 7238 	adds.w	r2, r3, #48234496	; 0x2e00000
  4036a2:	bfbc      	itt	lt
  4036a4:	f001 4000 	andlt.w	r0, r1, #2147483648	; 0x80000000
  4036a8:	4770      	bxlt	lr
  4036aa:	f441 1180 	orr.w	r1, r1, #1048576	; 0x100000
  4036ae:	ea4f 5252 	mov.w	r2, r2, lsr #21
  4036b2:	f1c2 0218 	rsb	r2, r2, #24
  4036b6:	f1c2 0c20 	rsb	ip, r2, #32
  4036ba:	fa10 f30c 	lsls.w	r3, r0, ip
  4036be:	fa20 f002 	lsr.w	r0, r0, r2
  4036c2:	bf18      	it	ne
  4036c4:	f040 0001 	orrne.w	r0, r0, #1
  4036c8:	ea4f 23c1 	mov.w	r3, r1, lsl #11
  4036cc:	ea4f 23d3 	mov.w	r3, r3, lsr #11
  4036d0:	fa03 fc0c 	lsl.w	ip, r3, ip
  4036d4:	ea40 000c 	orr.w	r0, r0, ip
  4036d8:	fa23 f302 	lsr.w	r3, r3, r2
  4036dc:	ea4f 0343 	mov.w	r3, r3, lsl #1
  4036e0:	e7cc      	b.n	40367c <__aeabi_d2f+0x14>
  4036e2:	ea7f 5362 	mvns.w	r3, r2, asr #21
  4036e6:	d107      	bne.n	4036f8 <__aeabi_d2f+0x90>
  4036e8:	ea50 3301 	orrs.w	r3, r0, r1, lsl #12
  4036ec:	bf1e      	ittt	ne
  4036ee:	f04f 40fe 	movne.w	r0, #2130706432	; 0x7f000000
  4036f2:	f440 0040 	orrne.w	r0, r0, #12582912	; 0xc00000
  4036f6:	4770      	bxne	lr
  4036f8:	f001 4000 	and.w	r0, r1, #2147483648	; 0x80000000
  4036fc:	f040 40fe 	orr.w	r0, r0, #2130706432	; 0x7f000000
  403700:	f440 0000 	orr.w	r0, r0, #8388608	; 0x800000
  403704:	4770      	bx	lr
  403706:	bf00      	nop

00403708 <atof>:
  403708:	2100      	movs	r1, #0
  40370a:	f001 b90f 	b.w	40492c <strtod>
  40370e:	bf00      	nop

00403710 <__errno>:
  403710:	4b01      	ldr	r3, [pc, #4]	; (403718 <__errno+0x8>)
  403712:	6818      	ldr	r0, [r3, #0]
  403714:	4770      	bx	lr
  403716:	bf00      	nop
  403718:	20400438 	.word	0x20400438

0040371c <__libc_init_array>:
  40371c:	b570      	push	{r4, r5, r6, lr}
  40371e:	4e0f      	ldr	r6, [pc, #60]	; (40375c <__libc_init_array+0x40>)
  403720:	4d0f      	ldr	r5, [pc, #60]	; (403760 <__libc_init_array+0x44>)
  403722:	1b76      	subs	r6, r6, r5
  403724:	10b6      	asrs	r6, r6, #2
  403726:	bf18      	it	ne
  403728:	2400      	movne	r4, #0
  40372a:	d005      	beq.n	403738 <__libc_init_array+0x1c>
  40372c:	3401      	adds	r4, #1
  40372e:	f855 3b04 	ldr.w	r3, [r5], #4
  403732:	4798      	blx	r3
  403734:	42a6      	cmp	r6, r4
  403736:	d1f9      	bne.n	40372c <__libc_init_array+0x10>
  403738:	4e0a      	ldr	r6, [pc, #40]	; (403764 <__libc_init_array+0x48>)
  40373a:	4d0b      	ldr	r5, [pc, #44]	; (403768 <__libc_init_array+0x4c>)
  40373c:	1b76      	subs	r6, r6, r5
  40373e:	f003 f885 	bl	40684c <_init>
  403742:	10b6      	asrs	r6, r6, #2
  403744:	bf18      	it	ne
  403746:	2400      	movne	r4, #0
  403748:	d006      	beq.n	403758 <__libc_init_array+0x3c>
  40374a:	3401      	adds	r4, #1
  40374c:	f855 3b04 	ldr.w	r3, [r5], #4
  403750:	4798      	blx	r3
  403752:	42a6      	cmp	r6, r4
  403754:	d1f9      	bne.n	40374a <__libc_init_array+0x2e>
  403756:	bd70      	pop	{r4, r5, r6, pc}
  403758:	bd70      	pop	{r4, r5, r6, pc}
  40375a:	bf00      	nop
  40375c:	00406858 	.word	0x00406858
  403760:	00406858 	.word	0x00406858
  403764:	00406864 	.word	0x00406864
  403768:	00406858 	.word	0x00406858

0040376c <memset>:
  40376c:	b470      	push	{r4, r5, r6}
  40376e:	0784      	lsls	r4, r0, #30
  403770:	d046      	beq.n	403800 <memset+0x94>
  403772:	1e54      	subs	r4, r2, #1
  403774:	2a00      	cmp	r2, #0
  403776:	d041      	beq.n	4037fc <memset+0x90>
  403778:	b2cd      	uxtb	r5, r1
  40377a:	4603      	mov	r3, r0
  40377c:	e002      	b.n	403784 <memset+0x18>
  40377e:	1e62      	subs	r2, r4, #1
  403780:	b3e4      	cbz	r4, 4037fc <memset+0x90>
  403782:	4614      	mov	r4, r2
  403784:	f803 5b01 	strb.w	r5, [r3], #1
  403788:	079a      	lsls	r2, r3, #30
  40378a:	d1f8      	bne.n	40377e <memset+0x12>
  40378c:	2c03      	cmp	r4, #3
  40378e:	d92e      	bls.n	4037ee <memset+0x82>
  403790:	b2cd      	uxtb	r5, r1
  403792:	ea45 2505 	orr.w	r5, r5, r5, lsl #8
  403796:	2c0f      	cmp	r4, #15
  403798:	ea45 4505 	orr.w	r5, r5, r5, lsl #16
  40379c:	d919      	bls.n	4037d2 <memset+0x66>
  40379e:	f103 0210 	add.w	r2, r3, #16
  4037a2:	4626      	mov	r6, r4
  4037a4:	3e10      	subs	r6, #16
  4037a6:	2e0f      	cmp	r6, #15
  4037a8:	f842 5c10 	str.w	r5, [r2, #-16]
  4037ac:	f842 5c0c 	str.w	r5, [r2, #-12]
  4037b0:	f842 5c08 	str.w	r5, [r2, #-8]
  4037b4:	f842 5c04 	str.w	r5, [r2, #-4]
  4037b8:	f102 0210 	add.w	r2, r2, #16
  4037bc:	d8f2      	bhi.n	4037a4 <memset+0x38>
  4037be:	f1a4 0210 	sub.w	r2, r4, #16
  4037c2:	f022 020f 	bic.w	r2, r2, #15
  4037c6:	f004 040f 	and.w	r4, r4, #15
  4037ca:	3210      	adds	r2, #16
  4037cc:	2c03      	cmp	r4, #3
  4037ce:	4413      	add	r3, r2
  4037d0:	d90d      	bls.n	4037ee <memset+0x82>
  4037d2:	461e      	mov	r6, r3
  4037d4:	4622      	mov	r2, r4
  4037d6:	3a04      	subs	r2, #4
  4037d8:	2a03      	cmp	r2, #3
  4037da:	f846 5b04 	str.w	r5, [r6], #4
  4037de:	d8fa      	bhi.n	4037d6 <memset+0x6a>
  4037e0:	1f22      	subs	r2, r4, #4
  4037e2:	f022 0203 	bic.w	r2, r2, #3
  4037e6:	3204      	adds	r2, #4
  4037e8:	4413      	add	r3, r2
  4037ea:	f004 0403 	and.w	r4, r4, #3
  4037ee:	b12c      	cbz	r4, 4037fc <memset+0x90>
  4037f0:	b2c9      	uxtb	r1, r1
  4037f2:	441c      	add	r4, r3
  4037f4:	f803 1b01 	strb.w	r1, [r3], #1
  4037f8:	42a3      	cmp	r3, r4
  4037fa:	d1fb      	bne.n	4037f4 <memset+0x88>
  4037fc:	bc70      	pop	{r4, r5, r6}
  4037fe:	4770      	bx	lr
  403800:	4614      	mov	r4, r2
  403802:	4603      	mov	r3, r0
  403804:	e7c2      	b.n	40378c <memset+0x20>
  403806:	bf00      	nop

00403808 <strcat>:
  403808:	0783      	lsls	r3, r0, #30
  40380a:	b510      	push	{r4, lr}
  40380c:	4604      	mov	r4, r0
  40380e:	d110      	bne.n	403832 <strcat+0x2a>
  403810:	6802      	ldr	r2, [r0, #0]
  403812:	f1a2 3301 	sub.w	r3, r2, #16843009	; 0x1010101
  403816:	ea23 0302 	bic.w	r3, r3, r2
  40381a:	f013 3f80 	tst.w	r3, #2155905152	; 0x80808080
  40381e:	d108      	bne.n	403832 <strcat+0x2a>
  403820:	f850 2f04 	ldr.w	r2, [r0, #4]!
  403824:	f1a2 3301 	sub.w	r3, r2, #16843009	; 0x1010101
  403828:	ea23 0302 	bic.w	r3, r3, r2
  40382c:	f013 3f80 	tst.w	r3, #2155905152	; 0x80808080
  403830:	d0f6      	beq.n	403820 <strcat+0x18>
  403832:	7803      	ldrb	r3, [r0, #0]
  403834:	b11b      	cbz	r3, 40383e <strcat+0x36>
  403836:	f810 3f01 	ldrb.w	r3, [r0, #1]!
  40383a:	2b00      	cmp	r3, #0
  40383c:	d1fb      	bne.n	403836 <strcat+0x2e>
  40383e:	f000 f803 	bl	403848 <strcpy>
  403842:	4620      	mov	r0, r4
  403844:	bd10      	pop	{r4, pc}
  403846:	bf00      	nop

00403848 <strcpy>:
  403848:	ea80 0201 	eor.w	r2, r0, r1
  40384c:	4684      	mov	ip, r0
  40384e:	f012 0f03 	tst.w	r2, #3
  403852:	d14f      	bne.n	4038f4 <strcpy+0xac>
  403854:	f011 0f03 	tst.w	r1, #3
  403858:	d132      	bne.n	4038c0 <strcpy+0x78>
  40385a:	f84d 4d04 	str.w	r4, [sp, #-4]!
  40385e:	f011 0f04 	tst.w	r1, #4
  403862:	f851 3b04 	ldr.w	r3, [r1], #4
  403866:	d00b      	beq.n	403880 <strcpy+0x38>
  403868:	f1a3 3201 	sub.w	r2, r3, #16843009	; 0x1010101
  40386c:	439a      	bics	r2, r3
  40386e:	f012 3f80 	tst.w	r2, #2155905152	; 0x80808080
  403872:	bf04      	itt	eq
  403874:	f84c 3b04 	streq.w	r3, [ip], #4
  403878:	f851 3b04 	ldreq.w	r3, [r1], #4
  40387c:	d116      	bne.n	4038ac <strcpy+0x64>
  40387e:	bf00      	nop
  403880:	f851 4b04 	ldr.w	r4, [r1], #4
  403884:	f1a3 3201 	sub.w	r2, r3, #16843009	; 0x1010101
  403888:	439a      	bics	r2, r3
  40388a:	f012 3f80 	tst.w	r2, #2155905152	; 0x80808080
  40388e:	f1a4 3201 	sub.w	r2, r4, #16843009	; 0x1010101
  403892:	d10b      	bne.n	4038ac <strcpy+0x64>
  403894:	f84c 3b04 	str.w	r3, [ip], #4
  403898:	43a2      	bics	r2, r4
  40389a:	f012 3f80 	tst.w	r2, #2155905152	; 0x80808080
  40389e:	bf04      	itt	eq
  4038a0:	f851 3b04 	ldreq.w	r3, [r1], #4
  4038a4:	f84c 4b04 	streq.w	r4, [ip], #4
  4038a8:	d0ea      	beq.n	403880 <strcpy+0x38>
  4038aa:	4623      	mov	r3, r4
  4038ac:	f80c 3b01 	strb.w	r3, [ip], #1
  4038b0:	f013 0fff 	tst.w	r3, #255	; 0xff
  4038b4:	ea4f 2333 	mov.w	r3, r3, ror #8
  4038b8:	d1f8      	bne.n	4038ac <strcpy+0x64>
  4038ba:	f85d 4b04 	ldr.w	r4, [sp], #4
  4038be:	4770      	bx	lr
  4038c0:	f011 0f01 	tst.w	r1, #1
  4038c4:	d006      	beq.n	4038d4 <strcpy+0x8c>
  4038c6:	f811 2b01 	ldrb.w	r2, [r1], #1
  4038ca:	f80c 2b01 	strb.w	r2, [ip], #1
  4038ce:	2a00      	cmp	r2, #0
  4038d0:	bf08      	it	eq
  4038d2:	4770      	bxeq	lr
  4038d4:	f011 0f02 	tst.w	r1, #2
  4038d8:	d0bf      	beq.n	40385a <strcpy+0x12>
  4038da:	f831 2b02 	ldrh.w	r2, [r1], #2
  4038de:	f012 0fff 	tst.w	r2, #255	; 0xff
  4038e2:	bf16      	itet	ne
  4038e4:	f82c 2b02 	strhne.w	r2, [ip], #2
  4038e8:	f88c 2000 	strbeq.w	r2, [ip]
  4038ec:	f412 4f7f 	tstne.w	r2, #65280	; 0xff00
  4038f0:	d1b3      	bne.n	40385a <strcpy+0x12>
  4038f2:	4770      	bx	lr
  4038f4:	f811 2b01 	ldrb.w	r2, [r1], #1
  4038f8:	f80c 2b01 	strb.w	r2, [ip], #1
  4038fc:	2a00      	cmp	r2, #0
  4038fe:	d1f9      	bne.n	4038f4 <strcpy+0xac>
  403900:	4770      	bx	lr
  403902:	bf00      	nop
	...

00403940 <strlen>:
  403940:	f890 f000 	pld	[r0]
  403944:	e96d 4502 	strd	r4, r5, [sp, #-8]!
  403948:	f020 0107 	bic.w	r1, r0, #7
  40394c:	f06f 0c00 	mvn.w	ip, #0
  403950:	f010 0407 	ands.w	r4, r0, #7
  403954:	f891 f020 	pld	[r1, #32]
  403958:	f040 8049 	bne.w	4039ee <strlen+0xae>
  40395c:	f04f 0400 	mov.w	r4, #0
  403960:	f06f 0007 	mvn.w	r0, #7
  403964:	e9d1 2300 	ldrd	r2, r3, [r1]
  403968:	f891 f040 	pld	[r1, #64]	; 0x40
  40396c:	f100 0008 	add.w	r0, r0, #8
  403970:	fa82 f24c 	uadd8	r2, r2, ip
  403974:	faa4 f28c 	sel	r2, r4, ip
  403978:	fa83 f34c 	uadd8	r3, r3, ip
  40397c:	faa2 f38c 	sel	r3, r2, ip
  403980:	bb4b      	cbnz	r3, 4039d6 <strlen+0x96>
  403982:	e9d1 2302 	ldrd	r2, r3, [r1, #8]
  403986:	fa82 f24c 	uadd8	r2, r2, ip
  40398a:	f100 0008 	add.w	r0, r0, #8
  40398e:	faa4 f28c 	sel	r2, r4, ip
  403992:	fa83 f34c 	uadd8	r3, r3, ip
  403996:	faa2 f38c 	sel	r3, r2, ip
  40399a:	b9e3      	cbnz	r3, 4039d6 <strlen+0x96>
  40399c:	e9d1 2304 	ldrd	r2, r3, [r1, #16]
  4039a0:	fa82 f24c 	uadd8	r2, r2, ip
  4039a4:	f100 0008 	add.w	r0, r0, #8
  4039a8:	faa4 f28c 	sel	r2, r4, ip
  4039ac:	fa83 f34c 	uadd8	r3, r3, ip
  4039b0:	faa2 f38c 	sel	r3, r2, ip
  4039b4:	b97b      	cbnz	r3, 4039d6 <strlen+0x96>
  4039b6:	e9d1 2306 	ldrd	r2, r3, [r1, #24]
  4039ba:	f101 0120 	add.w	r1, r1, #32
  4039be:	fa82 f24c 	uadd8	r2, r2, ip
  4039c2:	f100 0008 	add.w	r0, r0, #8
  4039c6:	faa4 f28c 	sel	r2, r4, ip
  4039ca:	fa83 f34c 	uadd8	r3, r3, ip
  4039ce:	faa2 f38c 	sel	r3, r2, ip
  4039d2:	2b00      	cmp	r3, #0
  4039d4:	d0c6      	beq.n	403964 <strlen+0x24>
  4039d6:	2a00      	cmp	r2, #0
  4039d8:	bf04      	itt	eq
  4039da:	3004      	addeq	r0, #4
  4039dc:	461a      	moveq	r2, r3
  4039de:	ba12      	rev	r2, r2
  4039e0:	fab2 f282 	clz	r2, r2
  4039e4:	e8fd 4502 	ldrd	r4, r5, [sp], #8
  4039e8:	eb00 00d2 	add.w	r0, r0, r2, lsr #3
  4039ec:	4770      	bx	lr
  4039ee:	e9d1 2300 	ldrd	r2, r3, [r1]
  4039f2:	f004 0503 	and.w	r5, r4, #3
  4039f6:	f1c4 0000 	rsb	r0, r4, #0
  4039fa:	ea4f 05c5 	mov.w	r5, r5, lsl #3
  4039fe:	f014 0f04 	tst.w	r4, #4
  403a02:	f891 f040 	pld	[r1, #64]	; 0x40
  403a06:	fa0c f505 	lsl.w	r5, ip, r5
  403a0a:	ea62 0205 	orn	r2, r2, r5
  403a0e:	bf1c      	itt	ne
  403a10:	ea63 0305 	ornne	r3, r3, r5
  403a14:	4662      	movne	r2, ip
  403a16:	f04f 0400 	mov.w	r4, #0
  403a1a:	e7a9      	b.n	403970 <strlen+0x30>

00403a1c <sulp>:
  403a1c:	e92d 41f0 	stmdb	sp!, {r4, r5, r6, r7, r8, lr}
  403a20:	460f      	mov	r7, r1
  403a22:	4690      	mov	r8, r2
  403a24:	f001 fefe 	bl	405824 <__ulp>
  403a28:	4604      	mov	r4, r0
  403a2a:	460d      	mov	r5, r1
  403a2c:	f1b8 0f00 	cmp.w	r8, #0
  403a30:	d011      	beq.n	403a56 <sulp+0x3a>
  403a32:	f3c7 530a 	ubfx	r3, r7, #20, #11
  403a36:	f1c3 036b 	rsb	r3, r3, #107	; 0x6b
  403a3a:	2b00      	cmp	r3, #0
  403a3c:	dd0b      	ble.n	403a56 <sulp+0x3a>
  403a3e:	051b      	lsls	r3, r3, #20
  403a40:	f103 557f 	add.w	r5, r3, #1069547520	; 0x3fc00000
  403a44:	2400      	movs	r4, #0
  403a46:	f505 1540 	add.w	r5, r5, #3145728	; 0x300000
  403a4a:	4622      	mov	r2, r4
  403a4c:	462b      	mov	r3, r5
  403a4e:	f7ff fb13 	bl	403078 <__aeabi_dmul>
  403a52:	e8bd 81f0 	ldmia.w	sp!, {r4, r5, r6, r7, r8, pc}
  403a56:	4620      	mov	r0, r4
  403a58:	4629      	mov	r1, r5
  403a5a:	e8bd 81f0 	ldmia.w	sp!, {r4, r5, r6, r7, r8, pc}
  403a5e:	bf00      	nop

00403a60 <_strtod_r>:
  403a60:	e92d 4ff0 	stmdb	sp!, {r4, r5, r6, r7, r8, r9, sl, fp, lr}
  403a64:	b09f      	sub	sp, #124	; 0x7c
  403a66:	460e      	mov	r6, r1
  403a68:	2100      	movs	r1, #0
  403a6a:	9205      	str	r2, [sp, #20]
  403a6c:	911a      	str	r1, [sp, #104]	; 0x68
  403a6e:	2200      	movs	r2, #0
  403a70:	2100      	movs	r1, #0
  403a72:	e9cd 1202 	strd	r1, r2, [sp, #8]
  403a76:	9619      	str	r6, [sp, #100]	; 0x64
  403a78:	4683      	mov	fp, r0
  403a7a:	4633      	mov	r3, r6
  403a7c:	461a      	mov	r2, r3
  403a7e:	f813 7b01 	ldrb.w	r7, [r3], #1
  403a82:	2f2d      	cmp	r7, #45	; 0x2d
  403a84:	f200 80ee 	bhi.w	403c64 <_strtod_r+0x204>
  403a88:	e8df f017 	tbh	[pc, r7, lsl #1]
  403a8c:	00ec002e 	.word	0x00ec002e
  403a90:	00ec00ec 	.word	0x00ec00ec
  403a94:	00ec00ec 	.word	0x00ec00ec
  403a98:	00ec00ec 	.word	0x00ec00ec
  403a9c:	00db00ec 	.word	0x00db00ec
  403aa0:	00db00db 	.word	0x00db00db
  403aa4:	00db00db 	.word	0x00db00db
  403aa8:	00ec00ec 	.word	0x00ec00ec
  403aac:	00ec00ec 	.word	0x00ec00ec
  403ab0:	00ec00ec 	.word	0x00ec00ec
  403ab4:	00ec00ec 	.word	0x00ec00ec
  403ab8:	00ec00ec 	.word	0x00ec00ec
  403abc:	00ec00ec 	.word	0x00ec00ec
  403ac0:	00ec00ec 	.word	0x00ec00ec
  403ac4:	00ec00ec 	.word	0x00ec00ec
  403ac8:	00ec00ec 	.word	0x00ec00ec
  403acc:	00ec00db 	.word	0x00ec00db
  403ad0:	00ec00ec 	.word	0x00ec00ec
  403ad4:	00ec00ec 	.word	0x00ec00ec
  403ad8:	00ec00ec 	.word	0x00ec00ec
  403adc:	00ec00ec 	.word	0x00ec00ec
  403ae0:	004400ec 	.word	0x004400ec
  403ae4:	00d800ec 	.word	0x00d800ec
  403ae8:	9b05      	ldr	r3, [sp, #20]
  403aea:	f04f 0900 	mov.w	r9, #0
  403aee:	f04f 0a00 	mov.w	sl, #0
  403af2:	b153      	cbz	r3, 403b0a <_strtod_r+0xaa>
  403af4:	2300      	movs	r3, #0
  403af6:	9306      	str	r3, [sp, #24]
  403af8:	9b05      	ldr	r3, [sp, #20]
  403afa:	601e      	str	r6, [r3, #0]
  403afc:	9b06      	ldr	r3, [sp, #24]
  403afe:	b123      	cbz	r3, 403b0a <_strtod_r+0xaa>
  403b00:	4649      	mov	r1, r9
  403b02:	f10a 4300 	add.w	r3, sl, #2147483648	; 0x80000000
  403b06:	4689      	mov	r9, r1
  403b08:	469a      	mov	sl, r3
  403b0a:	4648      	mov	r0, r9
  403b0c:	4651      	mov	r1, sl
  403b0e:	b01f      	add	sp, #124	; 0x7c
  403b10:	e8bd 8ff0 	ldmia.w	sp!, {r4, r5, r6, r7, r8, r9, sl, fp, pc}
  403b14:	2300      	movs	r3, #0
  403b16:	9306      	str	r3, [sp, #24]
  403b18:	1c54      	adds	r4, r2, #1
  403b1a:	9419      	str	r4, [sp, #100]	; 0x64
  403b1c:	7857      	ldrb	r7, [r2, #1]
  403b1e:	2f00      	cmp	r7, #0
  403b20:	d0e2      	beq.n	403ae8 <_strtod_r+0x88>
  403b22:	2f30      	cmp	r7, #48	; 0x30
  403b24:	f000 80a4 	beq.w	403c70 <_strtod_r+0x210>
  403b28:	9408      	str	r4, [sp, #32]
  403b2a:	f04f 0a00 	mov.w	sl, #0
  403b2e:	f1a7 0330 	sub.w	r3, r7, #48	; 0x30
  403b32:	f04f 0800 	mov.w	r8, #0
  403b36:	2b09      	cmp	r3, #9
  403b38:	4645      	mov	r5, r8
  403b3a:	4623      	mov	r3, r4
  403b3c:	4644      	mov	r4, r8
  403b3e:	d819      	bhi.n	403b74 <_strtod_r+0x114>
  403b40:	2c08      	cmp	r4, #8
  403b42:	bfc8      	it	gt
  403b44:	eb08 0888 	addgt.w	r8, r8, r8, lsl #2
  403b48:	eb05 0285 	add.w	r2, r5, r5, lsl #2
  403b4c:	f103 0301 	add.w	r3, r3, #1
  403b50:	eb07 0242 	add.w	r2, r7, r2, lsl #1
  403b54:	9319      	str	r3, [sp, #100]	; 0x64
  403b56:	bfc4      	itt	gt
  403b58:	eb07 0748 	addgt.w	r7, r7, r8, lsl #1
  403b5c:	f1a7 0830 	subgt.w	r8, r7, #48	; 0x30
  403b60:	781f      	ldrb	r7, [r3, #0]
  403b62:	bfd8      	it	le
  403b64:	f1a2 0530 	suble.w	r5, r2, #48	; 0x30
  403b68:	f1a7 0230 	sub.w	r2, r7, #48	; 0x30
  403b6c:	2a09      	cmp	r2, #9
  403b6e:	f104 0401 	add.w	r4, r4, #1
  403b72:	d9e5      	bls.n	403b40 <_strtod_r+0xe0>
  403b74:	4658      	mov	r0, fp
  403b76:	9307      	str	r3, [sp, #28]
  403b78:	f001 fab8 	bl	4050ec <_localeconv_r>
  403b7c:	f8d0 9000 	ldr.w	r9, [r0]
  403b80:	4658      	mov	r0, fp
  403b82:	f001 fab3 	bl	4050ec <_localeconv_r>
  403b86:	6800      	ldr	r0, [r0, #0]
  403b88:	f7ff feda 	bl	403940 <strlen>
  403b8c:	9b07      	ldr	r3, [sp, #28]
  403b8e:	4602      	mov	r2, r0
  403b90:	4649      	mov	r1, r9
  403b92:	4618      	mov	r0, r3
  403b94:	f001 ffaa 	bl	405aec <strncmp>
  403b98:	4681      	mov	r9, r0
  403b9a:	2800      	cmp	r0, #0
  403b9c:	f000 80e2 	beq.w	403d64 <_strtod_r+0x304>
  403ba0:	2000      	movs	r0, #0
  403ba2:	4684      	mov	ip, r0
  403ba4:	4686      	mov	lr, r0
  403ba6:	46a1      	mov	r9, r4
  403ba8:	2f65      	cmp	r7, #101	; 0x65
  403baa:	d073      	beq.n	403c94 <_strtod_r+0x234>
  403bac:	2f45      	cmp	r7, #69	; 0x45
  403bae:	d071      	beq.n	403c94 <_strtod_r+0x234>
  403bb0:	2300      	movs	r3, #0
  403bb2:	f1b9 0f00 	cmp.w	r9, #0
  403bb6:	d046      	beq.n	403c46 <_strtod_r+0x1e6>
  403bb8:	f1b9 0f10 	cmp.w	r9, #16
  403bbc:	ebcc 0303 	rsb	r3, ip, r3
  403bc0:	4628      	mov	r0, r5
  403bc2:	46ca      	mov	sl, r9
  403bc4:	930a      	str	r3, [sp, #40]	; 0x28
  403bc6:	bfa8      	it	ge
  403bc8:	f04f 0a10 	movge.w	sl, #16
  403bcc:	f7ff f9de 	bl	402f8c <__aeabi_ui2d>
  403bd0:	2c00      	cmp	r4, #0
  403bd2:	bf08      	it	eq
  403bd4:	464c      	moveq	r4, r9
  403bd6:	f1ba 0f09 	cmp.w	sl, #9
  403bda:	e9cd 0102 	strd	r0, r1, [sp, #8]
  403bde:	dd13      	ble.n	403c08 <_strtod_r+0x1a8>
  403be0:	4b73      	ldr	r3, [pc, #460]	; (403db0 <_strtod_r+0x350>)
  403be2:	eb03 03ca 	add.w	r3, r3, sl, lsl #3
  403be6:	e953 2312 	ldrd	r2, r3, [r3, #-72]	; 0x48
  403bea:	f7ff fa45 	bl	403078 <__aeabi_dmul>
  403bee:	4606      	mov	r6, r0
  403bf0:	4640      	mov	r0, r8
  403bf2:	460f      	mov	r7, r1
  403bf4:	f7ff f9ca 	bl	402f8c <__aeabi_ui2d>
  403bf8:	4602      	mov	r2, r0
  403bfa:	460b      	mov	r3, r1
  403bfc:	4630      	mov	r0, r6
  403bfe:	4639      	mov	r1, r7
  403c00:	f7ff f888 	bl	402d14 <__adddf3>
  403c04:	e9cd 0102 	strd	r0, r1, [sp, #8]
  403c08:	f1b9 0f0f 	cmp.w	r9, #15
  403c0c:	f300 80d8 	bgt.w	403dc0 <_strtod_r+0x360>
  403c10:	9b0a      	ldr	r3, [sp, #40]	; 0x28
  403c12:	2b00      	cmp	r3, #0
  403c14:	f000 80a3 	beq.w	403d5e <_strtod_r+0x2fe>
  403c18:	f340 855a 	ble.w	4046d0 <_strtod_r+0xc70>
  403c1c:	9b0a      	ldr	r3, [sp, #40]	; 0x28
  403c1e:	2b16      	cmp	r3, #22
  403c20:	f300 8497 	bgt.w	404552 <_strtod_r+0xaf2>
  403c24:	4962      	ldr	r1, [pc, #392]	; (403db0 <_strtod_r+0x350>)
  403c26:	eb01 01c3 	add.w	r1, r1, r3, lsl #3
  403c2a:	e9d1 0100 	ldrd	r0, r1, [r1]
  403c2e:	e9dd 2302 	ldrd	r2, r3, [sp, #8]
  403c32:	f7ff fa21 	bl	403078 <__aeabi_dmul>
  403c36:	4681      	mov	r9, r0
  403c38:	468a      	mov	sl, r1
  403c3a:	e00d      	b.n	403c58 <_strtod_r+0x1f8>
  403c3c:	2301      	movs	r3, #1
  403c3e:	9306      	str	r3, [sp, #24]
  403c40:	e76a      	b.n	403b18 <_strtod_r+0xb8>
  403c42:	9319      	str	r3, [sp, #100]	; 0x64
  403c44:	e71a      	b.n	403a7c <_strtod_r+0x1c>
  403c46:	b918      	cbnz	r0, 403c50 <_strtod_r+0x1f0>
  403c48:	f1ba 0f00 	cmp.w	sl, #0
  403c4c:	f000 82a0 	beq.w	404190 <_strtod_r+0x730>
  403c50:	f04f 0900 	mov.w	r9, #0
  403c54:	f04f 0a00 	mov.w	sl, #0
  403c58:	9b05      	ldr	r3, [sp, #20]
  403c5a:	2b00      	cmp	r3, #0
  403c5c:	f43f af4e 	beq.w	403afc <_strtod_r+0x9c>
  403c60:	9e19      	ldr	r6, [sp, #100]	; 0x64
  403c62:	e749      	b.n	403af8 <_strtod_r+0x98>
  403c64:	2300      	movs	r3, #0
  403c66:	2f30      	cmp	r7, #48	; 0x30
  403c68:	4614      	mov	r4, r2
  403c6a:	9306      	str	r3, [sp, #24]
  403c6c:	f47f af5c 	bne.w	403b28 <_strtod_r+0xc8>
  403c70:	7863      	ldrb	r3, [r4, #1]
  403c72:	2b58      	cmp	r3, #88	; 0x58
  403c74:	f000 8346 	beq.w	404304 <_strtod_r+0x8a4>
  403c78:	2b78      	cmp	r3, #120	; 0x78
  403c7a:	f000 8343 	beq.w	404304 <_strtod_r+0x8a4>
  403c7e:	3401      	adds	r4, #1
  403c80:	9419      	str	r4, [sp, #100]	; 0x64
  403c82:	7827      	ldrb	r7, [r4, #0]
  403c84:	2f30      	cmp	r7, #48	; 0x30
  403c86:	d0fa      	beq.n	403c7e <_strtod_r+0x21e>
  403c88:	2f00      	cmp	r7, #0
  403c8a:	d0e1      	beq.n	403c50 <_strtod_r+0x1f0>
  403c8c:	9408      	str	r4, [sp, #32]
  403c8e:	f04f 0a01 	mov.w	sl, #1
  403c92:	e74c      	b.n	403b2e <_strtod_r+0xce>
  403c94:	f1b9 0f00 	cmp.w	r9, #0
  403c98:	f000 8216 	beq.w	4040c8 <_strtod_r+0x668>
  403c9c:	9e19      	ldr	r6, [sp, #100]	; 0x64
  403c9e:	1c73      	adds	r3, r6, #1
  403ca0:	9319      	str	r3, [sp, #100]	; 0x64
  403ca2:	7877      	ldrb	r7, [r6, #1]
  403ca4:	2f2b      	cmp	r7, #43	; 0x2b
  403ca6:	f000 826a 	beq.w	40417e <_strtod_r+0x71e>
  403caa:	2f2d      	cmp	r7, #45	; 0x2d
  403cac:	f000 8261 	beq.w	404172 <_strtod_r+0x712>
  403cb0:	2300      	movs	r3, #0
  403cb2:	9307      	str	r3, [sp, #28]
  403cb4:	f1a7 0330 	sub.w	r3, r7, #48	; 0x30
  403cb8:	2b09      	cmp	r3, #9
  403cba:	f200 8219 	bhi.w	4040f0 <_strtod_r+0x690>
  403cbe:	2f30      	cmp	r7, #48	; 0x30
  403cc0:	d105      	bne.n	403cce <_strtod_r+0x26e>
  403cc2:	9b19      	ldr	r3, [sp, #100]	; 0x64
  403cc4:	3301      	adds	r3, #1
  403cc6:	9319      	str	r3, [sp, #100]	; 0x64
  403cc8:	781f      	ldrb	r7, [r3, #0]
  403cca:	2f30      	cmp	r7, #48	; 0x30
  403ccc:	d0fa      	beq.n	403cc4 <_strtod_r+0x264>
  403cce:	f1a7 0331 	sub.w	r3, r7, #49	; 0x31
  403cd2:	2b08      	cmp	r3, #8
  403cd4:	f63f af6c 	bhi.w	403bb0 <_strtod_r+0x150>
  403cd8:	9b19      	ldr	r3, [sp, #100]	; 0x64
  403cda:	930a      	str	r3, [sp, #40]	; 0x28
  403cdc:	4619      	mov	r1, r3
  403cde:	1c5a      	adds	r2, r3, #1
  403ce0:	9219      	str	r2, [sp, #100]	; 0x64
  403ce2:	f1a7 0330 	sub.w	r3, r7, #48	; 0x30
  403ce6:	784f      	ldrb	r7, [r1, #1]
  403ce8:	f1a7 0130 	sub.w	r1, r7, #48	; 0x30
  403cec:	2909      	cmp	r1, #9
  403cee:	d80c      	bhi.n	403d0a <_strtod_r+0x2aa>
  403cf0:	3201      	adds	r2, #1
  403cf2:	9219      	str	r2, [sp, #100]	; 0x64
  403cf4:	eb03 0383 	add.w	r3, r3, r3, lsl #2
  403cf8:	eb07 0343 	add.w	r3, r7, r3, lsl #1
  403cfc:	7817      	ldrb	r7, [r2, #0]
  403cfe:	f1a7 0130 	sub.w	r1, r7, #48	; 0x30
  403d02:	2909      	cmp	r1, #9
  403d04:	f1a3 0330 	sub.w	r3, r3, #48	; 0x30
  403d08:	d9f2      	bls.n	403cf0 <_strtod_r+0x290>
  403d0a:	990a      	ldr	r1, [sp, #40]	; 0x28
  403d0c:	1a52      	subs	r2, r2, r1
  403d0e:	2a08      	cmp	r2, #8
  403d10:	f300 8416 	bgt.w	404540 <_strtod_r+0xae0>
  403d14:	f644 621f 	movw	r2, #19999	; 0x4e1f
  403d18:	4293      	cmp	r3, r2
  403d1a:	bfa8      	it	ge
  403d1c:	4613      	movge	r3, r2
  403d1e:	9a07      	ldr	r2, [sp, #28]
  403d20:	2a00      	cmp	r2, #0
  403d22:	f43f af46 	beq.w	403bb2 <_strtod_r+0x152>
  403d26:	425b      	negs	r3, r3
  403d28:	f1b9 0f00 	cmp.w	r9, #0
  403d2c:	f47f af44 	bne.w	403bb8 <_strtod_r+0x158>
  403d30:	e789      	b.n	403c46 <_strtod_r+0x1e6>
  403d32:	a819      	add	r0, sp, #100	; 0x64
  403d34:	491f      	ldr	r1, [pc, #124]	; (403db4 <_strtod_r+0x354>)
  403d36:	f001 f901 	bl	404f3c <__match>
  403d3a:	2800      	cmp	r0, #0
  403d3c:	f43f aed4 	beq.w	403ae8 <_strtod_r+0x88>
  403d40:	9b19      	ldr	r3, [sp, #100]	; 0x64
  403d42:	491d      	ldr	r1, [pc, #116]	; (403db8 <_strtod_r+0x358>)
  403d44:	3b01      	subs	r3, #1
  403d46:	a819      	add	r0, sp, #100	; 0x64
  403d48:	9319      	str	r3, [sp, #100]	; 0x64
  403d4a:	f001 f8f7 	bl	404f3c <__match>
  403d4e:	b910      	cbnz	r0, 403d56 <_strtod_r+0x2f6>
  403d50:	9b19      	ldr	r3, [sp, #100]	; 0x64
  403d52:	3301      	adds	r3, #1
  403d54:	9319      	str	r3, [sp, #100]	; 0x64
  403d56:	4b19      	ldr	r3, [pc, #100]	; (403dbc <_strtod_r+0x35c>)
  403d58:	9303      	str	r3, [sp, #12]
  403d5a:	2300      	movs	r3, #0
  403d5c:	9302      	str	r3, [sp, #8]
  403d5e:	e9dd 9a02 	ldrd	r9, sl, [sp, #8]
  403d62:	e779      	b.n	403c58 <_strtod_r+0x1f8>
  403d64:	4658      	mov	r0, fp
  403d66:	f001 f9c1 	bl	4050ec <_localeconv_r>
  403d6a:	6800      	ldr	r0, [r0, #0]
  403d6c:	f7ff fde8 	bl	403940 <strlen>
  403d70:	9a19      	ldr	r2, [sp, #100]	; 0x64
  403d72:	1813      	adds	r3, r2, r0
  403d74:	9319      	str	r3, [sp, #100]	; 0x64
  403d76:	5c17      	ldrb	r7, [r2, r0]
  403d78:	2c00      	cmp	r4, #0
  403d7a:	f040 81e8 	bne.w	40414e <_strtod_r+0x6ee>
  403d7e:	2f30      	cmp	r7, #48	; 0x30
  403d80:	4620      	mov	r0, r4
  403d82:	d106      	bne.n	403d92 <_strtod_r+0x332>
  403d84:	3301      	adds	r3, #1
  403d86:	9319      	str	r3, [sp, #100]	; 0x64
  403d88:	781f      	ldrb	r7, [r3, #0]
  403d8a:	2f30      	cmp	r7, #48	; 0x30
  403d8c:	f100 0001 	add.w	r0, r0, #1
  403d90:	d0f8      	beq.n	403d84 <_strtod_r+0x324>
  403d92:	f1a7 0331 	sub.w	r3, r7, #49	; 0x31
  403d96:	2b08      	cmp	r3, #8
  403d98:	f240 843b 	bls.w	404612 <_strtod_r+0xbb2>
  403d9c:	2f65      	cmp	r7, #101	; 0x65
  403d9e:	f000 818f 	beq.w	4040c0 <_strtod_r+0x660>
  403da2:	f04f 0900 	mov.w	r9, #0
  403da6:	46cc      	mov	ip, r9
  403da8:	f04f 0e01 	mov.w	lr, #1
  403dac:	e6fe      	b.n	403bac <_strtod_r+0x14c>
  403dae:	bf00      	nop
  403db0:	00406750 	.word	0x00406750
  403db4:	004065f4 	.word	0x004065f4
  403db8:	004065f8 	.word	0x004065f8
  403dbc:	7ff00000 	.word	0x7ff00000
  403dc0:	9b0a      	ldr	r3, [sp, #40]	; 0x28
  403dc2:	ebca 0a09 	rsb	sl, sl, r9
  403dc6:	449a      	add	sl, r3
  403dc8:	f1ba 0f00 	cmp.w	sl, #0
  403dcc:	f340 835f 	ble.w	40448e <_strtod_r+0xa2e>
  403dd0:	f01a 010f 	ands.w	r1, sl, #15
  403dd4:	d00a      	beq.n	403dec <_strtod_r+0x38c>
  403dd6:	4bb4      	ldr	r3, [pc, #720]	; (4040a8 <_strtod_r+0x648>)
  403dd8:	eb03 01c1 	add.w	r1, r3, r1, lsl #3
  403ddc:	e9d1 0100 	ldrd	r0, r1, [r1]
  403de0:	e9dd 2302 	ldrd	r2, r3, [sp, #8]
  403de4:	f7ff f948 	bl	403078 <__aeabi_dmul>
  403de8:	e9cd 0102 	strd	r0, r1, [sp, #8]
  403dec:	f03a 060f 	bics.w	r6, sl, #15
  403df0:	f040 8226 	bne.w	404240 <_strtod_r+0x7e0>
  403df4:	2300      	movs	r3, #0
  403df6:	9307      	str	r3, [sp, #28]
  403df8:	9500      	str	r5, [sp, #0]
  403dfa:	464b      	mov	r3, r9
  403dfc:	4622      	mov	r2, r4
  403dfe:	9908      	ldr	r1, [sp, #32]
  403e00:	4658      	mov	r0, fp
  403e02:	f001 fa81 	bl	405308 <__s2b>
  403e06:	900e      	str	r0, [sp, #56]	; 0x38
  403e08:	2800      	cmp	r0, #0
  403e0a:	f000 82c0 	beq.w	40438e <_strtod_r+0x92e>
  403e0e:	9a0a      	ldr	r2, [sp, #40]	; 0x28
  403e10:	2100      	movs	r1, #0
  403e12:	2a00      	cmp	r2, #0
  403e14:	f1c2 0300 	rsb	r3, r2, #0
  403e18:	bfa8      	it	ge
  403e1a:	460b      	movge	r3, r1
  403e1c:	930b      	str	r3, [sp, #44]	; 0x2c
  403e1e:	ea22 73e2 	bic.w	r3, r2, r2, asr #31
  403e22:	930a      	str	r3, [sp, #40]	; 0x28
  403e24:	460f      	mov	r7, r1
  403e26:	468a      	mov	sl, r1
  403e28:	9c0e      	ldr	r4, [sp, #56]	; 0x38
  403e2a:	4658      	mov	r0, fp
  403e2c:	6861      	ldr	r1, [r4, #4]
  403e2e:	f001 f9fb 	bl	405228 <_Balloc>
  403e32:	4680      	mov	r8, r0
  403e34:	2800      	cmp	r0, #0
  403e36:	f000 82d0 	beq.w	4043da <_strtod_r+0x97a>
  403e3a:	6922      	ldr	r2, [r4, #16]
  403e3c:	3202      	adds	r2, #2
  403e3e:	f104 010c 	add.w	r1, r4, #12
  403e42:	0092      	lsls	r2, r2, #2
  403e44:	300c      	adds	r0, #12
  403e46:	f001 f955 	bl	4050f4 <memcpy>
  403e4a:	e9dd 3402 	ldrd	r3, r4, [sp, #8]
  403e4e:	a81c      	add	r0, sp, #112	; 0x70
  403e50:	a91b      	add	r1, sp, #108	; 0x6c
  403e52:	e9cd 3408 	strd	r3, r4, [sp, #32]
  403e56:	461a      	mov	r2, r3
  403e58:	9001      	str	r0, [sp, #4]
  403e5a:	4623      	mov	r3, r4
  403e5c:	9100      	str	r1, [sp, #0]
  403e5e:	4658      	mov	r0, fp
  403e60:	f001 fd6c 	bl	40593c <__d2b>
  403e64:	901a      	str	r0, [sp, #104]	; 0x68
  403e66:	2800      	cmp	r0, #0
  403e68:	f000 8444 	beq.w	4046f4 <_strtod_r+0xc94>
  403e6c:	2101      	movs	r1, #1
  403e6e:	4658      	mov	r0, fp
  403e70:	f001 fae4 	bl	40543c <__i2b>
  403e74:	4607      	mov	r7, r0
  403e76:	2800      	cmp	r0, #0
  403e78:	f000 82af 	beq.w	4043da <_strtod_r+0x97a>
  403e7c:	9b1b      	ldr	r3, [sp, #108]	; 0x6c
  403e7e:	2b00      	cmp	r3, #0
  403e80:	f2c0 812a 	blt.w	4040d8 <_strtod_r+0x678>
  403e84:	9a0b      	ldr	r2, [sp, #44]	; 0x2c
  403e86:	9d0a      	ldr	r5, [sp, #40]	; 0x28
  403e88:	18d6      	adds	r6, r2, r3
  403e8a:	9907      	ldr	r1, [sp, #28]
  403e8c:	9c1c      	ldr	r4, [sp, #112]	; 0x70
  403e8e:	4a87      	ldr	r2, [pc, #540]	; (4040ac <_strtod_r+0x64c>)
  403e90:	1a5b      	subs	r3, r3, r1
  403e92:	4423      	add	r3, r4
  403e94:	3b01      	subs	r3, #1
  403e96:	4293      	cmp	r3, r2
  403e98:	f1c4 0436 	rsb	r4, r4, #54	; 0x36
  403e9c:	f280 80e7 	bge.w	40406e <_strtod_r+0x60e>
  403ea0:	1ad2      	subs	r2, r2, r3
  403ea2:	2a1f      	cmp	r2, #31
  403ea4:	eba4 0402 	sub.w	r4, r4, r2
  403ea8:	f300 811a 	bgt.w	4040e0 <_strtod_r+0x680>
  403eac:	2301      	movs	r3, #1
  403eae:	4093      	lsls	r3, r2
  403eb0:	930d      	str	r3, [sp, #52]	; 0x34
  403eb2:	2300      	movs	r3, #0
  403eb4:	930f      	str	r3, [sp, #60]	; 0x3c
  403eb6:	4425      	add	r5, r4
  403eb8:	9b07      	ldr	r3, [sp, #28]
  403eba:	4434      	add	r4, r6
  403ebc:	42a6      	cmp	r6, r4
  403ebe:	441d      	add	r5, r3
  403ec0:	4633      	mov	r3, r6
  403ec2:	bfa8      	it	ge
  403ec4:	4623      	movge	r3, r4
  403ec6:	42ab      	cmp	r3, r5
  403ec8:	bfa8      	it	ge
  403eca:	462b      	movge	r3, r5
  403ecc:	2b00      	cmp	r3, #0
  403ece:	dd02      	ble.n	403ed6 <_strtod_r+0x476>
  403ed0:	1ae4      	subs	r4, r4, r3
  403ed2:	1aed      	subs	r5, r5, r3
  403ed4:	1af6      	subs	r6, r6, r3
  403ed6:	9b0b      	ldr	r3, [sp, #44]	; 0x2c
  403ed8:	b1bb      	cbz	r3, 403f0a <_strtod_r+0x4aa>
  403eda:	4639      	mov	r1, r7
  403edc:	461a      	mov	r2, r3
  403ede:	4658      	mov	r0, fp
  403ee0:	f001 fb4e 	bl	405580 <__pow5mult>
  403ee4:	4607      	mov	r7, r0
  403ee6:	2800      	cmp	r0, #0
  403ee8:	f000 8277 	beq.w	4043da <_strtod_r+0x97a>
  403eec:	4601      	mov	r1, r0
  403eee:	9a1a      	ldr	r2, [sp, #104]	; 0x68
  403ef0:	4658      	mov	r0, fp
  403ef2:	f001 faad 	bl	405450 <__multiply>
  403ef6:	2800      	cmp	r0, #0
  403ef8:	f000 826f 	beq.w	4043da <_strtod_r+0x97a>
  403efc:	900c      	str	r0, [sp, #48]	; 0x30
  403efe:	991a      	ldr	r1, [sp, #104]	; 0x68
  403f00:	4658      	mov	r0, fp
  403f02:	f001 f9b7 	bl	405274 <_Bfree>
  403f06:	9b0c      	ldr	r3, [sp, #48]	; 0x30
  403f08:	931a      	str	r3, [sp, #104]	; 0x68
  403f0a:	2c00      	cmp	r4, #0
  403f0c:	dd08      	ble.n	403f20 <_strtod_r+0x4c0>
  403f0e:	4622      	mov	r2, r4
  403f10:	991a      	ldr	r1, [sp, #104]	; 0x68
  403f12:	4658      	mov	r0, fp
  403f14:	f001 fb84 	bl	405620 <__lshift>
  403f18:	901a      	str	r0, [sp, #104]	; 0x68
  403f1a:	2800      	cmp	r0, #0
  403f1c:	f000 83ea 	beq.w	4046f4 <_strtod_r+0xc94>
  403f20:	9b0a      	ldr	r3, [sp, #40]	; 0x28
  403f22:	b143      	cbz	r3, 403f36 <_strtod_r+0x4d6>
  403f24:	4641      	mov	r1, r8
  403f26:	9a0a      	ldr	r2, [sp, #40]	; 0x28
  403f28:	4658      	mov	r0, fp
  403f2a:	f001 fb29 	bl	405580 <__pow5mult>
  403f2e:	4680      	mov	r8, r0
  403f30:	2800      	cmp	r0, #0
  403f32:	f000 8252 	beq.w	4043da <_strtod_r+0x97a>
  403f36:	2d00      	cmp	r5, #0
  403f38:	dd08      	ble.n	403f4c <_strtod_r+0x4ec>
  403f3a:	4641      	mov	r1, r8
  403f3c:	462a      	mov	r2, r5
  403f3e:	4658      	mov	r0, fp
  403f40:	f001 fb6e 	bl	405620 <__lshift>
  403f44:	4680      	mov	r8, r0
  403f46:	2800      	cmp	r0, #0
  403f48:	f000 8247 	beq.w	4043da <_strtod_r+0x97a>
  403f4c:	2e00      	cmp	r6, #0
  403f4e:	dd08      	ble.n	403f62 <_strtod_r+0x502>
  403f50:	4639      	mov	r1, r7
  403f52:	4632      	mov	r2, r6
  403f54:	4658      	mov	r0, fp
  403f56:	f001 fb63 	bl	405620 <__lshift>
  403f5a:	4607      	mov	r7, r0
  403f5c:	2800      	cmp	r0, #0
  403f5e:	f000 823c 	beq.w	4043da <_strtod_r+0x97a>
  403f62:	4642      	mov	r2, r8
  403f64:	991a      	ldr	r1, [sp, #104]	; 0x68
  403f66:	4658      	mov	r0, fp
  403f68:	f001 fbd2 	bl	405710 <__mdiff>
  403f6c:	4682      	mov	sl, r0
  403f6e:	2800      	cmp	r0, #0
  403f70:	f000 8233 	beq.w	4043da <_strtod_r+0x97a>
  403f74:	2600      	movs	r6, #0
  403f76:	68c3      	ldr	r3, [r0, #12]
  403f78:	60c6      	str	r6, [r0, #12]
  403f7a:	4639      	mov	r1, r7
  403f7c:	930c      	str	r3, [sp, #48]	; 0x30
  403f7e:	f001 fba7 	bl	4056d0 <__mcmp>
  403f82:	42b0      	cmp	r0, r6
  403f84:	f2c0 83b9 	blt.w	4046fa <_strtod_r+0xc9a>
  403f88:	f000 840a 	beq.w	4047a0 <_strtod_r+0xd40>
  403f8c:	4639      	mov	r1, r7
  403f8e:	4650      	mov	r0, sl
  403f90:	f001 fd30 	bl	4059f4 <__ratio>
  403f94:	2200      	movs	r2, #0
  403f96:	f04f 4380 	mov.w	r3, #1073741824	; 0x40000000
  403f9a:	4604      	mov	r4, r0
  403f9c:	460d      	mov	r5, r1
  403f9e:	f7ff fae7 	bl	403570 <__aeabi_dcmple>
  403fa2:	2800      	cmp	r0, #0
  403fa4:	d068      	beq.n	404078 <_strtod_r+0x618>
  403fa6:	9b0c      	ldr	r3, [sp, #48]	; 0x30
  403fa8:	2b00      	cmp	r3, #0
  403faa:	f000 80ad 	beq.w	404108 <_strtod_r+0x6a8>
  403fae:	9b03      	ldr	r3, [sp, #12]
  403fb0:	4d3f      	ldr	r5, [pc, #252]	; (4040b0 <_strtod_r+0x650>)
  403fb2:	960d      	str	r6, [sp, #52]	; 0x34
  403fb4:	4699      	mov	r9, r3
  403fb6:	4b3e      	ldr	r3, [pc, #248]	; (4040b0 <_strtod_r+0x650>)
  403fb8:	930f      	str	r3, [sp, #60]	; 0x3c
  403fba:	2400      	movs	r4, #0
  403fbc:	4e3d      	ldr	r6, [pc, #244]	; (4040b4 <_strtod_r+0x654>)
  403fbe:	4b3e      	ldr	r3, [pc, #248]	; (4040b8 <_strtod_r+0x658>)
  403fc0:	464a      	mov	r2, r9
  403fc2:	4016      	ands	r6, r2
  403fc4:	429e      	cmp	r6, r3
  403fc6:	f000 81b8 	beq.w	40433a <_strtod_r+0x8da>
  403fca:	9b07      	ldr	r3, [sp, #28]
  403fcc:	b333      	cbz	r3, 40401c <_strtod_r+0x5bc>
  403fce:	f1b6 6fd4 	cmp.w	r6, #111149056	; 0x6a00000
  403fd2:	d823      	bhi.n	40401c <_strtod_r+0x5bc>
  403fd4:	f8dd 903c 	ldr.w	r9, [sp, #60]	; 0x3c
  403fd8:	980d      	ldr	r0, [sp, #52]	; 0x34
  403fda:	4649      	mov	r1, r9
  403fdc:	a330      	add	r3, pc, #192	; (adr r3, 4040a0 <_strtod_r+0x640>)
  403fde:	e9d3 2300 	ldrd	r2, r3, [r3]
  403fe2:	f7ff fac5 	bl	403570 <__aeabi_dcmple>
  403fe6:	b1b0      	cbz	r0, 404016 <_strtod_r+0x5b6>
  403fe8:	980d      	ldr	r0, [sp, #52]	; 0x34
  403fea:	4649      	mov	r1, r9
  403fec:	f7ff fb1c 	bl	403628 <__aeabi_d2uiz>
  403ff0:	2800      	cmp	r0, #0
  403ff2:	f000 82d0 	beq.w	404596 <_strtod_r+0xb36>
  403ff6:	f7fe ffc9 	bl	402f8c <__aeabi_ui2d>
  403ffa:	900d      	str	r0, [sp, #52]	; 0x34
  403ffc:	910f      	str	r1, [sp, #60]	; 0x3c
  403ffe:	9b0c      	ldr	r3, [sp, #48]	; 0x30
  404000:	2b00      	cmp	r3, #0
  404002:	f040 82c3 	bne.w	40458c <_strtod_r+0xb2c>
  404006:	9b0d      	ldr	r3, [sp, #52]	; 0x34
  404008:	9312      	str	r3, [sp, #72]	; 0x48
  40400a:	9b0f      	ldr	r3, [sp, #60]	; 0x3c
  40400c:	f103 4300 	add.w	r3, r3, #2147483648	; 0x80000000
  404010:	9313      	str	r3, [sp, #76]	; 0x4c
  404012:	e9dd 4512 	ldrd	r4, r5, [sp, #72]	; 0x48
  404016:	f105 63d6 	add.w	r3, r5, #112197632	; 0x6b00000
  40401a:	1b9d      	subs	r5, r3, r6
  40401c:	e9dd 0108 	ldrd	r0, r1, [sp, #32]
  404020:	f001 fc00 	bl	405824 <__ulp>
  404024:	4602      	mov	r2, r0
  404026:	460b      	mov	r3, r1
  404028:	4620      	mov	r0, r4
  40402a:	4629      	mov	r1, r5
  40402c:	f7ff f824 	bl	403078 <__aeabi_dmul>
  404030:	e9dd 2308 	ldrd	r2, r3, [sp, #32]
  404034:	f7fe fe6e 	bl	402d14 <__adddf3>
  404038:	e9cd 0102 	strd	r0, r1, [sp, #8]
  40403c:	460c      	mov	r4, r1
  40403e:	9b07      	ldr	r3, [sp, #28]
  404040:	b923      	cbnz	r3, 40404c <_strtod_r+0x5ec>
  404042:	4b1c      	ldr	r3, [pc, #112]	; (4040b4 <_strtod_r+0x654>)
  404044:	4023      	ands	r3, r4
  404046:	429e      	cmp	r6, r3
  404048:	f000 81e8 	beq.w	40441c <_strtod_r+0x9bc>
  40404c:	991a      	ldr	r1, [sp, #104]	; 0x68
  40404e:	4658      	mov	r0, fp
  404050:	f001 f910 	bl	405274 <_Bfree>
  404054:	4641      	mov	r1, r8
  404056:	4658      	mov	r0, fp
  404058:	f001 f90c 	bl	405274 <_Bfree>
  40405c:	4639      	mov	r1, r7
  40405e:	4658      	mov	r0, fp
  404060:	f001 f908 	bl	405274 <_Bfree>
  404064:	4651      	mov	r1, sl
  404066:	4658      	mov	r0, fp
  404068:	f001 f904 	bl	405274 <_Bfree>
  40406c:	e6dc      	b.n	403e28 <_strtod_r+0x3c8>
  40406e:	2300      	movs	r3, #0
  404070:	930f      	str	r3, [sp, #60]	; 0x3c
  404072:	2301      	movs	r3, #1
  404074:	930d      	str	r3, [sp, #52]	; 0x34
  404076:	e71e      	b.n	403eb6 <_strtod_r+0x456>
  404078:	4b10      	ldr	r3, [pc, #64]	; (4040bc <_strtod_r+0x65c>)
  40407a:	4620      	mov	r0, r4
  40407c:	4629      	mov	r1, r5
  40407e:	2200      	movs	r2, #0
  404080:	f7fe fffa 	bl	403078 <__aeabi_dmul>
  404084:	9b0c      	ldr	r3, [sp, #48]	; 0x30
  404086:	900d      	str	r0, [sp, #52]	; 0x34
  404088:	910f      	str	r1, [sp, #60]	; 0x3c
  40408a:	2b00      	cmp	r3, #0
  40408c:	d137      	bne.n	4040fe <_strtod_r+0x69e>
  40408e:	f101 4300 	add.w	r3, r1, #2147483648	; 0x80000000
  404092:	9010      	str	r0, [sp, #64]	; 0x40
  404094:	9311      	str	r3, [sp, #68]	; 0x44
  404096:	9b03      	ldr	r3, [sp, #12]
  404098:	e9dd 4510 	ldrd	r4, r5, [sp, #64]	; 0x40
  40409c:	4699      	mov	r9, r3
  40409e:	e78d      	b.n	403fbc <_strtod_r+0x55c>
  4040a0:	ffc00000 	.word	0xffc00000
  4040a4:	41dfffff 	.word	0x41dfffff
  4040a8:	00406750 	.word	0x00406750
  4040ac:	fffffc02 	.word	0xfffffc02
  4040b0:	3ff00000 	.word	0x3ff00000
  4040b4:	7ff00000 	.word	0x7ff00000
  4040b8:	7fe00000 	.word	0x7fe00000
  4040bc:	3fe00000 	.word	0x3fe00000
  4040c0:	f04f 0c00 	mov.w	ip, #0
  4040c4:	f04f 0e01 	mov.w	lr, #1
  4040c8:	2800      	cmp	r0, #0
  4040ca:	d15e      	bne.n	40418a <_strtod_r+0x72a>
  4040cc:	f1ba 0f00 	cmp.w	sl, #0
  4040d0:	f43f ad0a 	beq.w	403ae8 <_strtod_r+0x88>
  4040d4:	4681      	mov	r9, r0
  4040d6:	e5e1      	b.n	403c9c <_strtod_r+0x23c>
  4040d8:	9a0a      	ldr	r2, [sp, #40]	; 0x28
  4040da:	9e0b      	ldr	r6, [sp, #44]	; 0x2c
  4040dc:	1ad5      	subs	r5, r2, r3
  4040de:	e6d4      	b.n	403e8a <_strtod_r+0x42a>
  4040e0:	4ab0      	ldr	r2, [pc, #704]	; (4043a4 <_strtod_r+0x944>)
  4040e2:	1ad2      	subs	r2, r2, r3
  4040e4:	2301      	movs	r3, #1
  4040e6:	fa03 f202 	lsl.w	r2, r3, r2
  4040ea:	920f      	str	r2, [sp, #60]	; 0x3c
  4040ec:	930d      	str	r3, [sp, #52]	; 0x34
  4040ee:	e6e2      	b.n	403eb6 <_strtod_r+0x456>
  4040f0:	9619      	str	r6, [sp, #100]	; 0x64
  4040f2:	2300      	movs	r3, #0
  4040f4:	f1b9 0f00 	cmp.w	r9, #0
  4040f8:	f47f ad5e 	bne.w	403bb8 <_strtod_r+0x158>
  4040fc:	e5a3      	b.n	403c46 <_strtod_r+0x1e6>
  4040fe:	9a0d      	ldr	r2, [sp, #52]	; 0x34
  404100:	9b0f      	ldr	r3, [sp, #60]	; 0x3c
  404102:	e9cd 2310 	strd	r2, r3, [sp, #64]	; 0x40
  404106:	e7c6      	b.n	404096 <_strtod_r+0x636>
  404108:	e9dd 1202 	ldrd	r1, r2, [sp, #8]
  40410c:	2900      	cmp	r1, #0
  40410e:	f040 80db 	bne.w	4042c8 <_strtod_r+0x868>
  404112:	f3c2 0313 	ubfx	r3, r2, #0, #20
  404116:	4691      	mov	r9, r2
  404118:	2b00      	cmp	r3, #0
  40411a:	f040 80db 	bne.w	4042d4 <_strtod_r+0x874>
  40411e:	2200      	movs	r2, #0
  404120:	4ba1      	ldr	r3, [pc, #644]	; (4043a8 <_strtod_r+0x948>)
  404122:	4620      	mov	r0, r4
  404124:	4629      	mov	r1, r5
  404126:	f7ff fa19 	bl	40355c <__aeabi_dcmplt>
  40412a:	2800      	cmp	r0, #0
  40412c:	f040 835f 	bne.w	4047ee <_strtod_r+0xd8e>
  404130:	4b9e      	ldr	r3, [pc, #632]	; (4043ac <_strtod_r+0x94c>)
  404132:	4620      	mov	r0, r4
  404134:	4629      	mov	r1, r5
  404136:	2200      	movs	r2, #0
  404138:	f7fe ff9e 	bl	403078 <__aeabi_dmul>
  40413c:	f101 4300 	add.w	r3, r1, #2147483648	; 0x80000000
  404140:	900d      	str	r0, [sp, #52]	; 0x34
  404142:	9016      	str	r0, [sp, #88]	; 0x58
  404144:	910f      	str	r1, [sp, #60]	; 0x3c
  404146:	9317      	str	r3, [sp, #92]	; 0x5c
  404148:	e9dd 4516 	ldrd	r4, r5, [sp, #88]	; 0x58
  40414c:	e736      	b.n	403fbc <_strtod_r+0x55c>
  40414e:	4648      	mov	r0, r9
  404150:	46cc      	mov	ip, r9
  404152:	46a1      	mov	r9, r4
  404154:	f1a7 0330 	sub.w	r3, r7, #48	; 0x30
  404158:	2b09      	cmp	r3, #9
  40415a:	d813      	bhi.n	404184 <_strtod_r+0x724>
  40415c:	1c42      	adds	r2, r0, #1
  40415e:	461f      	mov	r7, r3
  404160:	2b00      	cmp	r3, #0
  404162:	f040 822d 	bne.w	4045c0 <_strtod_r+0xb60>
  404166:	4610      	mov	r0, r2
  404168:	9a19      	ldr	r2, [sp, #100]	; 0x64
  40416a:	1c53      	adds	r3, r2, #1
  40416c:	9319      	str	r3, [sp, #100]	; 0x64
  40416e:	7857      	ldrb	r7, [r2, #1]
  404170:	e7f0      	b.n	404154 <_strtod_r+0x6f4>
  404172:	2301      	movs	r3, #1
  404174:	9307      	str	r3, [sp, #28]
  404176:	1cb3      	adds	r3, r6, #2
  404178:	9319      	str	r3, [sp, #100]	; 0x64
  40417a:	78b7      	ldrb	r7, [r6, #2]
  40417c:	e59a      	b.n	403cb4 <_strtod_r+0x254>
  40417e:	2300      	movs	r3, #0
  404180:	9307      	str	r3, [sp, #28]
  404182:	e7f8      	b.n	404176 <_strtod_r+0x716>
  404184:	f04f 0e01 	mov.w	lr, #1
  404188:	e50e      	b.n	403ba8 <_strtod_r+0x148>
  40418a:	f04f 0900 	mov.w	r9, #0
  40418e:	e585      	b.n	403c9c <_strtod_r+0x23c>
  404190:	f1be 0f00 	cmp.w	lr, #0
  404194:	f47f aca8 	bne.w	403ae8 <_strtod_r+0x88>
  404198:	3f49      	subs	r7, #73	; 0x49
  40419a:	2f25      	cmp	r7, #37	; 0x25
  40419c:	f63f aca4 	bhi.w	403ae8 <_strtod_r+0x88>
  4041a0:	a301      	add	r3, pc, #4	; (adr r3, 4041a8 <_strtod_r+0x748>)
  4041a2:	f853 f027 	ldr.w	pc, [r3, r7, lsl #2]
  4041a6:	bf00      	nop
  4041a8:	00403d33 	.word	0x00403d33
  4041ac:	00403ae9 	.word	0x00403ae9
  4041b0:	00403ae9 	.word	0x00403ae9
  4041b4:	00403ae9 	.word	0x00403ae9
  4041b8:	00403ae9 	.word	0x00403ae9
  4041bc:	004042e3 	.word	0x004042e3
  4041c0:	00403ae9 	.word	0x00403ae9
  4041c4:	00403ae9 	.word	0x00403ae9
  4041c8:	00403ae9 	.word	0x00403ae9
  4041cc:	00403ae9 	.word	0x00403ae9
  4041d0:	00403ae9 	.word	0x00403ae9
  4041d4:	00403ae9 	.word	0x00403ae9
  4041d8:	00403ae9 	.word	0x00403ae9
  4041dc:	00403ae9 	.word	0x00403ae9
  4041e0:	00403ae9 	.word	0x00403ae9
  4041e4:	00403ae9 	.word	0x00403ae9
  4041e8:	00403ae9 	.word	0x00403ae9
  4041ec:	00403ae9 	.word	0x00403ae9
  4041f0:	00403ae9 	.word	0x00403ae9
  4041f4:	00403ae9 	.word	0x00403ae9
  4041f8:	00403ae9 	.word	0x00403ae9
  4041fc:	00403ae9 	.word	0x00403ae9
  404200:	00403ae9 	.word	0x00403ae9
  404204:	00403ae9 	.word	0x00403ae9
  404208:	00403ae9 	.word	0x00403ae9
  40420c:	00403ae9 	.word	0x00403ae9
  404210:	00403ae9 	.word	0x00403ae9
  404214:	00403ae9 	.word	0x00403ae9
  404218:	00403ae9 	.word	0x00403ae9
  40421c:	00403ae9 	.word	0x00403ae9
  404220:	00403ae9 	.word	0x00403ae9
  404224:	00403ae9 	.word	0x00403ae9
  404228:	00403d33 	.word	0x00403d33
  40422c:	00403ae9 	.word	0x00403ae9
  404230:	00403ae9 	.word	0x00403ae9
  404234:	00403ae9 	.word	0x00403ae9
  404238:	00403ae9 	.word	0x00403ae9
  40423c:	004042e3 	.word	0x004042e3
  404240:	f5b6 7f9a 	cmp.w	r6, #308	; 0x134
  404244:	f300 80a3 	bgt.w	40438e <_strtod_r+0x92e>
  404248:	1136      	asrs	r6, r6, #4
  40424a:	2e01      	cmp	r6, #1
  40424c:	f8df a180 	ldr.w	sl, [pc, #384]	; 4043d0 <_strtod_r+0x970>
  404250:	f340 82e5 	ble.w	40481e <_strtod_r+0xdbe>
  404254:	e9dd 0102 	ldrd	r0, r1, [sp, #8]
  404258:	2300      	movs	r3, #0
  40425a:	4657      	mov	r7, sl
  40425c:	4698      	mov	r8, r3
  40425e:	f016 0f01 	tst.w	r6, #1
  404262:	f108 0801 	add.w	r8, r8, #1
  404266:	ea4f 0666 	mov.w	r6, r6, asr #1
  40426a:	d004      	beq.n	404276 <_strtod_r+0x816>
  40426c:	e9d7 2300 	ldrd	r2, r3, [r7]
  404270:	f7fe ff02 	bl	403078 <__aeabi_dmul>
  404274:	2301      	movs	r3, #1
  404276:	2e01      	cmp	r6, #1
  404278:	f107 0708 	add.w	r7, r7, #8
  40427c:	d1ef      	bne.n	40425e <_strtod_r+0x7fe>
  40427e:	2b00      	cmp	r3, #0
  404280:	f040 8340 	bne.w	404904 <_strtod_r+0xea4>
  404284:	9b03      	ldr	r3, [sp, #12]
  404286:	f1a3 7354 	sub.w	r3, r3, #55574528	; 0x3500000
  40428a:	9303      	str	r3, [sp, #12]
  40428c:	eb0a 08c8 	add.w	r8, sl, r8, lsl #3
  404290:	e9dd 2302 	ldrd	r2, r3, [sp, #8]
  404294:	e9d8 0100 	ldrd	r0, r1, [r8]
  404298:	f7fe feee 	bl	403078 <__aeabi_dmul>
  40429c:	f021 4300 	bic.w	r3, r1, #2147483648	; 0x80000000
  4042a0:	0d1b      	lsrs	r3, r3, #20
  4042a2:	4a43      	ldr	r2, [pc, #268]	; (4043b0 <_strtod_r+0x950>)
  4042a4:	051b      	lsls	r3, r3, #20
  4042a6:	4293      	cmp	r3, r2
  4042a8:	e9cd 0102 	strd	r0, r1, [sp, #8]
  4042ac:	d86f      	bhi.n	40438e <_strtod_r+0x92e>
  4042ae:	f5a2 1280 	sub.w	r2, r2, #1048576	; 0x100000
  4042b2:	4293      	cmp	r3, r2
  4042b4:	f240 8296 	bls.w	4047e4 <_strtod_r+0xd84>
  4042b8:	4b3e      	ldr	r3, [pc, #248]	; (4043b4 <_strtod_r+0x954>)
  4042ba:	9303      	str	r3, [sp, #12]
  4042bc:	2300      	movs	r3, #0
  4042be:	9307      	str	r3, [sp, #28]
  4042c0:	f04f 33ff 	mov.w	r3, #4294967295
  4042c4:	9302      	str	r3, [sp, #8]
  4042c6:	e597      	b.n	403df8 <_strtod_r+0x398>
  4042c8:	e9dd 1202 	ldrd	r1, r2, [sp, #8]
  4042cc:	2901      	cmp	r1, #1
  4042ce:	f000 8166 	beq.w	40459e <_strtod_r+0xb3e>
  4042d2:	4691      	mov	r9, r2
  4042d4:	2300      	movs	r3, #0
  4042d6:	930d      	str	r3, [sp, #52]	; 0x34
  4042d8:	4b33      	ldr	r3, [pc, #204]	; (4043a8 <_strtod_r+0x948>)
  4042da:	4d37      	ldr	r5, [pc, #220]	; (4043b8 <_strtod_r+0x958>)
  4042dc:	930f      	str	r3, [sp, #60]	; 0x3c
  4042de:	2400      	movs	r4, #0
  4042e0:	e66c      	b.n	403fbc <_strtod_r+0x55c>
  4042e2:	a819      	add	r0, sp, #100	; 0x64
  4042e4:	4935      	ldr	r1, [pc, #212]	; (4043bc <_strtod_r+0x95c>)
  4042e6:	f000 fe29 	bl	404f3c <__match>
  4042ea:	2800      	cmp	r0, #0
  4042ec:	f43f abfc 	beq.w	403ae8 <_strtod_r+0x88>
  4042f0:	9b19      	ldr	r3, [sp, #100]	; 0x64
  4042f2:	781b      	ldrb	r3, [r3, #0]
  4042f4:	2b28      	cmp	r3, #40	; 0x28
  4042f6:	f000 82d5 	beq.w	4048a4 <_strtod_r+0xe44>
  4042fa:	4b31      	ldr	r3, [pc, #196]	; (4043c0 <_strtod_r+0x960>)
  4042fc:	9303      	str	r3, [sp, #12]
  4042fe:	2300      	movs	r3, #0
  404300:	9302      	str	r3, [sp, #8]
  404302:	e52c      	b.n	403d5e <_strtod_r+0x2fe>
  404304:	9a06      	ldr	r2, [sp, #24]
  404306:	9201      	str	r2, [sp, #4]
  404308:	ab1a      	add	r3, sp, #104	; 0x68
  40430a:	9300      	str	r3, [sp, #0]
  40430c:	4a2d      	ldr	r2, [pc, #180]	; (4043c4 <_strtod_r+0x964>)
  40430e:	ab1b      	add	r3, sp, #108	; 0x6c
  404310:	a919      	add	r1, sp, #100	; 0x64
  404312:	4658      	mov	r0, fp
  404314:	f000 fb8a 	bl	404a2c <__gethex>
  404318:	f010 0607 	ands.w	r6, r0, #7
  40431c:	4605      	mov	r5, r0
  40431e:	f43f ac97 	beq.w	403c50 <_strtod_r+0x1f0>
  404322:	2e06      	cmp	r6, #6
  404324:	f040 8183 	bne.w	40462e <_strtod_r+0xbce>
  404328:	1c63      	adds	r3, r4, #1
  40432a:	9319      	str	r3, [sp, #100]	; 0x64
  40432c:	2300      	movs	r3, #0
  40432e:	f04f 0900 	mov.w	r9, #0
  404332:	f04f 0a00 	mov.w	sl, #0
  404336:	9306      	str	r3, [sp, #24]
  404338:	e48e      	b.n	403c58 <_strtod_r+0x1f8>
  40433a:	f1a9 7354 	sub.w	r3, r9, #55574528	; 0x3500000
  40433e:	9303      	str	r3, [sp, #12]
  404340:	e9dd 2302 	ldrd	r2, r3, [sp, #8]
  404344:	4610      	mov	r0, r2
  404346:	4619      	mov	r1, r3
  404348:	f001 fa6c 	bl	405824 <__ulp>
  40434c:	4602      	mov	r2, r0
  40434e:	460b      	mov	r3, r1
  404350:	4620      	mov	r0, r4
  404352:	4629      	mov	r1, r5
  404354:	f7fe fe90 	bl	403078 <__aeabi_dmul>
  404358:	e9dd 2302 	ldrd	r2, r3, [sp, #8]
  40435c:	f7fe fcda 	bl	402d14 <__adddf3>
  404360:	f021 4300 	bic.w	r3, r1, #2147483648	; 0x80000000
  404364:	e9cd 0102 	strd	r0, r1, [sp, #8]
  404368:	0d1b      	lsrs	r3, r3, #20
  40436a:	4a17      	ldr	r2, [pc, #92]	; (4043c8 <_strtod_r+0x968>)
  40436c:	e9dd 0108 	ldrd	r0, r1, [sp, #32]
  404370:	051b      	lsls	r3, r3, #20
  404372:	4293      	cmp	r3, r2
  404374:	e9cd 0114 	strd	r0, r1, [sp, #80]	; 0x50
  404378:	f240 80e6 	bls.w	404548 <_strtod_r+0xae8>
  40437c:	4b0d      	ldr	r3, [pc, #52]	; (4043b4 <_strtod_r+0x954>)
  40437e:	4299      	cmp	r1, r3
  404380:	d028      	beq.n	4043d4 <_strtod_r+0x974>
  404382:	4b0c      	ldr	r3, [pc, #48]	; (4043b4 <_strtod_r+0x954>)
  404384:	9303      	str	r3, [sp, #12]
  404386:	f04f 33ff 	mov.w	r3, #4294967295
  40438a:	9302      	str	r3, [sp, #8]
  40438c:	e65e      	b.n	40404c <_strtod_r+0x5ec>
  40438e:	4b0f      	ldr	r3, [pc, #60]	; (4043cc <_strtod_r+0x96c>)
  404390:	9303      	str	r3, [sp, #12]
  404392:	2200      	movs	r2, #0
  404394:	2322      	movs	r3, #34	; 0x22
  404396:	9202      	str	r2, [sp, #8]
  404398:	e9dd 9a02 	ldrd	r9, sl, [sp, #8]
  40439c:	f8cb 3000 	str.w	r3, [fp]
  4043a0:	e45a      	b.n	403c58 <_strtod_r+0x1f8>
  4043a2:	bf00      	nop
  4043a4:	fffffbe2 	.word	0xfffffbe2
  4043a8:	3ff00000 	.word	0x3ff00000
  4043ac:	3fe00000 	.word	0x3fe00000
  4043b0:	7ca00000 	.word	0x7ca00000
  4043b4:	7fefffff 	.word	0x7fefffff
  4043b8:	bff00000 	.word	0xbff00000
  4043bc:	00406600 	.word	0x00406600
  4043c0:	fff80000 	.word	0xfff80000
  4043c4:	00406630 	.word	0x00406630
  4043c8:	7c9fffff 	.word	0x7c9fffff
  4043cc:	7ff00000 	.word	0x7ff00000
  4043d0:	00406818 	.word	0x00406818
  4043d4:	9b14      	ldr	r3, [sp, #80]	; 0x50
  4043d6:	3301      	adds	r3, #1
  4043d8:	d1d3      	bne.n	404382 <_strtod_r+0x922>
  4043da:	f8cd a028 	str.w	sl, [sp, #40]	; 0x28
  4043de:	981a      	ldr	r0, [sp, #104]	; 0x68
  4043e0:	4bb1      	ldr	r3, [pc, #708]	; (4046a8 <_strtod_r+0xc48>)
  4043e2:	9303      	str	r3, [sp, #12]
  4043e4:	2200      	movs	r2, #0
  4043e6:	9202      	str	r2, [sp, #8]
  4043e8:	e9dd 9a02 	ldrd	r9, sl, [sp, #8]
  4043ec:	2322      	movs	r3, #34	; 0x22
  4043ee:	f8cb 3000 	str.w	r3, [fp]
  4043f2:	4601      	mov	r1, r0
  4043f4:	4658      	mov	r0, fp
  4043f6:	f000 ff3d 	bl	405274 <_Bfree>
  4043fa:	4641      	mov	r1, r8
  4043fc:	4658      	mov	r0, fp
  4043fe:	f000 ff39 	bl	405274 <_Bfree>
  404402:	4639      	mov	r1, r7
  404404:	4658      	mov	r0, fp
  404406:	f000 ff35 	bl	405274 <_Bfree>
  40440a:	990e      	ldr	r1, [sp, #56]	; 0x38
  40440c:	4658      	mov	r0, fp
  40440e:	f000 ff31 	bl	405274 <_Bfree>
  404412:	990a      	ldr	r1, [sp, #40]	; 0x28
  404414:	4658      	mov	r0, fp
  404416:	f000 ff2d 	bl	405274 <_Bfree>
  40441a:	e41d      	b.n	403c58 <_strtod_r+0x1f8>
  40441c:	9e0d      	ldr	r6, [sp, #52]	; 0x34
  40441e:	9d0f      	ldr	r5, [sp, #60]	; 0x3c
  404420:	4630      	mov	r0, r6
  404422:	4629      	mov	r1, r5
  404424:	f7ff f8d8 	bl	4035d8 <__aeabi_d2iz>
  404428:	f7fe fdc0 	bl	402fac <__aeabi_i2d>
  40442c:	460b      	mov	r3, r1
  40442e:	4602      	mov	r2, r0
  404430:	4629      	mov	r1, r5
  404432:	4630      	mov	r0, r6
  404434:	f7fe fc6c 	bl	402d10 <__aeabi_dsub>
  404438:	9b0c      	ldr	r3, [sp, #48]	; 0x30
  40443a:	4605      	mov	r5, r0
  40443c:	460e      	mov	r6, r1
  40443e:	b993      	cbnz	r3, 404466 <_strtod_r+0xa06>
  404440:	9b02      	ldr	r3, [sp, #8]
  404442:	b983      	cbnz	r3, 404466 <_strtod_r+0xa06>
  404444:	f3c4 0413 	ubfx	r4, r4, #0, #20
  404448:	b96c      	cbnz	r4, 404466 <_strtod_r+0xa06>
  40444a:	a391      	add	r3, pc, #580	; (adr r3, 404690 <_strtod_r+0xc30>)
  40444c:	e9d3 2300 	ldrd	r2, r3, [r3]
  404450:	f7ff f884 	bl	40355c <__aeabi_dcmplt>
  404454:	2800      	cmp	r0, #0
  404456:	f43f adf9 	beq.w	40404c <_strtod_r+0x5ec>
  40445a:	f8cd a028 	str.w	sl, [sp, #40]	; 0x28
  40445e:	981a      	ldr	r0, [sp, #104]	; 0x68
  404460:	e9dd 9a02 	ldrd	r9, sl, [sp, #8]
  404464:	e7c5      	b.n	4043f2 <_strtod_r+0x992>
  404466:	a38c      	add	r3, pc, #560	; (adr r3, 404698 <_strtod_r+0xc38>)
  404468:	e9d3 2300 	ldrd	r2, r3, [r3]
  40446c:	4628      	mov	r0, r5
  40446e:	4631      	mov	r1, r6
  404470:	f7ff f874 	bl	40355c <__aeabi_dcmplt>
  404474:	2800      	cmp	r0, #0
  404476:	d1f0      	bne.n	40445a <_strtod_r+0x9fa>
  404478:	4628      	mov	r0, r5
  40447a:	4631      	mov	r1, r6
  40447c:	a388      	add	r3, pc, #544	; (adr r3, 4046a0 <_strtod_r+0xc40>)
  40447e:	e9d3 2300 	ldrd	r2, r3, [r3]
  404482:	f7ff f889 	bl	403598 <__aeabi_dcmpgt>
  404486:	2800      	cmp	r0, #0
  404488:	f43f ade0 	beq.w	40404c <_strtod_r+0x5ec>
  40448c:	e7e5      	b.n	40445a <_strtod_r+0x9fa>
  40448e:	f43f acb1 	beq.w	403df4 <_strtod_r+0x394>
  404492:	f1ca 0600 	rsb	r6, sl, #0
  404496:	f016 020f 	ands.w	r2, r6, #15
  40449a:	d00a      	beq.n	4044b2 <_strtod_r+0xa52>
  40449c:	4b83      	ldr	r3, [pc, #524]	; (4046ac <_strtod_r+0xc4c>)
  40449e:	eb03 03c2 	add.w	r3, r3, r2, lsl #3
  4044a2:	e9dd 0102 	ldrd	r0, r1, [sp, #8]
  4044a6:	e9d3 2300 	ldrd	r2, r3, [r3]
  4044aa:	f7fe ff0f 	bl	4032cc <__aeabi_ddiv>
  4044ae:	e9cd 0102 	strd	r0, r1, [sp, #8]
  4044b2:	1136      	asrs	r6, r6, #4
  4044b4:	f43f ac9e 	beq.w	403df4 <_strtod_r+0x394>
  4044b8:	2e1f      	cmp	r6, #31
  4044ba:	dc38      	bgt.n	40452e <_strtod_r+0xace>
  4044bc:	f016 0310 	ands.w	r3, r6, #16
  4044c0:	f000 81e0 	beq.w	404884 <_strtod_r+0xe24>
  4044c4:	236a      	movs	r3, #106	; 0x6a
  4044c6:	2e00      	cmp	r6, #0
  4044c8:	9307      	str	r3, [sp, #28]
  4044ca:	dd13      	ble.n	4044f4 <_strtod_r+0xa94>
  4044cc:	e9dd 0102 	ldrd	r0, r1, [sp, #8]
  4044d0:	4f77      	ldr	r7, [pc, #476]	; (4046b0 <_strtod_r+0xc50>)
  4044d2:	2300      	movs	r3, #0
  4044d4:	07f2      	lsls	r2, r6, #31
  4044d6:	d504      	bpl.n	4044e2 <_strtod_r+0xa82>
  4044d8:	e9d7 2300 	ldrd	r2, r3, [r7]
  4044dc:	f7fe fdcc 	bl	403078 <__aeabi_dmul>
  4044e0:	2301      	movs	r3, #1
  4044e2:	1076      	asrs	r6, r6, #1
  4044e4:	f107 0708 	add.w	r7, r7, #8
  4044e8:	d1f4      	bne.n	4044d4 <_strtod_r+0xa74>
  4044ea:	2b00      	cmp	r3, #0
  4044ec:	f040 81fc 	bne.w	4048e8 <_strtod_r+0xe88>
  4044f0:	9b07      	ldr	r3, [sp, #28]
  4044f2:	b19b      	cbz	r3, 40451c <_strtod_r+0xabc>
  4044f4:	e9dd 1202 	ldrd	r1, r2, [sp, #8]
  4044f8:	f3c2 530a 	ubfx	r3, r2, #20, #11
  4044fc:	f1c3 036b 	rsb	r3, r3, #107	; 0x6b
  404500:	2b00      	cmp	r3, #0
  404502:	4611      	mov	r1, r2
  404504:	dd0a      	ble.n	40451c <_strtod_r+0xabc>
  404506:	2b1f      	cmp	r3, #31
  404508:	f340 81c4 	ble.w	404894 <_strtod_r+0xe34>
  40450c:	2200      	movs	r2, #0
  40450e:	2b34      	cmp	r3, #52	; 0x34
  404510:	9202      	str	r2, [sp, #8]
  404512:	f340 81ef 	ble.w	4048f4 <_strtod_r+0xe94>
  404516:	f04f 735c 	mov.w	r3, #57671680	; 0x3700000
  40451a:	9303      	str	r3, [sp, #12]
  40451c:	2200      	movs	r2, #0
  40451e:	2300      	movs	r3, #0
  404520:	e9dd 0102 	ldrd	r0, r1, [sp, #8]
  404524:	f7ff f810 	bl	403548 <__aeabi_dcmpeq>
  404528:	2800      	cmp	r0, #0
  40452a:	f43f ac65 	beq.w	403df8 <_strtod_r+0x398>
  40452e:	2322      	movs	r3, #34	; 0x22
  404530:	f8cb 3000 	str.w	r3, [fp]
  404534:	f04f 0900 	mov.w	r9, #0
  404538:	f04f 0a00 	mov.w	sl, #0
  40453c:	f7ff bb8c 	b.w	403c58 <_strtod_r+0x1f8>
  404540:	f644 631f 	movw	r3, #19999	; 0x4e1f
  404544:	f7ff bbeb 	b.w	403d1e <_strtod_r+0x2be>
  404548:	9b03      	ldr	r3, [sp, #12]
  40454a:	f103 7454 	add.w	r4, r3, #55574528	; 0x3500000
  40454e:	9403      	str	r4, [sp, #12]
  404550:	e575      	b.n	40403e <_strtod_r+0x5de>
  404552:	9e0a      	ldr	r6, [sp, #40]	; 0x28
  404554:	f1c9 0325 	rsb	r3, r9, #37	; 0x25
  404558:	429e      	cmp	r6, r3
  40455a:	f73f ac31 	bgt.w	403dc0 <_strtod_r+0x360>
  40455e:	4c53      	ldr	r4, [pc, #332]	; (4046ac <_strtod_r+0xc4c>)
  404560:	f1c9 090f 	rsb	r9, r9, #15
  404564:	eb04 01c9 	add.w	r1, r4, r9, lsl #3
  404568:	ebc9 0906 	rsb	r9, r9, r6
  40456c:	e9dd 2302 	ldrd	r2, r3, [sp, #8]
  404570:	eb04 04c9 	add.w	r4, r4, r9, lsl #3
  404574:	e9d1 0100 	ldrd	r0, r1, [r1]
  404578:	f7fe fd7e 	bl	403078 <__aeabi_dmul>
  40457c:	e9d4 2300 	ldrd	r2, r3, [r4]
  404580:	f7fe fd7a 	bl	403078 <__aeabi_dmul>
  404584:	4681      	mov	r9, r0
  404586:	468a      	mov	sl, r1
  404588:	f7ff bb66 	b.w	403c58 <_strtod_r+0x1f8>
  40458c:	9a0d      	ldr	r2, [sp, #52]	; 0x34
  40458e:	9b0f      	ldr	r3, [sp, #60]	; 0x3c
  404590:	e9cd 2312 	strd	r2, r3, [sp, #72]	; 0x48
  404594:	e53d      	b.n	404012 <_strtod_r+0x5b2>
  404596:	4a47      	ldr	r2, [pc, #284]	; (4046b4 <_strtod_r+0xc54>)
  404598:	920f      	str	r2, [sp, #60]	; 0x3c
  40459a:	900d      	str	r0, [sp, #52]	; 0x34
  40459c:	e52f      	b.n	403ffe <_strtod_r+0x59e>
  40459e:	e9dd 1202 	ldrd	r1, r2, [sp, #8]
  4045a2:	4691      	mov	r9, r2
  4045a4:	2a00      	cmp	r2, #0
  4045a6:	f47f ae95 	bne.w	4042d4 <_strtod_r+0x874>
  4045aa:	f8cd a028 	str.w	sl, [sp, #40]	; 0x28
  4045ae:	2322      	movs	r3, #34	; 0x22
  4045b0:	f8cb 3000 	str.w	r3, [fp]
  4045b4:	981a      	ldr	r0, [sp, #104]	; 0x68
  4045b6:	f04f 0900 	mov.w	r9, #0
  4045ba:	f04f 0a00 	mov.w	sl, #0
  4045be:	e718      	b.n	4043f2 <_strtod_r+0x992>
  4045c0:	2a01      	cmp	r2, #1
  4045c2:	4494      	add	ip, r2
  4045c4:	bf18      	it	ne
  4045c6:	4448      	addne	r0, r9
  4045c8:	d103      	bne.n	4045d2 <_strtod_r+0xb72>
  4045ca:	e188      	b.n	4048de <_strtod_r+0xe7e>
  4045cc:	0055      	lsls	r5, r2, #1
  4045ce:	4581      	cmp	r9, r0
  4045d0:	d00f      	beq.n	4045f2 <_strtod_r+0xb92>
  4045d2:	f109 0901 	add.w	r9, r9, #1
  4045d6:	f109 32ff 	add.w	r2, r9, #4294967295
  4045da:	2a08      	cmp	r2, #8
  4045dc:	eb05 0285 	add.w	r2, r5, r5, lsl #2
  4045e0:	ddf4      	ble.n	4045cc <_strtod_r+0xb6c>
  4045e2:	f1b9 0f10 	cmp.w	r9, #16
  4045e6:	bfdc      	itt	le
  4045e8:	eb08 0888 	addle.w	r8, r8, r8, lsl #2
  4045ec:	ea4f 0848 	movle.w	r8, r8, lsl #1
  4045f0:	e7ed      	b.n	4045ce <_strtod_r+0xb6e>
  4045f2:	9a19      	ldr	r2, [sp, #100]	; 0x64
  4045f4:	f109 0901 	add.w	r9, r9, #1
  4045f8:	2808      	cmp	r0, #8
  4045fa:	dd12      	ble.n	404622 <_strtod_r+0xbc2>
  4045fc:	f1b9 0f10 	cmp.w	r9, #16
  404600:	bfd8      	it	le
  404602:	eb08 0888 	addle.w	r8, r8, r8, lsl #2
  404606:	f04f 0000 	mov.w	r0, #0
  40460a:	bfd8      	it	le
  40460c:	eb03 0848 	addle.w	r8, r3, r8, lsl #1
  404610:	e5ab      	b.n	40416a <_strtod_r+0x70a>
  404612:	9b19      	ldr	r3, [sp, #100]	; 0x64
  404614:	9308      	str	r3, [sp, #32]
  404616:	3f30      	subs	r7, #48	; 0x30
  404618:	f100 0c01 	add.w	ip, r0, #1
  40461c:	461a      	mov	r2, r3
  40461e:	f04f 0901 	mov.w	r9, #1
  404622:	eb05 0585 	add.w	r5, r5, r5, lsl #2
  404626:	eb07 0545 	add.w	r5, r7, r5, lsl #1
  40462a:	2000      	movs	r0, #0
  40462c:	e59d      	b.n	40416a <_strtod_r+0x70a>
  40462e:	9a1a      	ldr	r2, [sp, #104]	; 0x68
  404630:	b13a      	cbz	r2, 404642 <_strtod_r+0xbe2>
  404632:	2135      	movs	r1, #53	; 0x35
  404634:	a81c      	add	r0, sp, #112	; 0x70
  404636:	f001 fa07 	bl	405a48 <__copybits>
  40463a:	4658      	mov	r0, fp
  40463c:	991a      	ldr	r1, [sp, #104]	; 0x68
  40463e:	f000 fe19 	bl	405274 <_Bfree>
  404642:	2e06      	cmp	r6, #6
  404644:	d80b      	bhi.n	40465e <_strtod_r+0xbfe>
  404646:	e8df f006 	tbb	[pc, r6]
  40464a:	371d      	.short	0x371d
  40464c:	37041318 	.word	0x37041318
  404650:	1d          	.byte	0x1d
  404651:	00          	.byte	0x00
  404652:	f06f 4300 	mvn.w	r3, #2147483648	; 0x80000000
  404656:	9303      	str	r3, [sp, #12]
  404658:	f04f 33ff 	mov.w	r3, #4294967295
  40465c:	9302      	str	r3, [sp, #8]
  40465e:	0729      	lsls	r1, r5, #28
  404660:	f57f ab7d 	bpl.w	403d5e <_strtod_r+0x2fe>
  404664:	9b03      	ldr	r3, [sp, #12]
  404666:	f043 4300 	orr.w	r3, r3, #2147483648	; 0x80000000
  40466a:	9303      	str	r3, [sp, #12]
  40466c:	f7ff bb77 	b.w	403d5e <_strtod_r+0x2fe>
  404670:	4b0d      	ldr	r3, [pc, #52]	; (4046a8 <_strtod_r+0xc48>)
  404672:	9303      	str	r3, [sp, #12]
  404674:	2300      	movs	r3, #0
  404676:	9302      	str	r3, [sp, #8]
  404678:	e7f1      	b.n	40465e <_strtod_r+0xbfe>
  40467a:	9b1c      	ldr	r3, [sp, #112]	; 0x70
  40467c:	9302      	str	r3, [sp, #8]
  40467e:	9b1d      	ldr	r3, [sp, #116]	; 0x74
  404680:	9303      	str	r3, [sp, #12]
  404682:	e7ec      	b.n	40465e <_strtod_r+0xbfe>
  404684:	2300      	movs	r3, #0
  404686:	9303      	str	r3, [sp, #12]
  404688:	9302      	str	r3, [sp, #8]
  40468a:	e7e8      	b.n	40465e <_strtod_r+0xbfe>
  40468c:	f3af 8000 	nop.w
  404690:	94a03595 	.word	0x94a03595
  404694:	3fcfffff 	.word	0x3fcfffff
  404698:	94a03595 	.word	0x94a03595
  40469c:	3fdfffff 	.word	0x3fdfffff
  4046a0:	35afe535 	.word	0x35afe535
  4046a4:	3fe00000 	.word	0x3fe00000
  4046a8:	7ff00000 	.word	0x7ff00000
  4046ac:	00406750 	.word	0x00406750
  4046b0:	00406608 	.word	0x00406608
  4046b4:	3ff00000 	.word	0x3ff00000
  4046b8:	9a1b      	ldr	r2, [sp, #108]	; 0x6c
  4046ba:	9b1d      	ldr	r3, [sp, #116]	; 0x74
  4046bc:	991c      	ldr	r1, [sp, #112]	; 0x70
  4046be:	9102      	str	r1, [sp, #8]
  4046c0:	f202 4233 	addw	r2, r2, #1075	; 0x433
  4046c4:	f423 1380 	bic.w	r3, r3, #1048576	; 0x100000
  4046c8:	ea43 5302 	orr.w	r3, r3, r2, lsl #20
  4046cc:	9303      	str	r3, [sp, #12]
  4046ce:	e7c6      	b.n	40465e <_strtod_r+0xbfe>
  4046d0:	9a0a      	ldr	r2, [sp, #40]	; 0x28
  4046d2:	f112 0316 	adds.w	r3, r2, #22
  4046d6:	f6ff ab73 	blt.w	403dc0 <_strtod_r+0x360>
  4046da:	4b8c      	ldr	r3, [pc, #560]	; (40490c <_strtod_r+0xeac>)
  4046dc:	eba3 03c2 	sub.w	r3, r3, r2, lsl #3
  4046e0:	e9dd 0102 	ldrd	r0, r1, [sp, #8]
  4046e4:	e9d3 2300 	ldrd	r2, r3, [r3]
  4046e8:	f7fe fdf0 	bl	4032cc <__aeabi_ddiv>
  4046ec:	4681      	mov	r9, r0
  4046ee:	468a      	mov	sl, r1
  4046f0:	f7ff bab2 	b.w	403c58 <_strtod_r+0x1f8>
  4046f4:	f8cd a028 	str.w	sl, [sp, #40]	; 0x28
  4046f8:	e672      	b.n	4043e0 <_strtod_r+0x980>
  4046fa:	9e0c      	ldr	r6, [sp, #48]	; 0x30
  4046fc:	f8cd a028 	str.w	sl, [sp, #40]	; 0x28
  404700:	4655      	mov	r5, sl
  404702:	e9dd 9a08 	ldrd	r9, sl, [sp, #32]
  404706:	bb7e      	cbnz	r6, 404768 <_strtod_r+0xd08>
  404708:	e9dd 0102 	ldrd	r0, r1, [sp, #8]
  40470c:	bb60      	cbnz	r0, 404768 <_strtod_r+0xd08>
  40470e:	f3c1 0313 	ubfx	r3, r1, #0, #20
  404712:	460c      	mov	r4, r1
  404714:	bb43      	cbnz	r3, 404768 <_strtod_r+0xd08>
  404716:	f021 4300 	bic.w	r3, r1, #2147483648	; 0x80000000
  40471a:	0d1b      	lsrs	r3, r3, #20
  40471c:	051b      	lsls	r3, r3, #20
  40471e:	f1b3 6fd6 	cmp.w	r3, #112197632	; 0x6b00000
  404722:	d921      	bls.n	404768 <_strtod_r+0xd08>
  404724:	696b      	ldr	r3, [r5, #20]
  404726:	b913      	cbnz	r3, 40472e <_strtod_r+0xcce>
  404728:	692b      	ldr	r3, [r5, #16]
  40472a:	2b01      	cmp	r3, #1
  40472c:	dd1c      	ble.n	404768 <_strtod_r+0xd08>
  40472e:	990a      	ldr	r1, [sp, #40]	; 0x28
  404730:	2201      	movs	r2, #1
  404732:	4658      	mov	r0, fp
  404734:	f000 ff74 	bl	405620 <__lshift>
  404738:	4639      	mov	r1, r7
  40473a:	900a      	str	r0, [sp, #40]	; 0x28
  40473c:	f000 ffc8 	bl	4056d0 <__mcmp>
  404740:	2800      	cmp	r0, #0
  404742:	dd11      	ble.n	404768 <_strtod_r+0xd08>
  404744:	9b07      	ldr	r3, [sp, #28]
  404746:	2b00      	cmp	r3, #0
  404748:	f040 80be 	bne.w	4048c8 <_strtod_r+0xe68>
  40474c:	4b70      	ldr	r3, [pc, #448]	; (404910 <_strtod_r+0xeb0>)
  40474e:	4023      	ands	r3, r4
  404750:	f5a3 1380 	sub.w	r3, r3, #1048576	; 0x100000
  404754:	ea6f 5313 	mvn.w	r3, r3, lsr #20
  404758:	ea6f 5303 	mvn.w	r3, r3, lsl #20
  40475c:	9303      	str	r3, [sp, #12]
  40475e:	f04f 33ff 	mov.w	r3, #4294967295
  404762:	9302      	str	r3, [sp, #8]
  404764:	e9dd 9a02 	ldrd	r9, sl, [sp, #8]
  404768:	9b07      	ldr	r3, [sp, #28]
  40476a:	b1bb      	cbz	r3, 40479c <_strtod_r+0xd3c>
  40476c:	4b69      	ldr	r3, [pc, #420]	; (404914 <_strtod_r+0xeb4>)
  40476e:	9315      	str	r3, [sp, #84]	; 0x54
  404770:	2300      	movs	r3, #0
  404772:	9314      	str	r3, [sp, #80]	; 0x50
  404774:	e9dd 2314 	ldrd	r2, r3, [sp, #80]	; 0x50
  404778:	4648      	mov	r0, r9
  40477a:	4651      	mov	r1, sl
  40477c:	f7fe fc7c 	bl	403078 <__aeabi_dmul>
  404780:	4603      	mov	r3, r0
  404782:	460c      	mov	r4, r1
  404784:	4681      	mov	r9, r0
  404786:	468a      	mov	sl, r1
  404788:	e9cd 3402 	strd	r3, r4, [sp, #8]
  40478c:	b931      	cbnz	r1, 40479c <_strtod_r+0xd3c>
  40478e:	9b02      	ldr	r3, [sp, #8]
  404790:	b923      	cbnz	r3, 40479c <_strtod_r+0xd3c>
  404792:	2322      	movs	r3, #34	; 0x22
  404794:	981a      	ldr	r0, [sp, #104]	; 0x68
  404796:	f8cb 3000 	str.w	r3, [fp]
  40479a:	e62a      	b.n	4043f2 <_strtod_r+0x992>
  40479c:	981a      	ldr	r0, [sp, #104]	; 0x68
  40479e:	e628      	b.n	4043f2 <_strtod_r+0x992>
  4047a0:	9e0c      	ldr	r6, [sp, #48]	; 0x30
  4047a2:	f8cd a028 	str.w	sl, [sp, #40]	; 0x28
  4047a6:	e9dd 9a08 	ldrd	r9, sl, [sp, #32]
  4047aa:	b34e      	cbz	r6, 404800 <_strtod_r+0xda0>
  4047ac:	e9dd 4502 	ldrd	r4, r5, [sp, #8]
  4047b0:	4b59      	ldr	r3, [pc, #356]	; (404918 <_strtod_r+0xeb8>)
  4047b2:	f3c5 0113 	ubfx	r1, r5, #0, #20
  4047b6:	4299      	cmp	r1, r3
  4047b8:	462a      	mov	r2, r5
  4047ba:	d045      	beq.n	404848 <_strtod_r+0xde8>
  4047bc:	9b0f      	ldr	r3, [sp, #60]	; 0x3c
  4047be:	b34b      	cbz	r3, 404814 <_strtod_r+0xdb4>
  4047c0:	9a03      	ldr	r2, [sp, #12]
  4047c2:	4213      	tst	r3, r2
  4047c4:	d0d0      	beq.n	404768 <_strtod_r+0xd08>
  4047c6:	e9dd 0102 	ldrd	r0, r1, [sp, #8]
  4047ca:	9a07      	ldr	r2, [sp, #28]
  4047cc:	b356      	cbz	r6, 404824 <_strtod_r+0xdc4>
  4047ce:	f7ff f925 	bl	403a1c <sulp>
  4047d2:	4602      	mov	r2, r0
  4047d4:	460b      	mov	r3, r1
  4047d6:	4648      	mov	r0, r9
  4047d8:	4651      	mov	r1, sl
  4047da:	f7fe fa9b 	bl	402d14 <__adddf3>
  4047de:	4681      	mov	r9, r0
  4047e0:	468a      	mov	sl, r1
  4047e2:	e7c1      	b.n	404768 <_strtod_r+0xd08>
  4047e4:	f101 7354 	add.w	r3, r1, #55574528	; 0x3500000
  4047e8:	9303      	str	r3, [sp, #12]
  4047ea:	f7ff bb03 	b.w	403df4 <_strtod_r+0x394>
  4047ee:	4b4b      	ldr	r3, [pc, #300]	; (40491c <_strtod_r+0xebc>)
  4047f0:	4c4b      	ldr	r4, [pc, #300]	; (404920 <_strtod_r+0xec0>)
  4047f2:	930f      	str	r3, [sp, #60]	; 0x3c
  4047f4:	2300      	movs	r3, #0
  4047f6:	e9cd 3416 	strd	r3, r4, [sp, #88]	; 0x58
  4047fa:	9b0c      	ldr	r3, [sp, #48]	; 0x30
  4047fc:	930d      	str	r3, [sp, #52]	; 0x34
  4047fe:	e4a3      	b.n	404148 <_strtod_r+0x6e8>
  404800:	e9dd 1202 	ldrd	r1, r2, [sp, #8]
  404804:	f3c2 0313 	ubfx	r3, r2, #0, #20
  404808:	4614      	mov	r4, r2
  40480a:	2b00      	cmp	r3, #0
  40480c:	d1d6      	bne.n	4047bc <_strtod_r+0xd5c>
  40480e:	2900      	cmp	r1, #0
  404810:	d1d4      	bne.n	4047bc <_strtod_r+0xd5c>
  404812:	e797      	b.n	404744 <_strtod_r+0xce4>
  404814:	9b0d      	ldr	r3, [sp, #52]	; 0x34
  404816:	9a02      	ldr	r2, [sp, #8]
  404818:	4213      	tst	r3, r2
  40481a:	d0a5      	beq.n	404768 <_strtod_r+0xd08>
  40481c:	e7d3      	b.n	4047c6 <_strtod_r+0xd66>
  40481e:	f04f 0800 	mov.w	r8, #0
  404822:	e52f      	b.n	404284 <_strtod_r+0x824>
  404824:	f7ff f8fa 	bl	403a1c <sulp>
  404828:	4602      	mov	r2, r0
  40482a:	460b      	mov	r3, r1
  40482c:	4648      	mov	r0, r9
  40482e:	4651      	mov	r1, sl
  404830:	f7fe fa6e 	bl	402d10 <__aeabi_dsub>
  404834:	2200      	movs	r2, #0
  404836:	2300      	movs	r3, #0
  404838:	4681      	mov	r9, r0
  40483a:	468a      	mov	sl, r1
  40483c:	f7fe fe84 	bl	403548 <__aeabi_dcmpeq>
  404840:	2800      	cmp	r0, #0
  404842:	f47f aeb4 	bne.w	4045ae <_strtod_r+0xb4e>
  404846:	e78f      	b.n	404768 <_strtod_r+0xd08>
  404848:	9b07      	ldr	r3, [sp, #28]
  40484a:	9902      	ldr	r1, [sp, #8]
  40484c:	b1fb      	cbz	r3, 40488e <_strtod_r+0xe2e>
  40484e:	4b30      	ldr	r3, [pc, #192]	; (404910 <_strtod_r+0xeb0>)
  404850:	402b      	ands	r3, r5
  404852:	f1b3 6fd4 	cmp.w	r3, #111149056	; 0x6a00000
  404856:	d81a      	bhi.n	40488e <_strtod_r+0xe2e>
  404858:	0d1b      	lsrs	r3, r3, #20
  40485a:	f1c3 036b 	rsb	r3, r3, #107	; 0x6b
  40485e:	f04f 30ff 	mov.w	r0, #4294967295
  404862:	fa00 f303 	lsl.w	r3, r0, r3
  404866:	428b      	cmp	r3, r1
  404868:	d1a8      	bne.n	4047bc <_strtod_r+0xd5c>
  40486a:	492e      	ldr	r1, [pc, #184]	; (404924 <_strtod_r+0xec4>)
  40486c:	428a      	cmp	r2, r1
  40486e:	d03e      	beq.n	4048ee <_strtod_r+0xe8e>
  404870:	4b27      	ldr	r3, [pc, #156]	; (404910 <_strtod_r+0xeb0>)
  404872:	4013      	ands	r3, r2
  404874:	f503 1380 	add.w	r3, r3, #1048576	; 0x100000
  404878:	9303      	str	r3, [sp, #12]
  40487a:	2300      	movs	r3, #0
  40487c:	9302      	str	r3, [sp, #8]
  40487e:	e9dd 9a02 	ldrd	r9, sl, [sp, #8]
  404882:	e771      	b.n	404768 <_strtod_r+0xd08>
  404884:	2e00      	cmp	r6, #0
  404886:	9307      	str	r3, [sp, #28]
  404888:	f73f ae20 	bgt.w	4044cc <_strtod_r+0xa6c>
  40488c:	e646      	b.n	40451c <_strtod_r+0xabc>
  40488e:	f04f 33ff 	mov.w	r3, #4294967295
  404892:	e7e8      	b.n	404866 <_strtod_r+0xe06>
  404894:	f04f 32ff 	mov.w	r2, #4294967295
  404898:	fa02 f303 	lsl.w	r3, r2, r3
  40489c:	9a02      	ldr	r2, [sp, #8]
  40489e:	401a      	ands	r2, r3
  4048a0:	9202      	str	r2, [sp, #8]
  4048a2:	e63b      	b.n	40451c <_strtod_r+0xabc>
  4048a4:	a819      	add	r0, sp, #100	; 0x64
  4048a6:	aa1c      	add	r2, sp, #112	; 0x70
  4048a8:	491f      	ldr	r1, [pc, #124]	; (404928 <_strtod_r+0xec8>)
  4048aa:	f000 fb5f 	bl	404f6c <__hexnan>
  4048ae:	2805      	cmp	r0, #5
  4048b0:	f47f ad23 	bne.w	4042fa <_strtod_r+0x89a>
  4048b4:	9b1d      	ldr	r3, [sp, #116]	; 0x74
  4048b6:	f043 43ff 	orr.w	r3, r3, #2139095040	; 0x7f800000
  4048ba:	f443 03e0 	orr.w	r3, r3, #7340032	; 0x700000
  4048be:	9303      	str	r3, [sp, #12]
  4048c0:	9b1c      	ldr	r3, [sp, #112]	; 0x70
  4048c2:	9302      	str	r3, [sp, #8]
  4048c4:	f7ff ba4b 	b.w	403d5e <_strtod_r+0x2fe>
  4048c8:	4b11      	ldr	r3, [pc, #68]	; (404910 <_strtod_r+0xeb0>)
  4048ca:	4023      	ands	r3, r4
  4048cc:	f1b3 6fd6 	cmp.w	r3, #112197632	; 0x6b00000
  4048d0:	f73f af3e 	bgt.w	404750 <_strtod_r+0xcf0>
  4048d4:	f1b3 7f5c 	cmp.w	r3, #57671680	; 0x3700000
  4048d8:	f73f af48 	bgt.w	40476c <_strtod_r+0xd0c>
  4048dc:	e667      	b.n	4045ae <_strtod_r+0xb4e>
  4048de:	4648      	mov	r0, r9
  4048e0:	9a19      	ldr	r2, [sp, #100]	; 0x64
  4048e2:	f109 0901 	add.w	r9, r9, #1
  4048e6:	e687      	b.n	4045f8 <_strtod_r+0xb98>
  4048e8:	e9cd 0102 	strd	r0, r1, [sp, #8]
  4048ec:	e600      	b.n	4044f0 <_strtod_r+0xa90>
  4048ee:	3301      	adds	r3, #1
  4048f0:	d1be      	bne.n	404870 <_strtod_r+0xe10>
  4048f2:	e574      	b.n	4043de <_strtod_r+0x97e>
  4048f4:	3b20      	subs	r3, #32
  4048f6:	f04f 32ff 	mov.w	r2, #4294967295
  4048fa:	fa02 f303 	lsl.w	r3, r2, r3
  4048fe:	400b      	ands	r3, r1
  404900:	9303      	str	r3, [sp, #12]
  404902:	e60b      	b.n	40451c <_strtod_r+0xabc>
  404904:	e9cd 0102 	strd	r0, r1, [sp, #8]
  404908:	e4bc      	b.n	404284 <_strtod_r+0x824>
  40490a:	bf00      	nop
  40490c:	00406750 	.word	0x00406750
  404910:	7ff00000 	.word	0x7ff00000
  404914:	39500000 	.word	0x39500000
  404918:	000fffff 	.word	0x000fffff
  40491c:	3fe00000 	.word	0x3fe00000
  404920:	bfe00000 	.word	0xbfe00000
  404924:	7fefffff 	.word	0x7fefffff
  404928:	004065e0 	.word	0x004065e0

0040492c <strtod>:
  40492c:	4b02      	ldr	r3, [pc, #8]	; (404938 <strtod+0xc>)
  40492e:	460a      	mov	r2, r1
  404930:	4601      	mov	r1, r0
  404932:	6818      	ldr	r0, [r3, #0]
  404934:	f7ff b894 	b.w	403a60 <_strtod_r>
  404938:	20400438 	.word	0x20400438

0040493c <register_fini>:
  40493c:	4b02      	ldr	r3, [pc, #8]	; (404948 <register_fini+0xc>)
  40493e:	b113      	cbz	r3, 404946 <register_fini+0xa>
  404940:	4802      	ldr	r0, [pc, #8]	; (40494c <register_fini+0x10>)
  404942:	f000 b805 	b.w	404950 <atexit>
  404946:	4770      	bx	lr
  404948:	00000000 	.word	0x00000000
  40494c:	0040495d 	.word	0x0040495d

00404950 <atexit>:
  404950:	2300      	movs	r3, #0
  404952:	4601      	mov	r1, r0
  404954:	461a      	mov	r2, r3
  404956:	4618      	mov	r0, r3
  404958:	f001 b918 	b.w	405b8c <__register_exitproc>

0040495c <__libc_fini_array>:
  40495c:	b538      	push	{r3, r4, r5, lr}
  40495e:	4d07      	ldr	r5, [pc, #28]	; (40497c <__libc_fini_array+0x20>)
  404960:	4c07      	ldr	r4, [pc, #28]	; (404980 <__libc_fini_array+0x24>)
  404962:	1b2c      	subs	r4, r5, r4
  404964:	10a4      	asrs	r4, r4, #2
  404966:	d005      	beq.n	404974 <__libc_fini_array+0x18>
  404968:	3c01      	subs	r4, #1
  40496a:	f855 3d04 	ldr.w	r3, [r5, #-4]!
  40496e:	4798      	blx	r3
  404970:	2c00      	cmp	r4, #0
  404972:	d1f9      	bne.n	404968 <__libc_fini_array+0xc>
  404974:	e8bd 4038 	ldmia.w	sp!, {r3, r4, r5, lr}
  404978:	f001 bf74 	b.w	406864 <_fini>
  40497c:	00406874 	.word	0x00406874
  404980:	00406870 	.word	0x00406870

00404984 <rshift>:
  404984:	6902      	ldr	r2, [r0, #16]
  404986:	114b      	asrs	r3, r1, #5
  404988:	4293      	cmp	r3, r2
  40498a:	da2e      	bge.n	4049ea <rshift+0x66>
  40498c:	b5f0      	push	{r4, r5, r6, r7, lr}
  40498e:	f011 011f 	ands.w	r1, r1, #31
  404992:	f100 0614 	add.w	r6, r0, #20
  404996:	eb06 0282 	add.w	r2, r6, r2, lsl #2
  40499a:	eb06 0e83 	add.w	lr, r6, r3, lsl #2
  40499e:	d029      	beq.n	4049f4 <rshift+0x70>
  4049a0:	f856 3023 	ldr.w	r3, [r6, r3, lsl #2]
  4049a4:	f10e 0504 	add.w	r5, lr, #4
  4049a8:	42aa      	cmp	r2, r5
  4049aa:	fa23 f401 	lsr.w	r4, r3, r1
  4049ae:	f1c1 0c20 	rsb	ip, r1, #32
  4049b2:	d939      	bls.n	404a28 <rshift+0xa4>
  4049b4:	f100 0710 	add.w	r7, r0, #16
  4049b8:	682b      	ldr	r3, [r5, #0]
  4049ba:	fa03 f30c 	lsl.w	r3, r3, ip
  4049be:	4323      	orrs	r3, r4
  4049c0:	f847 3f04 	str.w	r3, [r7, #4]!
  4049c4:	f855 3b04 	ldr.w	r3, [r5], #4
  4049c8:	42aa      	cmp	r2, r5
  4049ca:	fa23 f401 	lsr.w	r4, r3, r1
  4049ce:	d8f3      	bhi.n	4049b8 <rshift+0x34>
  4049d0:	ebce 0202 	rsb	r2, lr, r2
  4049d4:	3a05      	subs	r2, #5
  4049d6:	f022 0203 	bic.w	r2, r2, #3
  4049da:	3204      	adds	r2, #4
  4049dc:	4432      	add	r2, r6
  4049de:	6014      	str	r4, [r2, #0]
  4049e0:	b104      	cbz	r4, 4049e4 <rshift+0x60>
  4049e2:	3204      	adds	r2, #4
  4049e4:	1b93      	subs	r3, r2, r6
  4049e6:	109b      	asrs	r3, r3, #2
  4049e8:	e016      	b.n	404a18 <rshift+0x94>
  4049ea:	2300      	movs	r3, #0
  4049ec:	6103      	str	r3, [r0, #16]
  4049ee:	2300      	movs	r3, #0
  4049f0:	6143      	str	r3, [r0, #20]
  4049f2:	4770      	bx	lr
  4049f4:	4572      	cmp	r2, lr
  4049f6:	d912      	bls.n	404a1e <rshift+0x9a>
  4049f8:	f100 0410 	add.w	r4, r0, #16
  4049fc:	4671      	mov	r1, lr
  4049fe:	f851 5b04 	ldr.w	r5, [r1], #4
  404a02:	f844 5f04 	str.w	r5, [r4, #4]!
  404a06:	428a      	cmp	r2, r1
  404a08:	d8f9      	bhi.n	4049fe <rshift+0x7a>
  404a0a:	ea6f 030e 	mvn.w	r3, lr
  404a0e:	4413      	add	r3, r2
  404a10:	f023 0303 	bic.w	r3, r3, #3
  404a14:	3304      	adds	r3, #4
  404a16:	109b      	asrs	r3, r3, #2
  404a18:	6103      	str	r3, [r0, #16]
  404a1a:	b113      	cbz	r3, 404a22 <rshift+0x9e>
  404a1c:	bdf0      	pop	{r4, r5, r6, r7, pc}
  404a1e:	2300      	movs	r3, #0
  404a20:	6103      	str	r3, [r0, #16]
  404a22:	2300      	movs	r3, #0
  404a24:	6143      	str	r3, [r0, #20]
  404a26:	bdf0      	pop	{r4, r5, r6, r7, pc}
  404a28:	4632      	mov	r2, r6
  404a2a:	e7d8      	b.n	4049de <rshift+0x5a>

00404a2c <__gethex>:
  404a2c:	e92d 4ff0 	stmdb	sp!, {r4, r5, r6, r7, r8, r9, sl, fp, lr}
  404a30:	b08b      	sub	sp, #44	; 0x2c
  404a32:	4689      	mov	r9, r1
  404a34:	9203      	str	r2, [sp, #12]
  404a36:	9308      	str	r3, [sp, #32]
  404a38:	9005      	str	r0, [sp, #20]
  404a3a:	f000 fb57 	bl	4050ec <_localeconv_r>
  404a3e:	6803      	ldr	r3, [r0, #0]
  404a40:	9302      	str	r3, [sp, #8]
  404a42:	4618      	mov	r0, r3
  404a44:	461c      	mov	r4, r3
  404a46:	f7fe ff7b 	bl	403940 <strlen>
  404a4a:	f8d9 3000 	ldr.w	r3, [r9]
  404a4e:	9000      	str	r0, [sp, #0]
  404a50:	789a      	ldrb	r2, [r3, #2]
  404a52:	1821      	adds	r1, r4, r0
  404a54:	2a30      	cmp	r2, #48	; 0x30
  404a56:	f811 bc01 	ldrb.w	fp, [r1, #-1]
  404a5a:	f040 81aa 	bne.w	404db2 <__gethex+0x386>
  404a5e:	3303      	adds	r3, #3
  404a60:	f04f 0800 	mov.w	r8, #0
  404a64:	461c      	mov	r4, r3
  404a66:	f813 2b01 	ldrb.w	r2, [r3], #1
  404a6a:	2a30      	cmp	r2, #48	; 0x30
  404a6c:	f108 0801 	add.w	r8, r8, #1
  404a70:	d0f8      	beq.n	404a64 <__gethex+0x38>
  404a72:	4eb3      	ldr	r6, [pc, #716]	; (404d40 <__gethex+0x314>)
  404a74:	5cb3      	ldrb	r3, [r6, r2]
  404a76:	2b00      	cmp	r3, #0
  404a78:	f000 80f0 	beq.w	404c5c <__gethex+0x230>
  404a7c:	7823      	ldrb	r3, [r4, #0]
  404a7e:	f04f 0a00 	mov.w	sl, #0
  404a82:	5cf3      	ldrb	r3, [r6, r3]
  404a84:	4655      	mov	r5, sl
  404a86:	4627      	mov	r7, r4
  404a88:	b123      	cbz	r3, 404a94 <__gethex+0x68>
  404a8a:	f817 3f01 	ldrb.w	r3, [r7, #1]!
  404a8e:	5cf3      	ldrb	r3, [r6, r3]
  404a90:	2b00      	cmp	r3, #0
  404a92:	d1fa      	bne.n	404a8a <__gethex+0x5e>
  404a94:	9a00      	ldr	r2, [sp, #0]
  404a96:	9902      	ldr	r1, [sp, #8]
  404a98:	4638      	mov	r0, r7
  404a9a:	f001 f827 	bl	405aec <strncmp>
  404a9e:	2800      	cmp	r0, #0
  404aa0:	f000 8092 	beq.w	404bc8 <__gethex+0x19c>
  404aa4:	783b      	ldrb	r3, [r7, #0]
  404aa6:	2d00      	cmp	r5, #0
  404aa8:	f000 8172 	beq.w	404d90 <__gethex+0x364>
  404aac:	1bed      	subs	r5, r5, r7
  404aae:	00aa      	lsls	r2, r5, #2
  404ab0:	9201      	str	r2, [sp, #4]
  404ab2:	2b50      	cmp	r3, #80	; 0x50
  404ab4:	f000 8091 	beq.w	404bda <__gethex+0x1ae>
  404ab8:	2b70      	cmp	r3, #112	; 0x70
  404aba:	f000 808e 	beq.w	404bda <__gethex+0x1ae>
  404abe:	463d      	mov	r5, r7
  404ac0:	f8c9 7000 	str.w	r7, [r9]
  404ac4:	f1ba 0f00 	cmp.w	sl, #0
  404ac8:	f040 80b7 	bne.w	404c3a <__gethex+0x20e>
  404acc:	1b2b      	subs	r3, r5, r4
  404ace:	3b01      	subs	r3, #1
  404ad0:	2b07      	cmp	r3, #7
  404ad2:	4651      	mov	r1, sl
  404ad4:	dd04      	ble.n	404ae0 <__gethex+0xb4>
  404ad6:	105b      	asrs	r3, r3, #1
  404ad8:	2b07      	cmp	r3, #7
  404ada:	f101 0101 	add.w	r1, r1, #1
  404ade:	dcfa      	bgt.n	404ad6 <__gethex+0xaa>
  404ae0:	9805      	ldr	r0, [sp, #20]
  404ae2:	f000 fba1 	bl	405228 <_Balloc>
  404ae6:	4603      	mov	r3, r0
  404ae8:	3314      	adds	r3, #20
  404aea:	42a5      	cmp	r5, r4
  404aec:	9004      	str	r0, [sp, #16]
  404aee:	9307      	str	r3, [sp, #28]
  404af0:	f240 81d4 	bls.w	404e9c <__gethex+0x470>
  404af4:	4699      	mov	r9, r3
  404af6:	9b00      	ldr	r3, [sp, #0]
  404af8:	f04f 0800 	mov.w	r8, #0
  404afc:	f1c3 0301 	rsb	r3, r3, #1
  404b00:	4647      	mov	r7, r8
  404b02:	9306      	str	r3, [sp, #24]
  404b04:	e00f      	b.n	404b26 <__gethex+0xfa>
  404b06:	2f20      	cmp	r7, #32
  404b08:	f000 809f 	beq.w	404c4a <__gethex+0x21e>
  404b0c:	463a      	mov	r2, r7
  404b0e:	3704      	adds	r7, #4
  404b10:	f815 3c01 	ldrb.w	r3, [r5, #-1]
  404b14:	5cf3      	ldrb	r3, [r6, r3]
  404b16:	4655      	mov	r5, sl
  404b18:	f003 030f 	and.w	r3, r3, #15
  404b1c:	4093      	lsls	r3, r2
  404b1e:	42a5      	cmp	r5, r4
  404b20:	ea48 0803 	orr.w	r8, r8, r3
  404b24:	d915      	bls.n	404b52 <__gethex+0x126>
  404b26:	f815 3c01 	ldrb.w	r3, [r5, #-1]
  404b2a:	455b      	cmp	r3, fp
  404b2c:	f105 3aff 	add.w	sl, r5, #4294967295
  404b30:	d1e9      	bne.n	404b06 <__gethex+0xda>
  404b32:	9b06      	ldr	r3, [sp, #24]
  404b34:	4453      	add	r3, sl
  404b36:	42a3      	cmp	r3, r4
  404b38:	d3e5      	bcc.n	404b06 <__gethex+0xda>
  404b3a:	4618      	mov	r0, r3
  404b3c:	9a00      	ldr	r2, [sp, #0]
  404b3e:	9902      	ldr	r1, [sp, #8]
  404b40:	9309      	str	r3, [sp, #36]	; 0x24
  404b42:	f000 ffd3 	bl	405aec <strncmp>
  404b46:	9b09      	ldr	r3, [sp, #36]	; 0x24
  404b48:	2800      	cmp	r0, #0
  404b4a:	d1dc      	bne.n	404b06 <__gethex+0xda>
  404b4c:	461d      	mov	r5, r3
  404b4e:	42a5      	cmp	r5, r4
  404b50:	d8e9      	bhi.n	404b26 <__gethex+0xfa>
  404b52:	f849 8b04 	str.w	r8, [r9], #4
  404b56:	9b07      	ldr	r3, [sp, #28]
  404b58:	9a04      	ldr	r2, [sp, #16]
  404b5a:	ebc3 0909 	rsb	r9, r3, r9
  404b5e:	ea4f 03a9 	mov.w	r3, r9, asr #2
  404b62:	6113      	str	r3, [r2, #16]
  404b64:	4640      	mov	r0, r8
  404b66:	ea4f 1943 	mov.w	r9, r3, lsl #5
  404b6a:	f000 fc19 	bl	4053a0 <__hi0bits>
  404b6e:	9b03      	ldr	r3, [sp, #12]
  404b70:	681e      	ldr	r6, [r3, #0]
  404b72:	ebc0 0009 	rsb	r0, r0, r9
  404b76:	42b0      	cmp	r0, r6
  404b78:	f300 80e4 	bgt.w	404d44 <__gethex+0x318>
  404b7c:	f2c0 810a 	blt.w	404d94 <__gethex+0x368>
  404b80:	2700      	movs	r7, #0
  404b82:	9b03      	ldr	r3, [sp, #12]
  404b84:	9a01      	ldr	r2, [sp, #4]
  404b86:	689b      	ldr	r3, [r3, #8]
  404b88:	429a      	cmp	r2, r3
  404b8a:	f300 8097 	bgt.w	404cbc <__gethex+0x290>
  404b8e:	9803      	ldr	r0, [sp, #12]
  404b90:	9901      	ldr	r1, [sp, #4]
  404b92:	6843      	ldr	r3, [r0, #4]
  404b94:	4299      	cmp	r1, r3
  404b96:	f280 80b5 	bge.w	404d04 <__gethex+0x2d8>
  404b9a:	1a5d      	subs	r5, r3, r1
  404b9c:	42ae      	cmp	r6, r5
  404b9e:	f300 8110 	bgt.w	404dc2 <__gethex+0x396>
  404ba2:	68c2      	ldr	r2, [r0, #12]
  404ba4:	2a02      	cmp	r2, #2
  404ba6:	f000 8180 	beq.w	404eaa <__gethex+0x47e>
  404baa:	2a03      	cmp	r2, #3
  404bac:	f000 815d 	beq.w	404e6a <__gethex+0x43e>
  404bb0:	2a01      	cmp	r2, #1
  404bb2:	f000 817e 	beq.w	404eb2 <__gethex+0x486>
  404bb6:	9805      	ldr	r0, [sp, #20]
  404bb8:	9904      	ldr	r1, [sp, #16]
  404bba:	f000 fb5b 	bl	405274 <_Bfree>
  404bbe:	9a14      	ldr	r2, [sp, #80]	; 0x50
  404bc0:	2300      	movs	r3, #0
  404bc2:	6013      	str	r3, [r2, #0]
  404bc4:	2050      	movs	r0, #80	; 0x50
  404bc6:	e03d      	b.n	404c44 <__gethex+0x218>
  404bc8:	2d00      	cmp	r5, #0
  404bca:	f000 811a 	beq.w	404e02 <__gethex+0x3d6>
  404bce:	783b      	ldrb	r3, [r7, #0]
  404bd0:	e76c      	b.n	404aac <__gethex+0x80>
  404bd2:	2300      	movs	r3, #0
  404bd4:	9301      	str	r3, [sp, #4]
  404bd6:	f04f 0a01 	mov.w	sl, #1
  404bda:	787b      	ldrb	r3, [r7, #1]
  404bdc:	2b2b      	cmp	r3, #43	; 0x2b
  404bde:	f000 80ac 	beq.w	404d3a <__gethex+0x30e>
  404be2:	2b2d      	cmp	r3, #45	; 0x2d
  404be4:	d075      	beq.n	404cd2 <__gethex+0x2a6>
  404be6:	1c79      	adds	r1, r7, #1
  404be8:	2500      	movs	r5, #0
  404bea:	5cf3      	ldrb	r3, [r6, r3]
  404bec:	4854      	ldr	r0, [pc, #336]	; (404d40 <__gethex+0x314>)
  404bee:	1e5a      	subs	r2, r3, #1
  404bf0:	2a18      	cmp	r2, #24
  404bf2:	f63f af64 	bhi.w	404abe <__gethex+0x92>
  404bf6:	784a      	ldrb	r2, [r1, #1]
  404bf8:	5c82      	ldrb	r2, [r0, r2]
  404bfa:	1e50      	subs	r0, r2, #1
  404bfc:	2818      	cmp	r0, #24
  404bfe:	f1a3 0310 	sub.w	r3, r3, #16
  404c02:	f101 0101 	add.w	r1, r1, #1
  404c06:	d80b      	bhi.n	404c20 <__gethex+0x1f4>
  404c08:	f811 0f01 	ldrb.w	r0, [r1, #1]!
  404c0c:	eb03 0383 	add.w	r3, r3, r3, lsl #2
  404c10:	eb02 0343 	add.w	r3, r2, r3, lsl #1
  404c14:	5c32      	ldrb	r2, [r6, r0]
  404c16:	1e50      	subs	r0, r2, #1
  404c18:	2818      	cmp	r0, #24
  404c1a:	f1a3 0310 	sub.w	r3, r3, #16
  404c1e:	d9f3      	bls.n	404c08 <__gethex+0x1dc>
  404c20:	b105      	cbz	r5, 404c24 <__gethex+0x1f8>
  404c22:	425b      	negs	r3, r3
  404c24:	9a01      	ldr	r2, [sp, #4]
  404c26:	463d      	mov	r5, r7
  404c28:	441a      	add	r2, r3
  404c2a:	460f      	mov	r7, r1
  404c2c:	9201      	str	r2, [sp, #4]
  404c2e:	f8c9 7000 	str.w	r7, [r9]
  404c32:	f1ba 0f00 	cmp.w	sl, #0
  404c36:	f43f af49 	beq.w	404acc <__gethex+0xa0>
  404c3a:	f1b8 0f00 	cmp.w	r8, #0
  404c3e:	bf0c      	ite	eq
  404c40:	2006      	moveq	r0, #6
  404c42:	2000      	movne	r0, #0
  404c44:	b00b      	add	sp, #44	; 0x2c
  404c46:	e8bd 8ff0 	ldmia.w	sp!, {r4, r5, r6, r7, r8, r9, sl, fp, pc}
  404c4a:	f8c9 8000 	str.w	r8, [r9]
  404c4e:	f04f 0800 	mov.w	r8, #0
  404c52:	f109 0904 	add.w	r9, r9, #4
  404c56:	4642      	mov	r2, r8
  404c58:	2704      	movs	r7, #4
  404c5a:	e759      	b.n	404b10 <__gethex+0xe4>
  404c5c:	9d00      	ldr	r5, [sp, #0]
  404c5e:	9902      	ldr	r1, [sp, #8]
  404c60:	462a      	mov	r2, r5
  404c62:	4620      	mov	r0, r4
  404c64:	f000 ff42 	bl	405aec <strncmp>
  404c68:	2800      	cmp	r0, #0
  404c6a:	d036      	beq.n	404cda <__gethex+0x2ae>
  404c6c:	7823      	ldrb	r3, [r4, #0]
  404c6e:	4627      	mov	r7, r4
  404c70:	2b50      	cmp	r3, #80	; 0x50
  404c72:	d0ae      	beq.n	404bd2 <__gethex+0x1a6>
  404c74:	2b70      	cmp	r3, #112	; 0x70
  404c76:	d0ac      	beq.n	404bd2 <__gethex+0x1a6>
  404c78:	f8c9 7000 	str.w	r7, [r9]
  404c7c:	e7dd      	b.n	404c3a <__gethex+0x20e>
  404c7e:	9b04      	ldr	r3, [sp, #16]
  404c80:	689b      	ldr	r3, [r3, #8]
  404c82:	429f      	cmp	r7, r3
  404c84:	f280 8135 	bge.w	404ef2 <__gethex+0x4c6>
  404c88:	463b      	mov	r3, r7
  404c8a:	9804      	ldr	r0, [sp, #16]
  404c8c:	eb00 0283 	add.w	r2, r0, r3, lsl #2
  404c90:	2101      	movs	r1, #1
  404c92:	3301      	adds	r3, #1
  404c94:	2c02      	cmp	r4, #2
  404c96:	6103      	str	r3, [r0, #16]
  404c98:	6151      	str	r1, [r2, #20]
  404c9a:	f000 8119 	beq.w	404ed0 <__gethex+0x4a4>
  404c9e:	429f      	cmp	r7, r3
  404ca0:	f280 80dc 	bge.w	404e5c <__gethex+0x430>
  404ca4:	2101      	movs	r1, #1
  404ca6:	9804      	ldr	r0, [sp, #16]
  404ca8:	f7ff fe6c 	bl	404984 <rshift>
  404cac:	9b03      	ldr	r3, [sp, #12]
  404cae:	9a01      	ldr	r2, [sp, #4]
  404cb0:	689b      	ldr	r3, [r3, #8]
  404cb2:	3201      	adds	r2, #1
  404cb4:	429a      	cmp	r2, r3
  404cb6:	9201      	str	r2, [sp, #4]
  404cb8:	f340 80d3 	ble.w	404e62 <__gethex+0x436>
  404cbc:	9805      	ldr	r0, [sp, #20]
  404cbe:	9904      	ldr	r1, [sp, #16]
  404cc0:	f000 fad8 	bl	405274 <_Bfree>
  404cc4:	9a14      	ldr	r2, [sp, #80]	; 0x50
  404cc6:	2300      	movs	r3, #0
  404cc8:	20a3      	movs	r0, #163	; 0xa3
  404cca:	6013      	str	r3, [r2, #0]
  404ccc:	b00b      	add	sp, #44	; 0x2c
  404cce:	e8bd 8ff0 	ldmia.w	sp!, {r4, r5, r6, r7, r8, r9, sl, fp, pc}
  404cd2:	2501      	movs	r5, #1
  404cd4:	78bb      	ldrb	r3, [r7, #2]
  404cd6:	1cb9      	adds	r1, r7, #2
  404cd8:	e787      	b.n	404bea <__gethex+0x1be>
  404cda:	5d62      	ldrb	r2, [r4, r5]
  404cdc:	5cb3      	ldrb	r3, [r6, r2]
  404cde:	1967      	adds	r7, r4, r5
  404ce0:	2b00      	cmp	r3, #0
  404ce2:	d06a      	beq.n	404dba <__gethex+0x38e>
  404ce4:	2a30      	cmp	r2, #48	; 0x30
  404ce6:	463c      	mov	r4, r7
  404ce8:	d104      	bne.n	404cf4 <__gethex+0x2c8>
  404cea:	f814 3f01 	ldrb.w	r3, [r4, #1]!
  404cee:	2b30      	cmp	r3, #48	; 0x30
  404cf0:	d0fb      	beq.n	404cea <__gethex+0x2be>
  404cf2:	5cf3      	ldrb	r3, [r6, r3]
  404cf4:	fab3 fa83 	clz	sl, r3
  404cf8:	463d      	mov	r5, r7
  404cfa:	ea4f 1a5a 	mov.w	sl, sl, lsr #5
  404cfe:	f04f 0801 	mov.w	r8, #1
  404d02:	e6c0      	b.n	404a86 <__gethex+0x5a>
  404d04:	2401      	movs	r4, #1
  404d06:	b167      	cbz	r7, 404d22 <__gethex+0x2f6>
  404d08:	9b03      	ldr	r3, [sp, #12]
  404d0a:	68db      	ldr	r3, [r3, #12]
  404d0c:	2b02      	cmp	r3, #2
  404d0e:	f000 8086 	beq.w	404e1e <__gethex+0x3f2>
  404d12:	2b03      	cmp	r3, #3
  404d14:	f000 8087 	beq.w	404e26 <__gethex+0x3fa>
  404d18:	2b01      	cmp	r3, #1
  404d1a:	f000 80b6 	beq.w	404e8a <__gethex+0x45e>
  404d1e:	f044 0410 	orr.w	r4, r4, #16
  404d22:	9b14      	ldr	r3, [sp, #80]	; 0x50
  404d24:	461a      	mov	r2, r3
  404d26:	9b04      	ldr	r3, [sp, #16]
  404d28:	6013      	str	r3, [r2, #0]
  404d2a:	9b08      	ldr	r3, [sp, #32]
  404d2c:	461a      	mov	r2, r3
  404d2e:	9b01      	ldr	r3, [sp, #4]
  404d30:	6013      	str	r3, [r2, #0]
  404d32:	4620      	mov	r0, r4
  404d34:	b00b      	add	sp, #44	; 0x2c
  404d36:	e8bd 8ff0 	ldmia.w	sp!, {r4, r5, r6, r7, r8, r9, sl, fp, pc}
  404d3a:	2500      	movs	r5, #0
  404d3c:	e7ca      	b.n	404cd4 <__gethex+0x2a8>
  404d3e:	bf00      	nop
  404d40:	00406644 	.word	0x00406644
  404d44:	1b84      	subs	r4, r0, r6
  404d46:	4621      	mov	r1, r4
  404d48:	9804      	ldr	r0, [sp, #16]
  404d4a:	f000 fea1 	bl	405a90 <__any_on>
  404d4e:	2800      	cmp	r0, #0
  404d50:	d035      	beq.n	404dbe <__gethex+0x392>
  404d52:	1e62      	subs	r2, r4, #1
  404d54:	1151      	asrs	r1, r2, #5
  404d56:	9807      	ldr	r0, [sp, #28]
  404d58:	f002 031f 	and.w	r3, r2, #31
  404d5c:	f850 1021 	ldr.w	r1, [r0, r1, lsl #2]
  404d60:	2701      	movs	r7, #1
  404d62:	fa07 f303 	lsl.w	r3, r7, r3
  404d66:	420b      	tst	r3, r1
  404d68:	d00a      	beq.n	404d80 <__gethex+0x354>
  404d6a:	42ba      	cmp	r2, r7
  404d6c:	f340 809b 	ble.w	404ea6 <__gethex+0x47a>
  404d70:	1ea1      	subs	r1, r4, #2
  404d72:	9804      	ldr	r0, [sp, #16]
  404d74:	f000 fe8c 	bl	405a90 <__any_on>
  404d78:	2800      	cmp	r0, #0
  404d7a:	f000 8094 	beq.w	404ea6 <__gethex+0x47a>
  404d7e:	2703      	movs	r7, #3
  404d80:	9b01      	ldr	r3, [sp, #4]
  404d82:	9804      	ldr	r0, [sp, #16]
  404d84:	4423      	add	r3, r4
  404d86:	4621      	mov	r1, r4
  404d88:	9301      	str	r3, [sp, #4]
  404d8a:	f7ff fdfb 	bl	404984 <rshift>
  404d8e:	e6f8      	b.n	404b82 <__gethex+0x156>
  404d90:	9501      	str	r5, [sp, #4]
  404d92:	e68e      	b.n	404ab2 <__gethex+0x86>
  404d94:	1a34      	subs	r4, r6, r0
  404d96:	9904      	ldr	r1, [sp, #16]
  404d98:	9805      	ldr	r0, [sp, #20]
  404d9a:	4622      	mov	r2, r4
  404d9c:	f000 fc40 	bl	405620 <__lshift>
  404da0:	9b01      	ldr	r3, [sp, #4]
  404da2:	9004      	str	r0, [sp, #16]
  404da4:	1b1b      	subs	r3, r3, r4
  404da6:	9301      	str	r3, [sp, #4]
  404da8:	4603      	mov	r3, r0
  404daa:	3314      	adds	r3, #20
  404dac:	9307      	str	r3, [sp, #28]
  404dae:	2700      	movs	r7, #0
  404db0:	e6e7      	b.n	404b82 <__gethex+0x156>
  404db2:	1c9c      	adds	r4, r3, #2
  404db4:	f04f 0800 	mov.w	r8, #0
  404db8:	e65b      	b.n	404a72 <__gethex+0x46>
  404dba:	4613      	mov	r3, r2
  404dbc:	e758      	b.n	404c70 <__gethex+0x244>
  404dbe:	4607      	mov	r7, r0
  404dc0:	e7de      	b.n	404d80 <__gethex+0x354>
  404dc2:	1e6c      	subs	r4, r5, #1
  404dc4:	2f00      	cmp	r7, #0
  404dc6:	d14e      	bne.n	404e66 <__gethex+0x43a>
  404dc8:	b124      	cbz	r4, 404dd4 <__gethex+0x3a8>
  404dca:	4621      	mov	r1, r4
  404dcc:	9804      	ldr	r0, [sp, #16]
  404dce:	f000 fe5f 	bl	405a90 <__any_on>
  404dd2:	4607      	mov	r7, r0
  404dd4:	1163      	asrs	r3, r4, #5
  404dd6:	9a07      	ldr	r2, [sp, #28]
  404dd8:	9804      	ldr	r0, [sp, #16]
  404dda:	f852 2023 	ldr.w	r2, [r2, r3, lsl #2]
  404dde:	f004 041f 	and.w	r4, r4, #31
  404de2:	2301      	movs	r3, #1
  404de4:	fa03 f404 	lsl.w	r4, r3, r4
  404de8:	4214      	tst	r4, r2
  404dea:	4629      	mov	r1, r5
  404dec:	bf18      	it	ne
  404dee:	f047 0702 	orrne.w	r7, r7, #2
  404df2:	f7ff fdc7 	bl	404984 <rshift>
  404df6:	9b03      	ldr	r3, [sp, #12]
  404df8:	685b      	ldr	r3, [r3, #4]
  404dfa:	9301      	str	r3, [sp, #4]
  404dfc:	1b76      	subs	r6, r6, r5
  404dfe:	2402      	movs	r4, #2
  404e00:	e781      	b.n	404d06 <__gethex+0x2da>
  404e02:	9900      	ldr	r1, [sp, #0]
  404e04:	5c7b      	ldrb	r3, [r7, r1]
  404e06:	5cf2      	ldrb	r2, [r6, r3]
  404e08:	187d      	adds	r5, r7, r1
  404e0a:	462f      	mov	r7, r5
  404e0c:	2a00      	cmp	r2, #0
  404e0e:	f43f ae4d 	beq.w	404aac <__gethex+0x80>
  404e12:	f817 3f01 	ldrb.w	r3, [r7, #1]!
  404e16:	5cf2      	ldrb	r2, [r6, r3]
  404e18:	2a00      	cmp	r2, #0
  404e1a:	d1fa      	bne.n	404e12 <__gethex+0x3e6>
  404e1c:	e646      	b.n	404aac <__gethex+0x80>
  404e1e:	9b15      	ldr	r3, [sp, #84]	; 0x54
  404e20:	f1c3 0301 	rsb	r3, r3, #1
  404e24:	9315      	str	r3, [sp, #84]	; 0x54
  404e26:	9b15      	ldr	r3, [sp, #84]	; 0x54
  404e28:	2b00      	cmp	r3, #0
  404e2a:	f43f af78 	beq.w	404d1e <__gethex+0x2f2>
  404e2e:	9b04      	ldr	r3, [sp, #16]
  404e30:	9d07      	ldr	r5, [sp, #28]
  404e32:	691f      	ldr	r7, [r3, #16]
  404e34:	ea4f 0887 	mov.w	r8, r7, lsl #2
  404e38:	eb05 0008 	add.w	r0, r5, r8
  404e3c:	462b      	mov	r3, r5
  404e3e:	2100      	movs	r1, #0
  404e40:	e004      	b.n	404e4c <__gethex+0x420>
  404e42:	f843 1b04 	str.w	r1, [r3], #4
  404e46:	4298      	cmp	r0, r3
  404e48:	f67f af19 	bls.w	404c7e <__gethex+0x252>
  404e4c:	681a      	ldr	r2, [r3, #0]
  404e4e:	f1b2 3fff 	cmp.w	r2, #4294967295
  404e52:	d0f6      	beq.n	404e42 <__gethex+0x416>
  404e54:	3201      	adds	r2, #1
  404e56:	2c02      	cmp	r4, #2
  404e58:	601a      	str	r2, [r3, #0]
  404e5a:	d039      	beq.n	404ed0 <__gethex+0x4a4>
  404e5c:	f016 061f 	ands.w	r6, r6, #31
  404e60:	d13d      	bne.n	404ede <__gethex+0x4b2>
  404e62:	2421      	movs	r4, #33	; 0x21
  404e64:	e75d      	b.n	404d22 <__gethex+0x2f6>
  404e66:	2701      	movs	r7, #1
  404e68:	e7b4      	b.n	404dd4 <__gethex+0x3a8>
  404e6a:	9a15      	ldr	r2, [sp, #84]	; 0x54
  404e6c:	2a00      	cmp	r2, #0
  404e6e:	f43f aea2 	beq.w	404bb6 <__gethex+0x18a>
  404e72:	9908      	ldr	r1, [sp, #32]
  404e74:	600b      	str	r3, [r1, #0]
  404e76:	9b07      	ldr	r3, [sp, #28]
  404e78:	9904      	ldr	r1, [sp, #16]
  404e7a:	2201      	movs	r2, #1
  404e7c:	610a      	str	r2, [r1, #16]
  404e7e:	601a      	str	r2, [r3, #0]
  404e80:	9b14      	ldr	r3, [sp, #80]	; 0x50
  404e82:	461a      	mov	r2, r3
  404e84:	2062      	movs	r0, #98	; 0x62
  404e86:	6011      	str	r1, [r2, #0]
  404e88:	e6dc      	b.n	404c44 <__gethex+0x218>
  404e8a:	07ba      	lsls	r2, r7, #30
  404e8c:	f57f af47 	bpl.w	404d1e <__gethex+0x2f2>
  404e90:	9b07      	ldr	r3, [sp, #28]
  404e92:	681b      	ldr	r3, [r3, #0]
  404e94:	433b      	orrs	r3, r7
  404e96:	07db      	lsls	r3, r3, #31
  404e98:	d4c9      	bmi.n	404e2e <__gethex+0x402>
  404e9a:	e740      	b.n	404d1e <__gethex+0x2f2>
  404e9c:	f8dd 901c 	ldr.w	r9, [sp, #28]
  404ea0:	f04f 0800 	mov.w	r8, #0
  404ea4:	e655      	b.n	404b52 <__gethex+0x126>
  404ea6:	2702      	movs	r7, #2
  404ea8:	e76a      	b.n	404d80 <__gethex+0x354>
  404eaa:	9a15      	ldr	r2, [sp, #84]	; 0x54
  404eac:	2a00      	cmp	r2, #0
  404eae:	d0e0      	beq.n	404e72 <__gethex+0x446>
  404eb0:	e681      	b.n	404bb6 <__gethex+0x18a>
  404eb2:	42ae      	cmp	r6, r5
  404eb4:	f47f ae7f 	bne.w	404bb6 <__gethex+0x18a>
  404eb8:	2e01      	cmp	r6, #1
  404eba:	ddda      	ble.n	404e72 <__gethex+0x446>
  404ebc:	1e71      	subs	r1, r6, #1
  404ebe:	9804      	ldr	r0, [sp, #16]
  404ec0:	f000 fde6 	bl	405a90 <__any_on>
  404ec4:	2800      	cmp	r0, #0
  404ec6:	f43f ae76 	beq.w	404bb6 <__gethex+0x18a>
  404eca:	9b03      	ldr	r3, [sp, #12]
  404ecc:	685b      	ldr	r3, [r3, #4]
  404ece:	e7d0      	b.n	404e72 <__gethex+0x446>
  404ed0:	9b03      	ldr	r3, [sp, #12]
  404ed2:	681b      	ldr	r3, [r3, #0]
  404ed4:	3b01      	subs	r3, #1
  404ed6:	429e      	cmp	r6, r3
  404ed8:	d024      	beq.n	404f24 <__gethex+0x4f8>
  404eda:	2422      	movs	r4, #34	; 0x22
  404edc:	e721      	b.n	404d22 <__gethex+0x2f6>
  404ede:	4445      	add	r5, r8
  404ee0:	f1c6 0620 	rsb	r6, r6, #32
  404ee4:	f855 0c04 	ldr.w	r0, [r5, #-4]
  404ee8:	f000 fa5a 	bl	4053a0 <__hi0bits>
  404eec:	42b0      	cmp	r0, r6
  404eee:	dab8      	bge.n	404e62 <__gethex+0x436>
  404ef0:	e6d8      	b.n	404ca4 <__gethex+0x278>
  404ef2:	9b04      	ldr	r3, [sp, #16]
  404ef4:	f8dd 9014 	ldr.w	r9, [sp, #20]
  404ef8:	6859      	ldr	r1, [r3, #4]
  404efa:	4648      	mov	r0, r9
  404efc:	3101      	adds	r1, #1
  404efe:	f000 f993 	bl	405228 <_Balloc>
  404f02:	9904      	ldr	r1, [sp, #16]
  404f04:	690b      	ldr	r3, [r1, #16]
  404f06:	1c9a      	adds	r2, r3, #2
  404f08:	4605      	mov	r5, r0
  404f0a:	0092      	lsls	r2, r2, #2
  404f0c:	310c      	adds	r1, #12
  404f0e:	300c      	adds	r0, #12
  404f10:	f000 f8f0 	bl	4050f4 <memcpy>
  404f14:	9904      	ldr	r1, [sp, #16]
  404f16:	4648      	mov	r0, r9
  404f18:	f000 f9ac 	bl	405274 <_Bfree>
  404f1c:	9504      	str	r5, [sp, #16]
  404f1e:	692b      	ldr	r3, [r5, #16]
  404f20:	3514      	adds	r5, #20
  404f22:	e6b2      	b.n	404c8a <__gethex+0x25e>
  404f24:	1173      	asrs	r3, r6, #5
  404f26:	f006 061f 	and.w	r6, r6, #31
  404f2a:	f855 2023 	ldr.w	r2, [r5, r3, lsl #2]
  404f2e:	2301      	movs	r3, #1
  404f30:	40b3      	lsls	r3, r6
  404f32:	4213      	tst	r3, r2
  404f34:	bf14      	ite	ne
  404f36:	2421      	movne	r4, #33	; 0x21
  404f38:	2422      	moveq	r4, #34	; 0x22
  404f3a:	e6f2      	b.n	404d22 <__gethex+0x2f6>

00404f3c <__match>:
  404f3c:	b430      	push	{r4, r5}
  404f3e:	6804      	ldr	r4, [r0, #0]
  404f40:	e008      	b.n	404f54 <__match+0x18>
  404f42:	f814 3f01 	ldrb.w	r3, [r4, #1]!
  404f46:	f1a3 0541 	sub.w	r5, r3, #65	; 0x41
  404f4a:	2d19      	cmp	r5, #25
  404f4c:	bf98      	it	ls
  404f4e:	3320      	addls	r3, #32
  404f50:	4293      	cmp	r3, r2
  404f52:	d108      	bne.n	404f66 <__match+0x2a>
  404f54:	f811 2b01 	ldrb.w	r2, [r1], #1
  404f58:	2a00      	cmp	r2, #0
  404f5a:	d1f2      	bne.n	404f42 <__match+0x6>
  404f5c:	3401      	adds	r4, #1
  404f5e:	6004      	str	r4, [r0, #0]
  404f60:	2001      	movs	r0, #1
  404f62:	bc30      	pop	{r4, r5}
  404f64:	4770      	bx	lr
  404f66:	2000      	movs	r0, #0
  404f68:	bc30      	pop	{r4, r5}
  404f6a:	4770      	bx	lr

00404f6c <__hexnan>:
  404f6c:	e92d 4ff0 	stmdb	sp!, {r4, r5, r6, r7, r8, r9, sl, fp, lr}
  404f70:	680b      	ldr	r3, [r1, #0]
  404f72:	f8df 9174 	ldr.w	r9, [pc, #372]	; 4050e8 <__hexnan+0x17c>
  404f76:	b085      	sub	sp, #20
  404f78:	1159      	asrs	r1, r3, #5
  404f7a:	eb02 0181 	add.w	r1, r2, r1, lsl #2
  404f7e:	f013 031f 	ands.w	r3, r3, #31
  404f82:	9101      	str	r1, [sp, #4]
  404f84:	bf1c      	itt	ne
  404f86:	3104      	addne	r1, #4
  404f88:	9101      	strne	r1, [sp, #4]
  404f8a:	9c01      	ldr	r4, [sp, #4]
  404f8c:	9002      	str	r0, [sp, #8]
  404f8e:	9303      	str	r3, [sp, #12]
  404f90:	2300      	movs	r3, #0
  404f92:	4619      	mov	r1, r3
  404f94:	f844 3c04 	str.w	r3, [r4, #-4]
  404f98:	469a      	mov	sl, r3
  404f9a:	469e      	mov	lr, r3
  404f9c:	9b02      	ldr	r3, [sp, #8]
  404f9e:	f1a4 0c04 	sub.w	ip, r4, #4
  404fa2:	681d      	ldr	r5, [r3, #0]
  404fa4:	46e0      	mov	r8, ip
  404fa6:	4660      	mov	r0, ip
  404fa8:	f815 3f01 	ldrb.w	r3, [r5, #1]!
  404fac:	b323      	cbz	r3, 404ff8 <__hexnan+0x8c>
  404fae:	f819 4003 	ldrb.w	r4, [r9, r3]
  404fb2:	2c00      	cmp	r4, #0
  404fb4:	d143      	bne.n	40503e <__hexnan+0xd2>
  404fb6:	2b20      	cmp	r3, #32
  404fb8:	d85d      	bhi.n	405076 <__hexnan+0x10a>
  404fba:	45d6      	cmp	lr, sl
  404fbc:	ddf4      	ble.n	404fa8 <__hexnan+0x3c>
  404fbe:	4540      	cmp	r0, r8
  404fc0:	d213      	bcs.n	404fea <__hexnan+0x7e>
  404fc2:	2907      	cmp	r1, #7
  404fc4:	dc11      	bgt.n	404fea <__hexnan+0x7e>
  404fc6:	f1c1 0108 	rsb	r1, r1, #8
  404fca:	0089      	lsls	r1, r1, #2
  404fcc:	6806      	ldr	r6, [r0, #0]
  404fce:	f1c1 0b20 	rsb	fp, r1, #32
  404fd2:	4603      	mov	r3, r0
  404fd4:	685f      	ldr	r7, [r3, #4]
  404fd6:	fa07 f40b 	lsl.w	r4, r7, fp
  404fda:	4334      	orrs	r4, r6
  404fdc:	fa27 f601 	lsr.w	r6, r7, r1
  404fe0:	601c      	str	r4, [r3, #0]
  404fe2:	f843 6f04 	str.w	r6, [r3, #4]!
  404fe6:	4598      	cmp	r8, r3
  404fe8:	d8f4      	bhi.n	404fd4 <__hexnan+0x68>
  404fea:	4290      	cmp	r0, r2
  404fec:	d83a      	bhi.n	405064 <__hexnan+0xf8>
  404fee:	f815 3f01 	ldrb.w	r3, [r5, #1]!
  404ff2:	2108      	movs	r1, #8
  404ff4:	2b00      	cmp	r3, #0
  404ff6:	d1da      	bne.n	404fae <__hexnan+0x42>
  404ff8:	f1be 0f00 	cmp.w	lr, #0
  404ffc:	d03d      	beq.n	40507a <__hexnan+0x10e>
  404ffe:	4540      	cmp	r0, r8
  405000:	d201      	bcs.n	405006 <__hexnan+0x9a>
  405002:	2907      	cmp	r1, #7
  405004:	dd5c      	ble.n	4050c0 <__hexnan+0x154>
  405006:	4290      	cmp	r0, r2
  405008:	d93b      	bls.n	405082 <__hexnan+0x116>
  40500a:	4613      	mov	r3, r2
  40500c:	f850 1b04 	ldr.w	r1, [r0], #4
  405010:	f843 1b04 	str.w	r1, [r3], #4
  405014:	4584      	cmp	ip, r0
  405016:	d2f9      	bcs.n	40500c <__hexnan+0xa0>
  405018:	2100      	movs	r1, #0
  40501a:	f843 1b04 	str.w	r1, [r3], #4
  40501e:	459c      	cmp	ip, r3
  405020:	d2fb      	bcs.n	40501a <__hexnan+0xae>
  405022:	9b01      	ldr	r3, [sp, #4]
  405024:	f853 3c04 	ldr.w	r3, [r3, #-4]
  405028:	b92b      	cbnz	r3, 405036 <__hexnan+0xca>
  40502a:	4562      	cmp	r2, ip
  40502c:	d03a      	beq.n	4050a4 <__hexnan+0x138>
  40502e:	f85c 3d04 	ldr.w	r3, [ip, #-4]!
  405032:	2b00      	cmp	r3, #0
  405034:	d0f9      	beq.n	40502a <__hexnan+0xbe>
  405036:	2005      	movs	r0, #5
  405038:	b005      	add	sp, #20
  40503a:	e8bd 8ff0 	ldmia.w	sp!, {r4, r5, r6, r7, r8, r9, sl, fp, pc}
  40503e:	3101      	adds	r1, #1
  405040:	2908      	cmp	r1, #8
  405042:	f10e 0e01 	add.w	lr, lr, #1
  405046:	dd06      	ble.n	405056 <__hexnan+0xea>
  405048:	4290      	cmp	r0, r2
  40504a:	d9ad      	bls.n	404fa8 <__hexnan+0x3c>
  40504c:	2300      	movs	r3, #0
  40504e:	f840 3c04 	str.w	r3, [r0, #-4]
  405052:	2101      	movs	r1, #1
  405054:	3804      	subs	r0, #4
  405056:	6803      	ldr	r3, [r0, #0]
  405058:	f004 040f 	and.w	r4, r4, #15
  40505c:	ea44 1403 	orr.w	r4, r4, r3, lsl #4
  405060:	6004      	str	r4, [r0, #0]
  405062:	e7a1      	b.n	404fa8 <__hexnan+0x3c>
  405064:	2300      	movs	r3, #0
  405066:	f1a0 0804 	sub.w	r8, r0, #4
  40506a:	f840 3c04 	str.w	r3, [r0, #-4]
  40506e:	46f2      	mov	sl, lr
  405070:	4640      	mov	r0, r8
  405072:	4619      	mov	r1, r3
  405074:	e798      	b.n	404fa8 <__hexnan+0x3c>
  405076:	2b29      	cmp	r3, #41	; 0x29
  405078:	d01b      	beq.n	4050b2 <__hexnan+0x146>
  40507a:	2004      	movs	r0, #4
  40507c:	b005      	add	sp, #20
  40507e:	e8bd 8ff0 	ldmia.w	sp!, {r4, r5, r6, r7, r8, r9, sl, fp, pc}
  405082:	9b03      	ldr	r3, [sp, #12]
  405084:	2b00      	cmp	r3, #0
  405086:	d0cc      	beq.n	405022 <__hexnan+0xb6>
  405088:	9c01      	ldr	r4, [sp, #4]
  40508a:	9b03      	ldr	r3, [sp, #12]
  40508c:	f854 1c04 	ldr.w	r1, [r4, #-4]
  405090:	f1c3 0320 	rsb	r3, r3, #32
  405094:	f04f 30ff 	mov.w	r0, #4294967295
  405098:	fa20 f303 	lsr.w	r3, r0, r3
  40509c:	400b      	ands	r3, r1
  40509e:	f844 3c04 	str.w	r3, [r4, #-4]
  4050a2:	e7c1      	b.n	405028 <__hexnan+0xbc>
  4050a4:	2301      	movs	r3, #1
  4050a6:	2005      	movs	r0, #5
  4050a8:	f8cc 3000 	str.w	r3, [ip]
  4050ac:	b005      	add	sp, #20
  4050ae:	e8bd 8ff0 	ldmia.w	sp!, {r4, r5, r6, r7, r8, r9, sl, fp, pc}
  4050b2:	9b02      	ldr	r3, [sp, #8]
  4050b4:	3501      	adds	r5, #1
  4050b6:	601d      	str	r5, [r3, #0]
  4050b8:	f1be 0f00 	cmp.w	lr, #0
  4050bc:	d19f      	bne.n	404ffe <__hexnan+0x92>
  4050be:	e7dc      	b.n	40507a <__hexnan+0x10e>
  4050c0:	f1c1 0308 	rsb	r3, r1, #8
  4050c4:	009b      	lsls	r3, r3, #2
  4050c6:	6805      	ldr	r5, [r0, #0]
  4050c8:	f1c3 0720 	rsb	r7, r3, #32
  4050cc:	4601      	mov	r1, r0
  4050ce:	684e      	ldr	r6, [r1, #4]
  4050d0:	fa06 f407 	lsl.w	r4, r6, r7
  4050d4:	432c      	orrs	r4, r5
  4050d6:	fa26 f503 	lsr.w	r5, r6, r3
  4050da:	600c      	str	r4, [r1, #0]
  4050dc:	f841 5f04 	str.w	r5, [r1, #4]!
  4050e0:	4588      	cmp	r8, r1
  4050e2:	d8f4      	bhi.n	4050ce <__hexnan+0x162>
  4050e4:	e78f      	b.n	405006 <__hexnan+0x9a>
  4050e6:	bf00      	nop
  4050e8:	00406644 	.word	0x00406644

004050ec <_localeconv_r>:
  4050ec:	4800      	ldr	r0, [pc, #0]	; (4050f0 <_localeconv_r+0x4>)
  4050ee:	4770      	bx	lr
  4050f0:	2040043c 	.word	0x2040043c

004050f4 <memcpy>:
  4050f4:	4684      	mov	ip, r0
  4050f6:	ea41 0300 	orr.w	r3, r1, r0
  4050fa:	f013 0303 	ands.w	r3, r3, #3
  4050fe:	d16d      	bne.n	4051dc <memcpy+0xe8>
  405100:	3a40      	subs	r2, #64	; 0x40
  405102:	d341      	bcc.n	405188 <memcpy+0x94>
  405104:	f851 3b04 	ldr.w	r3, [r1], #4
  405108:	f840 3b04 	str.w	r3, [r0], #4
  40510c:	f851 3b04 	ldr.w	r3, [r1], #4
  405110:	f840 3b04 	str.w	r3, [r0], #4
  405114:	f851 3b04 	ldr.w	r3, [r1], #4
  405118:	f840 3b04 	str.w	r3, [r0], #4
  40511c:	f851 3b04 	ldr.w	r3, [r1], #4
  405120:	f840 3b04 	str.w	r3, [r0], #4
  405124:	f851 3b04 	ldr.w	r3, [r1], #4
  405128:	f840 3b04 	str.w	r3, [r0], #4
  40512c:	f851 3b04 	ldr.w	r3, [r1], #4
  405130:	f840 3b04 	str.w	r3, [r0], #4
  405134:	f851 3b04 	ldr.w	r3, [r1], #4
  405138:	f840 3b04 	str.w	r3, [r0], #4
  40513c:	f851 3b04 	ldr.w	r3, [r1], #4
  405140:	f840 3b04 	str.w	r3, [r0], #4
  405144:	f851 3b04 	ldr.w	r3, [r1], #4
  405148:	f840 3b04 	str.w	r3, [r0], #4
  40514c:	f851 3b04 	ldr.w	r3, [r1], #4
  405150:	f840 3b04 	str.w	r3, [r0], #4
  405154:	f851 3b04 	ldr.w	r3, [r1], #4
  405158:	f840 3b04 	str.w	r3, [r0], #4
  40515c:	f851 3b04 	ldr.w	r3, [r1], #4
  405160:	f840 3b04 	str.w	r3, [r0], #4
  405164:	f851 3b04 	ldr.w	r3, [r1], #4
  405168:	f840 3b04 	str.w	r3, [r0], #4
  40516c:	f851 3b04 	ldr.w	r3, [r1], #4
  405170:	f840 3b04 	str.w	r3, [r0], #4
  405174:	f851 3b04 	ldr.w	r3, [r1], #4
  405178:	f840 3b04 	str.w	r3, [r0], #4
  40517c:	f851 3b04 	ldr.w	r3, [r1], #4
  405180:	f840 3b04 	str.w	r3, [r0], #4
  405184:	3a40      	subs	r2, #64	; 0x40
  405186:	d2bd      	bcs.n	405104 <memcpy+0x10>
  405188:	3230      	adds	r2, #48	; 0x30
  40518a:	d311      	bcc.n	4051b0 <memcpy+0xbc>
  40518c:	f851 3b04 	ldr.w	r3, [r1], #4
  405190:	f840 3b04 	str.w	r3, [r0], #4
  405194:	f851 3b04 	ldr.w	r3, [r1], #4
  405198:	f840 3b04 	str.w	r3, [r0], #4
  40519c:	f851 3b04 	ldr.w	r3, [r1], #4
  4051a0:	f840 3b04 	str.w	r3, [r0], #4
  4051a4:	f851 3b04 	ldr.w	r3, [r1], #4
  4051a8:	f840 3b04 	str.w	r3, [r0], #4
  4051ac:	3a10      	subs	r2, #16
  4051ae:	d2ed      	bcs.n	40518c <memcpy+0x98>
  4051b0:	320c      	adds	r2, #12
  4051b2:	d305      	bcc.n	4051c0 <memcpy+0xcc>
  4051b4:	f851 3b04 	ldr.w	r3, [r1], #4
  4051b8:	f840 3b04 	str.w	r3, [r0], #4
  4051bc:	3a04      	subs	r2, #4
  4051be:	d2f9      	bcs.n	4051b4 <memcpy+0xc0>
  4051c0:	3204      	adds	r2, #4
  4051c2:	d008      	beq.n	4051d6 <memcpy+0xe2>
  4051c4:	07d2      	lsls	r2, r2, #31
  4051c6:	bf1c      	itt	ne
  4051c8:	f811 3b01 	ldrbne.w	r3, [r1], #1
  4051cc:	f800 3b01 	strbne.w	r3, [r0], #1
  4051d0:	d301      	bcc.n	4051d6 <memcpy+0xe2>
  4051d2:	880b      	ldrh	r3, [r1, #0]
  4051d4:	8003      	strh	r3, [r0, #0]
  4051d6:	4660      	mov	r0, ip
  4051d8:	4770      	bx	lr
  4051da:	bf00      	nop
  4051dc:	2a08      	cmp	r2, #8
  4051de:	d313      	bcc.n	405208 <memcpy+0x114>
  4051e0:	078b      	lsls	r3, r1, #30
  4051e2:	d08d      	beq.n	405100 <memcpy+0xc>
  4051e4:	f010 0303 	ands.w	r3, r0, #3
  4051e8:	d08a      	beq.n	405100 <memcpy+0xc>
  4051ea:	f1c3 0304 	rsb	r3, r3, #4
  4051ee:	1ad2      	subs	r2, r2, r3
  4051f0:	07db      	lsls	r3, r3, #31
  4051f2:	bf1c      	itt	ne
  4051f4:	f811 3b01 	ldrbne.w	r3, [r1], #1
  4051f8:	f800 3b01 	strbne.w	r3, [r0], #1
  4051fc:	d380      	bcc.n	405100 <memcpy+0xc>
  4051fe:	f831 3b02 	ldrh.w	r3, [r1], #2
  405202:	f820 3b02 	strh.w	r3, [r0], #2
  405206:	e77b      	b.n	405100 <memcpy+0xc>
  405208:	3a04      	subs	r2, #4
  40520a:	d3d9      	bcc.n	4051c0 <memcpy+0xcc>
  40520c:	3a01      	subs	r2, #1
  40520e:	f811 3b01 	ldrb.w	r3, [r1], #1
  405212:	f800 3b01 	strb.w	r3, [r0], #1
  405216:	d2f9      	bcs.n	40520c <memcpy+0x118>
  405218:	780b      	ldrb	r3, [r1, #0]
  40521a:	7003      	strb	r3, [r0, #0]
  40521c:	784b      	ldrb	r3, [r1, #1]
  40521e:	7043      	strb	r3, [r0, #1]
  405220:	788b      	ldrb	r3, [r1, #2]
  405222:	7083      	strb	r3, [r0, #2]
  405224:	4660      	mov	r0, ip
  405226:	4770      	bx	lr

00405228 <_Balloc>:
  405228:	6cc3      	ldr	r3, [r0, #76]	; 0x4c
  40522a:	b570      	push	{r4, r5, r6, lr}
  40522c:	4605      	mov	r5, r0
  40522e:	460c      	mov	r4, r1
  405230:	b14b      	cbz	r3, 405246 <_Balloc+0x1e>
  405232:	f853 0024 	ldr.w	r0, [r3, r4, lsl #2]
  405236:	b180      	cbz	r0, 40525a <_Balloc+0x32>
  405238:	6802      	ldr	r2, [r0, #0]
  40523a:	f843 2024 	str.w	r2, [r3, r4, lsl #2]
  40523e:	2300      	movs	r3, #0
  405240:	6103      	str	r3, [r0, #16]
  405242:	60c3      	str	r3, [r0, #12]
  405244:	bd70      	pop	{r4, r5, r6, pc}
  405246:	2221      	movs	r2, #33	; 0x21
  405248:	2104      	movs	r1, #4
  40524a:	f000 fcf1 	bl	405c30 <_calloc_r>
  40524e:	64e8      	str	r0, [r5, #76]	; 0x4c
  405250:	4603      	mov	r3, r0
  405252:	2800      	cmp	r0, #0
  405254:	d1ed      	bne.n	405232 <_Balloc+0xa>
  405256:	2000      	movs	r0, #0
  405258:	bd70      	pop	{r4, r5, r6, pc}
  40525a:	2101      	movs	r1, #1
  40525c:	fa01 f604 	lsl.w	r6, r1, r4
  405260:	1d72      	adds	r2, r6, #5
  405262:	4628      	mov	r0, r5
  405264:	0092      	lsls	r2, r2, #2
  405266:	f000 fce3 	bl	405c30 <_calloc_r>
  40526a:	2800      	cmp	r0, #0
  40526c:	d0f3      	beq.n	405256 <_Balloc+0x2e>
  40526e:	6044      	str	r4, [r0, #4]
  405270:	6086      	str	r6, [r0, #8]
  405272:	e7e4      	b.n	40523e <_Balloc+0x16>

00405274 <_Bfree>:
  405274:	b131      	cbz	r1, 405284 <_Bfree+0x10>
  405276:	6cc3      	ldr	r3, [r0, #76]	; 0x4c
  405278:	684a      	ldr	r2, [r1, #4]
  40527a:	f853 0022 	ldr.w	r0, [r3, r2, lsl #2]
  40527e:	6008      	str	r0, [r1, #0]
  405280:	f843 1022 	str.w	r1, [r3, r2, lsl #2]
  405284:	4770      	bx	lr
  405286:	bf00      	nop

00405288 <__multadd>:
  405288:	b5f0      	push	{r4, r5, r6, r7, lr}
  40528a:	690c      	ldr	r4, [r1, #16]
  40528c:	b083      	sub	sp, #12
  40528e:	460d      	mov	r5, r1
  405290:	4606      	mov	r6, r0
  405292:	f101 0e14 	add.w	lr, r1, #20
  405296:	2700      	movs	r7, #0
  405298:	f8de 0000 	ldr.w	r0, [lr]
  40529c:	b281      	uxth	r1, r0
  40529e:	fb02 3101 	mla	r1, r2, r1, r3
  4052a2:	0c0b      	lsrs	r3, r1, #16
  4052a4:	0c00      	lsrs	r0, r0, #16
  4052a6:	fb02 3300 	mla	r3, r2, r0, r3
  4052aa:	b289      	uxth	r1, r1
  4052ac:	3701      	adds	r7, #1
  4052ae:	eb01 4103 	add.w	r1, r1, r3, lsl #16
  4052b2:	42bc      	cmp	r4, r7
  4052b4:	f84e 1b04 	str.w	r1, [lr], #4
  4052b8:	ea4f 4313 	mov.w	r3, r3, lsr #16
  4052bc:	dcec      	bgt.n	405298 <__multadd+0x10>
  4052be:	b13b      	cbz	r3, 4052d0 <__multadd+0x48>
  4052c0:	68aa      	ldr	r2, [r5, #8]
  4052c2:	4294      	cmp	r4, r2
  4052c4:	da07      	bge.n	4052d6 <__multadd+0x4e>
  4052c6:	eb05 0284 	add.w	r2, r5, r4, lsl #2
  4052ca:	3401      	adds	r4, #1
  4052cc:	6153      	str	r3, [r2, #20]
  4052ce:	612c      	str	r4, [r5, #16]
  4052d0:	4628      	mov	r0, r5
  4052d2:	b003      	add	sp, #12
  4052d4:	bdf0      	pop	{r4, r5, r6, r7, pc}
  4052d6:	6869      	ldr	r1, [r5, #4]
  4052d8:	9301      	str	r3, [sp, #4]
  4052da:	3101      	adds	r1, #1
  4052dc:	4630      	mov	r0, r6
  4052de:	f7ff ffa3 	bl	405228 <_Balloc>
  4052e2:	692a      	ldr	r2, [r5, #16]
  4052e4:	3202      	adds	r2, #2
  4052e6:	f105 010c 	add.w	r1, r5, #12
  4052ea:	4607      	mov	r7, r0
  4052ec:	0092      	lsls	r2, r2, #2
  4052ee:	300c      	adds	r0, #12
  4052f0:	f7ff ff00 	bl	4050f4 <memcpy>
  4052f4:	6cf2      	ldr	r2, [r6, #76]	; 0x4c
  4052f6:	6869      	ldr	r1, [r5, #4]
  4052f8:	9b01      	ldr	r3, [sp, #4]
  4052fa:	f852 0021 	ldr.w	r0, [r2, r1, lsl #2]
  4052fe:	6028      	str	r0, [r5, #0]
  405300:	f842 5021 	str.w	r5, [r2, r1, lsl #2]
  405304:	463d      	mov	r5, r7
  405306:	e7de      	b.n	4052c6 <__multadd+0x3e>

00405308 <__s2b>:
  405308:	e92d 43f8 	stmdb	sp!, {r3, r4, r5, r6, r7, r8, r9, lr}
  40530c:	4c23      	ldr	r4, [pc, #140]	; (40539c <__s2b+0x94>)
  40530e:	9d08      	ldr	r5, [sp, #32]
  405310:	461f      	mov	r7, r3
  405312:	3308      	adds	r3, #8
  405314:	fb84 4e03 	smull	r4, lr, r4, r3
  405318:	17db      	asrs	r3, r3, #31
  40531a:	ebc3 0e6e 	rsb	lr, r3, lr, asr #1
  40531e:	f1be 0f01 	cmp.w	lr, #1
  405322:	4606      	mov	r6, r0
  405324:	460c      	mov	r4, r1
  405326:	4690      	mov	r8, r2
  405328:	dd35      	ble.n	405396 <__s2b+0x8e>
  40532a:	2301      	movs	r3, #1
  40532c:	2100      	movs	r1, #0
  40532e:	005b      	lsls	r3, r3, #1
  405330:	459e      	cmp	lr, r3
  405332:	f101 0101 	add.w	r1, r1, #1
  405336:	dcfa      	bgt.n	40532e <__s2b+0x26>
  405338:	4630      	mov	r0, r6
  40533a:	f7ff ff75 	bl	405228 <_Balloc>
  40533e:	2301      	movs	r3, #1
  405340:	f1b8 0f09 	cmp.w	r8, #9
  405344:	6145      	str	r5, [r0, #20]
  405346:	6103      	str	r3, [r0, #16]
  405348:	dd21      	ble.n	40538e <__s2b+0x86>
  40534a:	f104 0909 	add.w	r9, r4, #9
  40534e:	464d      	mov	r5, r9
  405350:	4444      	add	r4, r8
  405352:	f815 3b01 	ldrb.w	r3, [r5], #1
  405356:	4601      	mov	r1, r0
  405358:	3b30      	subs	r3, #48	; 0x30
  40535a:	220a      	movs	r2, #10
  40535c:	4630      	mov	r0, r6
  40535e:	f7ff ff93 	bl	405288 <__multadd>
  405362:	42a5      	cmp	r5, r4
  405364:	d1f5      	bne.n	405352 <__s2b+0x4a>
  405366:	eb09 0408 	add.w	r4, r9, r8
  40536a:	3c08      	subs	r4, #8
  40536c:	4547      	cmp	r7, r8
  40536e:	dd0c      	ble.n	40538a <__s2b+0x82>
  405370:	ebc8 0707 	rsb	r7, r8, r7
  405374:	4427      	add	r7, r4
  405376:	f814 3b01 	ldrb.w	r3, [r4], #1
  40537a:	4601      	mov	r1, r0
  40537c:	3b30      	subs	r3, #48	; 0x30
  40537e:	220a      	movs	r2, #10
  405380:	4630      	mov	r0, r6
  405382:	f7ff ff81 	bl	405288 <__multadd>
  405386:	42a7      	cmp	r7, r4
  405388:	d1f5      	bne.n	405376 <__s2b+0x6e>
  40538a:	e8bd 83f8 	ldmia.w	sp!, {r3, r4, r5, r6, r7, r8, r9, pc}
  40538e:	340a      	adds	r4, #10
  405390:	f04f 0809 	mov.w	r8, #9
  405394:	e7ea      	b.n	40536c <__s2b+0x64>
  405396:	2100      	movs	r1, #0
  405398:	e7ce      	b.n	405338 <__s2b+0x30>
  40539a:	bf00      	nop
  40539c:	38e38e39 	.word	0x38e38e39

004053a0 <__hi0bits>:
  4053a0:	0c03      	lsrs	r3, r0, #16
  4053a2:	041b      	lsls	r3, r3, #16
  4053a4:	b9b3      	cbnz	r3, 4053d4 <__hi0bits+0x34>
  4053a6:	0400      	lsls	r0, r0, #16
  4053a8:	2310      	movs	r3, #16
  4053aa:	f010 4f7f 	tst.w	r0, #4278190080	; 0xff000000
  4053ae:	bf04      	itt	eq
  4053b0:	0200      	lsleq	r0, r0, #8
  4053b2:	3308      	addeq	r3, #8
  4053b4:	f010 4f70 	tst.w	r0, #4026531840	; 0xf0000000
  4053b8:	bf04      	itt	eq
  4053ba:	0100      	lsleq	r0, r0, #4
  4053bc:	3304      	addeq	r3, #4
  4053be:	f010 4f40 	tst.w	r0, #3221225472	; 0xc0000000
  4053c2:	bf04      	itt	eq
  4053c4:	0080      	lsleq	r0, r0, #2
  4053c6:	3302      	addeq	r3, #2
  4053c8:	2800      	cmp	r0, #0
  4053ca:	db07      	blt.n	4053dc <__hi0bits+0x3c>
  4053cc:	0042      	lsls	r2, r0, #1
  4053ce:	d403      	bmi.n	4053d8 <__hi0bits+0x38>
  4053d0:	2020      	movs	r0, #32
  4053d2:	4770      	bx	lr
  4053d4:	2300      	movs	r3, #0
  4053d6:	e7e8      	b.n	4053aa <__hi0bits+0xa>
  4053d8:	1c58      	adds	r0, r3, #1
  4053da:	4770      	bx	lr
  4053dc:	4618      	mov	r0, r3
  4053de:	4770      	bx	lr

004053e0 <__lo0bits>:
  4053e0:	6803      	ldr	r3, [r0, #0]
  4053e2:	f013 0207 	ands.w	r2, r3, #7
  4053e6:	d007      	beq.n	4053f8 <__lo0bits+0x18>
  4053e8:	07d9      	lsls	r1, r3, #31
  4053ea:	d420      	bmi.n	40542e <__lo0bits+0x4e>
  4053ec:	079a      	lsls	r2, r3, #30
  4053ee:	d420      	bmi.n	405432 <__lo0bits+0x52>
  4053f0:	089b      	lsrs	r3, r3, #2
  4053f2:	6003      	str	r3, [r0, #0]
  4053f4:	2002      	movs	r0, #2
  4053f6:	4770      	bx	lr
  4053f8:	b299      	uxth	r1, r3
  4053fa:	b909      	cbnz	r1, 405400 <__lo0bits+0x20>
  4053fc:	0c1b      	lsrs	r3, r3, #16
  4053fe:	2210      	movs	r2, #16
  405400:	f013 0fff 	tst.w	r3, #255	; 0xff
  405404:	bf04      	itt	eq
  405406:	0a1b      	lsreq	r3, r3, #8
  405408:	3208      	addeq	r2, #8
  40540a:	0719      	lsls	r1, r3, #28
  40540c:	bf04      	itt	eq
  40540e:	091b      	lsreq	r3, r3, #4
  405410:	3204      	addeq	r2, #4
  405412:	0799      	lsls	r1, r3, #30
  405414:	bf04      	itt	eq
  405416:	089b      	lsreq	r3, r3, #2
  405418:	3202      	addeq	r2, #2
  40541a:	07d9      	lsls	r1, r3, #31
  40541c:	d404      	bmi.n	405428 <__lo0bits+0x48>
  40541e:	085b      	lsrs	r3, r3, #1
  405420:	d101      	bne.n	405426 <__lo0bits+0x46>
  405422:	2020      	movs	r0, #32
  405424:	4770      	bx	lr
  405426:	3201      	adds	r2, #1
  405428:	6003      	str	r3, [r0, #0]
  40542a:	4610      	mov	r0, r2
  40542c:	4770      	bx	lr
  40542e:	2000      	movs	r0, #0
  405430:	4770      	bx	lr
  405432:	085b      	lsrs	r3, r3, #1
  405434:	6003      	str	r3, [r0, #0]
  405436:	2001      	movs	r0, #1
  405438:	4770      	bx	lr
  40543a:	bf00      	nop

0040543c <__i2b>:
  40543c:	b510      	push	{r4, lr}
  40543e:	460c      	mov	r4, r1
  405440:	2101      	movs	r1, #1
  405442:	f7ff fef1 	bl	405228 <_Balloc>
  405446:	2201      	movs	r2, #1
  405448:	6144      	str	r4, [r0, #20]
  40544a:	6102      	str	r2, [r0, #16]
  40544c:	bd10      	pop	{r4, pc}
  40544e:	bf00      	nop

00405450 <__multiply>:
  405450:	e92d 4ff0 	stmdb	sp!, {r4, r5, r6, r7, r8, r9, sl, fp, lr}
  405454:	690d      	ldr	r5, [r1, #16]
  405456:	6917      	ldr	r7, [r2, #16]
  405458:	42bd      	cmp	r5, r7
  40545a:	b083      	sub	sp, #12
  40545c:	460c      	mov	r4, r1
  40545e:	4616      	mov	r6, r2
  405460:	da04      	bge.n	40546c <__multiply+0x1c>
  405462:	462a      	mov	r2, r5
  405464:	4634      	mov	r4, r6
  405466:	463d      	mov	r5, r7
  405468:	460e      	mov	r6, r1
  40546a:	4617      	mov	r7, r2
  40546c:	68a3      	ldr	r3, [r4, #8]
  40546e:	6861      	ldr	r1, [r4, #4]
  405470:	eb05 0807 	add.w	r8, r5, r7
  405474:	4598      	cmp	r8, r3
  405476:	bfc8      	it	gt
  405478:	3101      	addgt	r1, #1
  40547a:	f7ff fed5 	bl	405228 <_Balloc>
  40547e:	f100 0c14 	add.w	ip, r0, #20
  405482:	eb0c 0988 	add.w	r9, ip, r8, lsl #2
  405486:	45cc      	cmp	ip, r9
  405488:	9000      	str	r0, [sp, #0]
  40548a:	d205      	bcs.n	405498 <__multiply+0x48>
  40548c:	4663      	mov	r3, ip
  40548e:	2100      	movs	r1, #0
  405490:	f843 1b04 	str.w	r1, [r3], #4
  405494:	4599      	cmp	r9, r3
  405496:	d8fb      	bhi.n	405490 <__multiply+0x40>
  405498:	f106 0214 	add.w	r2, r6, #20
  40549c:	eb02 0a87 	add.w	sl, r2, r7, lsl #2
  4054a0:	f104 0314 	add.w	r3, r4, #20
  4054a4:	4552      	cmp	r2, sl
  4054a6:	eb03 0e85 	add.w	lr, r3, r5, lsl #2
  4054aa:	d254      	bcs.n	405556 <__multiply+0x106>
  4054ac:	f8cd 9004 	str.w	r9, [sp, #4]
  4054b0:	4699      	mov	r9, r3
  4054b2:	f852 3b04 	ldr.w	r3, [r2], #4
  4054b6:	fa1f fb83 	uxth.w	fp, r3
  4054ba:	f1bb 0f00 	cmp.w	fp, #0
  4054be:	d020      	beq.n	405502 <__multiply+0xb2>
  4054c0:	2000      	movs	r0, #0
  4054c2:	464f      	mov	r7, r9
  4054c4:	4666      	mov	r6, ip
  4054c6:	4605      	mov	r5, r0
  4054c8:	e000      	b.n	4054cc <__multiply+0x7c>
  4054ca:	461e      	mov	r6, r3
  4054cc:	f857 4b04 	ldr.w	r4, [r7], #4
  4054d0:	6830      	ldr	r0, [r6, #0]
  4054d2:	b2a1      	uxth	r1, r4
  4054d4:	b283      	uxth	r3, r0
  4054d6:	fb0b 3101 	mla	r1, fp, r1, r3
  4054da:	0c24      	lsrs	r4, r4, #16
  4054dc:	0c00      	lsrs	r0, r0, #16
  4054de:	194b      	adds	r3, r1, r5
  4054e0:	fb0b 0004 	mla	r0, fp, r4, r0
  4054e4:	eb00 4013 	add.w	r0, r0, r3, lsr #16
  4054e8:	b299      	uxth	r1, r3
  4054ea:	4633      	mov	r3, r6
  4054ec:	ea41 4100 	orr.w	r1, r1, r0, lsl #16
  4054f0:	45be      	cmp	lr, r7
  4054f2:	ea4f 4510 	mov.w	r5, r0, lsr #16
  4054f6:	f843 1b04 	str.w	r1, [r3], #4
  4054fa:	d8e6      	bhi.n	4054ca <__multiply+0x7a>
  4054fc:	6075      	str	r5, [r6, #4]
  4054fe:	f852 3c04 	ldr.w	r3, [r2, #-4]
  405502:	ea5f 4b13 	movs.w	fp, r3, lsr #16
  405506:	d020      	beq.n	40554a <__multiply+0xfa>
  405508:	f8dc 3000 	ldr.w	r3, [ip]
  40550c:	4667      	mov	r7, ip
  40550e:	4618      	mov	r0, r3
  405510:	464d      	mov	r5, r9
  405512:	2100      	movs	r1, #0
  405514:	e000      	b.n	405518 <__multiply+0xc8>
  405516:	4637      	mov	r7, r6
  405518:	882c      	ldrh	r4, [r5, #0]
  40551a:	0c00      	lsrs	r0, r0, #16
  40551c:	fb0b 0004 	mla	r0, fp, r4, r0
  405520:	4401      	add	r1, r0
  405522:	b29c      	uxth	r4, r3
  405524:	463e      	mov	r6, r7
  405526:	ea44 4301 	orr.w	r3, r4, r1, lsl #16
  40552a:	f846 3b04 	str.w	r3, [r6], #4
  40552e:	6878      	ldr	r0, [r7, #4]
  405530:	f855 4b04 	ldr.w	r4, [r5], #4
  405534:	b283      	uxth	r3, r0
  405536:	0c24      	lsrs	r4, r4, #16
  405538:	fb0b 3404 	mla	r4, fp, r4, r3
  40553c:	eb04 4311 	add.w	r3, r4, r1, lsr #16
  405540:	45ae      	cmp	lr, r5
  405542:	ea4f 4113 	mov.w	r1, r3, lsr #16
  405546:	d8e6      	bhi.n	405516 <__multiply+0xc6>
  405548:	607b      	str	r3, [r7, #4]
  40554a:	4592      	cmp	sl, r2
  40554c:	f10c 0c04 	add.w	ip, ip, #4
  405550:	d8af      	bhi.n	4054b2 <__multiply+0x62>
  405552:	f8dd 9004 	ldr.w	r9, [sp, #4]
  405556:	f1b8 0f00 	cmp.w	r8, #0
  40555a:	dd0b      	ble.n	405574 <__multiply+0x124>
  40555c:	f859 3c04 	ldr.w	r3, [r9, #-4]
  405560:	f1a9 0904 	sub.w	r9, r9, #4
  405564:	b11b      	cbz	r3, 40556e <__multiply+0x11e>
  405566:	e005      	b.n	405574 <__multiply+0x124>
  405568:	f859 3d04 	ldr.w	r3, [r9, #-4]!
  40556c:	b913      	cbnz	r3, 405574 <__multiply+0x124>
  40556e:	f1b8 0801 	subs.w	r8, r8, #1
  405572:	d1f9      	bne.n	405568 <__multiply+0x118>
  405574:	9800      	ldr	r0, [sp, #0]
  405576:	f8c0 8010 	str.w	r8, [r0, #16]
  40557a:	b003      	add	sp, #12
  40557c:	e8bd 8ff0 	ldmia.w	sp!, {r4, r5, r6, r7, r8, r9, sl, fp, pc}

00405580 <__pow5mult>:
  405580:	f012 0303 	ands.w	r3, r2, #3
  405584:	e92d 41f0 	stmdb	sp!, {r4, r5, r6, r7, r8, lr}
  405588:	4614      	mov	r4, r2
  40558a:	4607      	mov	r7, r0
  40558c:	d12e      	bne.n	4055ec <__pow5mult+0x6c>
  40558e:	460e      	mov	r6, r1
  405590:	10a4      	asrs	r4, r4, #2
  405592:	d01c      	beq.n	4055ce <__pow5mult+0x4e>
  405594:	6cbd      	ldr	r5, [r7, #72]	; 0x48
  405596:	b395      	cbz	r5, 4055fe <__pow5mult+0x7e>
  405598:	07e3      	lsls	r3, r4, #31
  40559a:	f04f 0800 	mov.w	r8, #0
  40559e:	d406      	bmi.n	4055ae <__pow5mult+0x2e>
  4055a0:	1064      	asrs	r4, r4, #1
  4055a2:	d014      	beq.n	4055ce <__pow5mult+0x4e>
  4055a4:	6828      	ldr	r0, [r5, #0]
  4055a6:	b1a8      	cbz	r0, 4055d4 <__pow5mult+0x54>
  4055a8:	4605      	mov	r5, r0
  4055aa:	07e3      	lsls	r3, r4, #31
  4055ac:	d5f8      	bpl.n	4055a0 <__pow5mult+0x20>
  4055ae:	462a      	mov	r2, r5
  4055b0:	4631      	mov	r1, r6
  4055b2:	4638      	mov	r0, r7
  4055b4:	f7ff ff4c 	bl	405450 <__multiply>
  4055b8:	b1b6      	cbz	r6, 4055e8 <__pow5mult+0x68>
  4055ba:	6872      	ldr	r2, [r6, #4]
  4055bc:	6cfb      	ldr	r3, [r7, #76]	; 0x4c
  4055be:	1064      	asrs	r4, r4, #1
  4055c0:	f853 1022 	ldr.w	r1, [r3, r2, lsl #2]
  4055c4:	6031      	str	r1, [r6, #0]
  4055c6:	f843 6022 	str.w	r6, [r3, r2, lsl #2]
  4055ca:	4606      	mov	r6, r0
  4055cc:	d1ea      	bne.n	4055a4 <__pow5mult+0x24>
  4055ce:	4630      	mov	r0, r6
  4055d0:	e8bd 81f0 	ldmia.w	sp!, {r4, r5, r6, r7, r8, pc}
  4055d4:	462a      	mov	r2, r5
  4055d6:	4629      	mov	r1, r5
  4055d8:	4638      	mov	r0, r7
  4055da:	f7ff ff39 	bl	405450 <__multiply>
  4055de:	6028      	str	r0, [r5, #0]
  4055e0:	f8c0 8000 	str.w	r8, [r0]
  4055e4:	4605      	mov	r5, r0
  4055e6:	e7e0      	b.n	4055aa <__pow5mult+0x2a>
  4055e8:	4606      	mov	r6, r0
  4055ea:	e7d9      	b.n	4055a0 <__pow5mult+0x20>
  4055ec:	1e5a      	subs	r2, r3, #1
  4055ee:	4d0b      	ldr	r5, [pc, #44]	; (40561c <__pow5mult+0x9c>)
  4055f0:	2300      	movs	r3, #0
  4055f2:	f855 2022 	ldr.w	r2, [r5, r2, lsl #2]
  4055f6:	f7ff fe47 	bl	405288 <__multadd>
  4055fa:	4606      	mov	r6, r0
  4055fc:	e7c8      	b.n	405590 <__pow5mult+0x10>
  4055fe:	2101      	movs	r1, #1
  405600:	4638      	mov	r0, r7
  405602:	f7ff fe11 	bl	405228 <_Balloc>
  405606:	f240 2171 	movw	r1, #625	; 0x271
  40560a:	2201      	movs	r2, #1
  40560c:	2300      	movs	r3, #0
  40560e:	6141      	str	r1, [r0, #20]
  405610:	6102      	str	r2, [r0, #16]
  405612:	4605      	mov	r5, r0
  405614:	64b8      	str	r0, [r7, #72]	; 0x48
  405616:	6003      	str	r3, [r0, #0]
  405618:	e7be      	b.n	405598 <__pow5mult+0x18>
  40561a:	bf00      	nop
  40561c:	00406840 	.word	0x00406840

00405620 <__lshift>:
  405620:	e92d 47f0 	stmdb	sp!, {r4, r5, r6, r7, r8, r9, sl, lr}
  405624:	4691      	mov	r9, r2
  405626:	690a      	ldr	r2, [r1, #16]
  405628:	688b      	ldr	r3, [r1, #8]
  40562a:	ea4f 1469 	mov.w	r4, r9, asr #5
  40562e:	eb04 0802 	add.w	r8, r4, r2
  405632:	f108 0501 	add.w	r5, r8, #1
  405636:	429d      	cmp	r5, r3
  405638:	460e      	mov	r6, r1
  40563a:	4682      	mov	sl, r0
  40563c:	6849      	ldr	r1, [r1, #4]
  40563e:	dd04      	ble.n	40564a <__lshift+0x2a>
  405640:	005b      	lsls	r3, r3, #1
  405642:	429d      	cmp	r5, r3
  405644:	f101 0101 	add.w	r1, r1, #1
  405648:	dcfa      	bgt.n	405640 <__lshift+0x20>
  40564a:	4650      	mov	r0, sl
  40564c:	f7ff fdec 	bl	405228 <_Balloc>
  405650:	2c00      	cmp	r4, #0
  405652:	f100 0214 	add.w	r2, r0, #20
  405656:	dd38      	ble.n	4056ca <__lshift+0xaa>
  405658:	eb02 0384 	add.w	r3, r2, r4, lsl #2
  40565c:	2100      	movs	r1, #0
  40565e:	f842 1b04 	str.w	r1, [r2], #4
  405662:	4293      	cmp	r3, r2
  405664:	d1fb      	bne.n	40565e <__lshift+0x3e>
  405666:	6934      	ldr	r4, [r6, #16]
  405668:	f106 0114 	add.w	r1, r6, #20
  40566c:	f019 091f 	ands.w	r9, r9, #31
  405670:	eb01 0e84 	add.w	lr, r1, r4, lsl #2
  405674:	d021      	beq.n	4056ba <__lshift+0x9a>
  405676:	f1c9 0220 	rsb	r2, r9, #32
  40567a:	2400      	movs	r4, #0
  40567c:	680f      	ldr	r7, [r1, #0]
  40567e:	fa07 fc09 	lsl.w	ip, r7, r9
  405682:	ea4c 0404 	orr.w	r4, ip, r4
  405686:	469c      	mov	ip, r3
  405688:	f843 4b04 	str.w	r4, [r3], #4
  40568c:	f851 4b04 	ldr.w	r4, [r1], #4
  405690:	458e      	cmp	lr, r1
  405692:	fa24 f402 	lsr.w	r4, r4, r2
  405696:	d8f1      	bhi.n	40567c <__lshift+0x5c>
  405698:	f8cc 4004 	str.w	r4, [ip, #4]
  40569c:	b10c      	cbz	r4, 4056a2 <__lshift+0x82>
  40569e:	f108 0502 	add.w	r5, r8, #2
  4056a2:	f8da 304c 	ldr.w	r3, [sl, #76]	; 0x4c
  4056a6:	6872      	ldr	r2, [r6, #4]
  4056a8:	3d01      	subs	r5, #1
  4056aa:	f853 1022 	ldr.w	r1, [r3, r2, lsl #2]
  4056ae:	6105      	str	r5, [r0, #16]
  4056b0:	6031      	str	r1, [r6, #0]
  4056b2:	f843 6022 	str.w	r6, [r3, r2, lsl #2]
  4056b6:	e8bd 87f0 	ldmia.w	sp!, {r4, r5, r6, r7, r8, r9, sl, pc}
  4056ba:	3b04      	subs	r3, #4
  4056bc:	f851 2b04 	ldr.w	r2, [r1], #4
  4056c0:	f843 2f04 	str.w	r2, [r3, #4]!
  4056c4:	458e      	cmp	lr, r1
  4056c6:	d8f9      	bhi.n	4056bc <__lshift+0x9c>
  4056c8:	e7eb      	b.n	4056a2 <__lshift+0x82>
  4056ca:	4613      	mov	r3, r2
  4056cc:	e7cb      	b.n	405666 <__lshift+0x46>
  4056ce:	bf00      	nop

004056d0 <__mcmp>:
  4056d0:	6902      	ldr	r2, [r0, #16]
  4056d2:	690b      	ldr	r3, [r1, #16]
  4056d4:	1ad2      	subs	r2, r2, r3
  4056d6:	d112      	bne.n	4056fe <__mcmp+0x2e>
  4056d8:	009b      	lsls	r3, r3, #2
  4056da:	3014      	adds	r0, #20
  4056dc:	3114      	adds	r1, #20
  4056de:	4419      	add	r1, r3
  4056e0:	b410      	push	{r4}
  4056e2:	4403      	add	r3, r0
  4056e4:	e001      	b.n	4056ea <__mcmp+0x1a>
  4056e6:	4298      	cmp	r0, r3
  4056e8:	d20b      	bcs.n	405702 <__mcmp+0x32>
  4056ea:	f853 4d04 	ldr.w	r4, [r3, #-4]!
  4056ee:	f851 2d04 	ldr.w	r2, [r1, #-4]!
  4056f2:	4294      	cmp	r4, r2
  4056f4:	d0f7      	beq.n	4056e6 <__mcmp+0x16>
  4056f6:	d307      	bcc.n	405708 <__mcmp+0x38>
  4056f8:	2001      	movs	r0, #1
  4056fa:	bc10      	pop	{r4}
  4056fc:	4770      	bx	lr
  4056fe:	4610      	mov	r0, r2
  405700:	4770      	bx	lr
  405702:	2000      	movs	r0, #0
  405704:	bc10      	pop	{r4}
  405706:	4770      	bx	lr
  405708:	f04f 30ff 	mov.w	r0, #4294967295
  40570c:	e7f5      	b.n	4056fa <__mcmp+0x2a>
  40570e:	bf00      	nop

00405710 <__mdiff>:
  405710:	e92d 43f8 	stmdb	sp!, {r3, r4, r5, r6, r7, r8, r9, lr}
  405714:	690b      	ldr	r3, [r1, #16]
  405716:	460f      	mov	r7, r1
  405718:	6911      	ldr	r1, [r2, #16]
  40571a:	1a5b      	subs	r3, r3, r1
  40571c:	2b00      	cmp	r3, #0
  40571e:	4690      	mov	r8, r2
  405720:	d117      	bne.n	405752 <__mdiff+0x42>
  405722:	0089      	lsls	r1, r1, #2
  405724:	f107 0214 	add.w	r2, r7, #20
  405728:	f108 0514 	add.w	r5, r8, #20
  40572c:	1853      	adds	r3, r2, r1
  40572e:	4429      	add	r1, r5
  405730:	e001      	b.n	405736 <__mdiff+0x26>
  405732:	429a      	cmp	r2, r3
  405734:	d25e      	bcs.n	4057f4 <__mdiff+0xe4>
  405736:	f853 6d04 	ldr.w	r6, [r3, #-4]!
  40573a:	f851 4d04 	ldr.w	r4, [r1, #-4]!
  40573e:	42a6      	cmp	r6, r4
  405740:	d0f7      	beq.n	405732 <__mdiff+0x22>
  405742:	d260      	bcs.n	405806 <__mdiff+0xf6>
  405744:	463b      	mov	r3, r7
  405746:	4614      	mov	r4, r2
  405748:	4647      	mov	r7, r8
  40574a:	f04f 0901 	mov.w	r9, #1
  40574e:	4698      	mov	r8, r3
  405750:	e006      	b.n	405760 <__mdiff+0x50>
  405752:	db5d      	blt.n	405810 <__mdiff+0x100>
  405754:	f107 0514 	add.w	r5, r7, #20
  405758:	f102 0414 	add.w	r4, r2, #20
  40575c:	f04f 0900 	mov.w	r9, #0
  405760:	6879      	ldr	r1, [r7, #4]
  405762:	f7ff fd61 	bl	405228 <_Balloc>
  405766:	f8d8 3010 	ldr.w	r3, [r8, #16]
  40576a:	693e      	ldr	r6, [r7, #16]
  40576c:	f8c0 900c 	str.w	r9, [r0, #12]
  405770:	eb04 0c83 	add.w	ip, r4, r3, lsl #2
  405774:	46a6      	mov	lr, r4
  405776:	eb05 0786 	add.w	r7, r5, r6, lsl #2
  40577a:	f100 0414 	add.w	r4, r0, #20
  40577e:	2300      	movs	r3, #0
  405780:	f85e 1b04 	ldr.w	r1, [lr], #4
  405784:	f855 8b04 	ldr.w	r8, [r5], #4
  405788:	b28a      	uxth	r2, r1
  40578a:	fa13 f388 	uxtah	r3, r3, r8
  40578e:	0c09      	lsrs	r1, r1, #16
  405790:	1a9a      	subs	r2, r3, r2
  405792:	ebc1 4318 	rsb	r3, r1, r8, lsr #16
  405796:	eb03 4322 	add.w	r3, r3, r2, asr #16
  40579a:	b292      	uxth	r2, r2
  40579c:	ea42 4203 	orr.w	r2, r2, r3, lsl #16
  4057a0:	45f4      	cmp	ip, lr
  4057a2:	f844 2b04 	str.w	r2, [r4], #4
  4057a6:	ea4f 4323 	mov.w	r3, r3, asr #16
  4057aa:	d8e9      	bhi.n	405780 <__mdiff+0x70>
  4057ac:	42af      	cmp	r7, r5
  4057ae:	d917      	bls.n	4057e0 <__mdiff+0xd0>
  4057b0:	46a4      	mov	ip, r4
  4057b2:	4629      	mov	r1, r5
  4057b4:	f851 eb04 	ldr.w	lr, [r1], #4
  4057b8:	fa13 f28e 	uxtah	r2, r3, lr
  4057bc:	1413      	asrs	r3, r2, #16
  4057be:	eb03 431e 	add.w	r3, r3, lr, lsr #16
  4057c2:	b292      	uxth	r2, r2
  4057c4:	ea42 4203 	orr.w	r2, r2, r3, lsl #16
  4057c8:	428f      	cmp	r7, r1
  4057ca:	f84c 2b04 	str.w	r2, [ip], #4
  4057ce:	ea4f 4323 	mov.w	r3, r3, asr #16
  4057d2:	d8ef      	bhi.n	4057b4 <__mdiff+0xa4>
  4057d4:	43ed      	mvns	r5, r5
  4057d6:	443d      	add	r5, r7
  4057d8:	f025 0503 	bic.w	r5, r5, #3
  4057dc:	3504      	adds	r5, #4
  4057de:	442c      	add	r4, r5
  4057e0:	3c04      	subs	r4, #4
  4057e2:	b922      	cbnz	r2, 4057ee <__mdiff+0xde>
  4057e4:	f854 3d04 	ldr.w	r3, [r4, #-4]!
  4057e8:	3e01      	subs	r6, #1
  4057ea:	2b00      	cmp	r3, #0
  4057ec:	d0fa      	beq.n	4057e4 <__mdiff+0xd4>
  4057ee:	6106      	str	r6, [r0, #16]
  4057f0:	e8bd 83f8 	ldmia.w	sp!, {r3, r4, r5, r6, r7, r8, r9, pc}
  4057f4:	2100      	movs	r1, #0
  4057f6:	f7ff fd17 	bl	405228 <_Balloc>
  4057fa:	2201      	movs	r2, #1
  4057fc:	2300      	movs	r3, #0
  4057fe:	6102      	str	r2, [r0, #16]
  405800:	6143      	str	r3, [r0, #20]
  405802:	e8bd 83f8 	ldmia.w	sp!, {r3, r4, r5, r6, r7, r8, r9, pc}
  405806:	462c      	mov	r4, r5
  405808:	f04f 0900 	mov.w	r9, #0
  40580c:	4615      	mov	r5, r2
  40580e:	e7a7      	b.n	405760 <__mdiff+0x50>
  405810:	463b      	mov	r3, r7
  405812:	f107 0414 	add.w	r4, r7, #20
  405816:	f108 0514 	add.w	r5, r8, #20
  40581a:	4647      	mov	r7, r8
  40581c:	f04f 0901 	mov.w	r9, #1
  405820:	4698      	mov	r8, r3
  405822:	e79d      	b.n	405760 <__mdiff+0x50>

00405824 <__ulp>:
  405824:	4b0f      	ldr	r3, [pc, #60]	; (405864 <__ulp+0x40>)
  405826:	400b      	ands	r3, r1
  405828:	f1a3 7350 	sub.w	r3, r3, #54525952	; 0x3400000
  40582c:	2b00      	cmp	r3, #0
  40582e:	dd02      	ble.n	405836 <__ulp+0x12>
  405830:	2000      	movs	r0, #0
  405832:	4619      	mov	r1, r3
  405834:	4770      	bx	lr
  405836:	425b      	negs	r3, r3
  405838:	151b      	asrs	r3, r3, #20
  40583a:	2b13      	cmp	r3, #19
  40583c:	dd0b      	ble.n	405856 <__ulp+0x32>
  40583e:	3b14      	subs	r3, #20
  405840:	2b1e      	cmp	r3, #30
  405842:	bfdd      	ittte	le
  405844:	f1c3 031f 	rsble	r3, r3, #31
  405848:	2201      	movle	r2, #1
  40584a:	fa02 f303 	lslle.w	r3, r2, r3
  40584e:	2301      	movgt	r3, #1
  405850:	2100      	movs	r1, #0
  405852:	4618      	mov	r0, r3
  405854:	4770      	bx	lr
  405856:	f44f 2200 	mov.w	r2, #524288	; 0x80000
  40585a:	2000      	movs	r0, #0
  40585c:	fa42 f103 	asr.w	r1, r2, r3
  405860:	4770      	bx	lr
  405862:	bf00      	nop
  405864:	7ff00000 	.word	0x7ff00000

00405868 <__b2d>:
  405868:	e92d 41f0 	stmdb	sp!, {r4, r5, r6, r7, r8, lr}
  40586c:	6906      	ldr	r6, [r0, #16]
  40586e:	f100 0814 	add.w	r8, r0, #20
  405872:	eb08 0686 	add.w	r6, r8, r6, lsl #2
  405876:	f856 7c04 	ldr.w	r7, [r6, #-4]
  40587a:	4638      	mov	r0, r7
  40587c:	f7ff fd90 	bl	4053a0 <__hi0bits>
  405880:	f1c0 0320 	rsb	r3, r0, #32
  405884:	280a      	cmp	r0, #10
  405886:	600b      	str	r3, [r1, #0]
  405888:	f1a6 0304 	sub.w	r3, r6, #4
  40588c:	dc1a      	bgt.n	4058c4 <__b2d+0x5c>
  40588e:	4598      	cmp	r8, r3
  405890:	bf38      	it	cc
  405892:	f856 3c08 	ldrcc.w	r3, [r6, #-8]
  405896:	f1c0 020b 	rsb	r2, r0, #11
  40589a:	fa27 f102 	lsr.w	r1, r7, r2
  40589e:	bf38      	it	cc
  4058a0:	fa23 f202 	lsrcc.w	r2, r3, r2
  4058a4:	f100 0315 	add.w	r3, r0, #21
  4058a8:	f041 557f 	orr.w	r5, r1, #1069547520	; 0x3fc00000
  4058ac:	bf28      	it	cs
  4058ae:	2200      	movcs	r2, #0
  4058b0:	fa07 f303 	lsl.w	r3, r7, r3
  4058b4:	f445 1540 	orr.w	r5, r5, #3145728	; 0x300000
  4058b8:	ea43 0402 	orr.w	r4, r3, r2
  4058bc:	4620      	mov	r0, r4
  4058be:	4629      	mov	r1, r5
  4058c0:	e8bd 81f0 	ldmia.w	sp!, {r4, r5, r6, r7, r8, pc}
  4058c4:	4598      	cmp	r8, r3
  4058c6:	d220      	bcs.n	40590a <__b2d+0xa2>
  4058c8:	f1b0 020b 	subs.w	r2, r0, #11
  4058cc:	f856 1c08 	ldr.w	r1, [r6, #-8]
  4058d0:	d01e      	beq.n	405910 <__b2d+0xa8>
  4058d2:	fa07 f002 	lsl.w	r0, r7, r2
  4058d6:	f040 507f 	orr.w	r0, r0, #1069547520	; 0x3fc00000
  4058da:	f1c2 0720 	rsb	r7, r2, #32
  4058de:	f1a6 0308 	sub.w	r3, r6, #8
  4058e2:	f440 1040 	orr.w	r0, r0, #3145728	; 0x300000
  4058e6:	fa21 fe07 	lsr.w	lr, r1, r7
  4058ea:	4598      	cmp	r8, r3
  4058ec:	ea40 050e 	orr.w	r5, r0, lr
  4058f0:	d220      	bcs.n	405934 <__b2d+0xcc>
  4058f2:	f856 3c0c 	ldr.w	r3, [r6, #-12]
  4058f6:	fa01 f002 	lsl.w	r0, r1, r2
  4058fa:	fa23 f207 	lsr.w	r2, r3, r7
  4058fe:	4302      	orrs	r2, r0
  405900:	4614      	mov	r4, r2
  405902:	4620      	mov	r0, r4
  405904:	4629      	mov	r1, r5
  405906:	e8bd 81f0 	ldmia.w	sp!, {r4, r5, r6, r7, r8, pc}
  40590a:	380b      	subs	r0, #11
  40590c:	d109      	bne.n	405922 <__b2d+0xba>
  40590e:	4601      	mov	r1, r0
  405910:	f047 557f 	orr.w	r5, r7, #1069547520	; 0x3fc00000
  405914:	460c      	mov	r4, r1
  405916:	f445 1540 	orr.w	r5, r5, #3145728	; 0x300000
  40591a:	4620      	mov	r0, r4
  40591c:	4629      	mov	r1, r5
  40591e:	e8bd 81f0 	ldmia.w	sp!, {r4, r5, r6, r7, r8, pc}
  405922:	fa07 f000 	lsl.w	r0, r7, r0
  405926:	f040 557f 	orr.w	r5, r0, #1069547520	; 0x3fc00000
  40592a:	2200      	movs	r2, #0
  40592c:	f445 1540 	orr.w	r5, r5, #3145728	; 0x300000
  405930:	4614      	mov	r4, r2
  405932:	e7e6      	b.n	405902 <__b2d+0x9a>
  405934:	fa01 f202 	lsl.w	r2, r1, r2
  405938:	4614      	mov	r4, r2
  40593a:	e7e2      	b.n	405902 <__b2d+0x9a>

0040593c <__d2b>:
  40593c:	e92d 41f0 	stmdb	sp!, {r4, r5, r6, r7, r8, lr}
  405940:	b082      	sub	sp, #8
  405942:	2101      	movs	r1, #1
  405944:	461c      	mov	r4, r3
  405946:	f3c3 570a 	ubfx	r7, r3, #20, #11
  40594a:	4615      	mov	r5, r2
  40594c:	9e08      	ldr	r6, [sp, #32]
  40594e:	f7ff fc6b 	bl	405228 <_Balloc>
  405952:	f3c4 0413 	ubfx	r4, r4, #0, #20
  405956:	4680      	mov	r8, r0
  405958:	b10f      	cbz	r7, 40595e <__d2b+0x22>
  40595a:	f444 1480 	orr.w	r4, r4, #1048576	; 0x100000
  40595e:	9401      	str	r4, [sp, #4]
  405960:	b31d      	cbz	r5, 4059aa <__d2b+0x6e>
  405962:	a802      	add	r0, sp, #8
  405964:	f840 5d08 	str.w	r5, [r0, #-8]!
  405968:	f7ff fd3a 	bl	4053e0 <__lo0bits>
  40596c:	2800      	cmp	r0, #0
  40596e:	d134      	bne.n	4059da <__d2b+0x9e>
  405970:	e89d 000c 	ldmia.w	sp, {r2, r3}
  405974:	f8c8 2014 	str.w	r2, [r8, #20]
  405978:	2b00      	cmp	r3, #0
  40597a:	bf0c      	ite	eq
  40597c:	2101      	moveq	r1, #1
  40597e:	2102      	movne	r1, #2
  405980:	f8c8 3018 	str.w	r3, [r8, #24]
  405984:	f8c8 1010 	str.w	r1, [r8, #16]
  405988:	b9df      	cbnz	r7, 4059c2 <__d2b+0x86>
  40598a:	eb08 0381 	add.w	r3, r8, r1, lsl #2
  40598e:	f2a0 4032 	subw	r0, r0, #1074	; 0x432
  405992:	6030      	str	r0, [r6, #0]
  405994:	6918      	ldr	r0, [r3, #16]
  405996:	f7ff fd03 	bl	4053a0 <__hi0bits>
  40599a:	9b09      	ldr	r3, [sp, #36]	; 0x24
  40599c:	ebc0 1041 	rsb	r0, r0, r1, lsl #5
  4059a0:	6018      	str	r0, [r3, #0]
  4059a2:	4640      	mov	r0, r8
  4059a4:	b002      	add	sp, #8
  4059a6:	e8bd 81f0 	ldmia.w	sp!, {r4, r5, r6, r7, r8, pc}
  4059aa:	a801      	add	r0, sp, #4
  4059ac:	f7ff fd18 	bl	4053e0 <__lo0bits>
  4059b0:	9b01      	ldr	r3, [sp, #4]
  4059b2:	f8c8 3014 	str.w	r3, [r8, #20]
  4059b6:	2101      	movs	r1, #1
  4059b8:	3020      	adds	r0, #32
  4059ba:	f8c8 1010 	str.w	r1, [r8, #16]
  4059be:	2f00      	cmp	r7, #0
  4059c0:	d0e3      	beq.n	40598a <__d2b+0x4e>
  4059c2:	9b09      	ldr	r3, [sp, #36]	; 0x24
  4059c4:	f2a7 4733 	subw	r7, r7, #1075	; 0x433
  4059c8:	4407      	add	r7, r0
  4059ca:	f1c0 0035 	rsb	r0, r0, #53	; 0x35
  4059ce:	6037      	str	r7, [r6, #0]
  4059d0:	6018      	str	r0, [r3, #0]
  4059d2:	4640      	mov	r0, r8
  4059d4:	b002      	add	sp, #8
  4059d6:	e8bd 81f0 	ldmia.w	sp!, {r4, r5, r6, r7, r8, pc}
  4059da:	e89d 000c 	ldmia.w	sp, {r2, r3}
  4059de:	f1c0 0120 	rsb	r1, r0, #32
  4059e2:	fa03 f101 	lsl.w	r1, r3, r1
  4059e6:	430a      	orrs	r2, r1
  4059e8:	40c3      	lsrs	r3, r0
  4059ea:	9301      	str	r3, [sp, #4]
  4059ec:	f8c8 2014 	str.w	r2, [r8, #20]
  4059f0:	e7c2      	b.n	405978 <__d2b+0x3c>
  4059f2:	bf00      	nop

004059f4 <__ratio>:
  4059f4:	e92d 43f0 	stmdb	sp!, {r4, r5, r6, r7, r8, r9, lr}
  4059f8:	b083      	sub	sp, #12
  4059fa:	460e      	mov	r6, r1
  4059fc:	4669      	mov	r1, sp
  4059fe:	4607      	mov	r7, r0
  405a00:	f7ff ff32 	bl	405868 <__b2d>
  405a04:	4604      	mov	r4, r0
  405a06:	460d      	mov	r5, r1
  405a08:	4630      	mov	r0, r6
  405a0a:	a901      	add	r1, sp, #4
  405a0c:	f7ff ff2c 	bl	405868 <__b2d>
  405a10:	4689      	mov	r9, r1
  405a12:	e89d 000a 	ldmia.w	sp, {r1, r3}
  405a16:	693a      	ldr	r2, [r7, #16]
  405a18:	6936      	ldr	r6, [r6, #16]
  405a1a:	1ac9      	subs	r1, r1, r3
  405a1c:	1b96      	subs	r6, r2, r6
  405a1e:	eb01 1346 	add.w	r3, r1, r6, lsl #5
  405a22:	2b00      	cmp	r3, #0
  405a24:	4680      	mov	r8, r0
  405a26:	dd0b      	ble.n	405a40 <__ratio+0x4c>
  405a28:	eb05 5103 	add.w	r1, r5, r3, lsl #20
  405a2c:	460d      	mov	r5, r1
  405a2e:	4642      	mov	r2, r8
  405a30:	464b      	mov	r3, r9
  405a32:	4620      	mov	r0, r4
  405a34:	4629      	mov	r1, r5
  405a36:	f7fd fc49 	bl	4032cc <__aeabi_ddiv>
  405a3a:	b003      	add	sp, #12
  405a3c:	e8bd 83f0 	ldmia.w	sp!, {r4, r5, r6, r7, r8, r9, pc}
  405a40:	eba9 5703 	sub.w	r7, r9, r3, lsl #20
  405a44:	46b9      	mov	r9, r7
  405a46:	e7f2      	b.n	405a2e <__ratio+0x3a>

00405a48 <__copybits>:
  405a48:	b470      	push	{r4, r5, r6}
  405a4a:	6914      	ldr	r4, [r2, #16]
  405a4c:	f102 0314 	add.w	r3, r2, #20
  405a50:	3901      	subs	r1, #1
  405a52:	114e      	asrs	r6, r1, #5
  405a54:	eb03 0484 	add.w	r4, r3, r4, lsl #2
  405a58:	3601      	adds	r6, #1
  405a5a:	42a3      	cmp	r3, r4
  405a5c:	eb00 0686 	add.w	r6, r0, r6, lsl #2
  405a60:	d20c      	bcs.n	405a7c <__copybits+0x34>
  405a62:	1f01      	subs	r1, r0, #4
  405a64:	f853 5b04 	ldr.w	r5, [r3], #4
  405a68:	f841 5f04 	str.w	r5, [r1, #4]!
  405a6c:	429c      	cmp	r4, r3
  405a6e:	d8f9      	bhi.n	405a64 <__copybits+0x1c>
  405a70:	1aa3      	subs	r3, r4, r2
  405a72:	3b15      	subs	r3, #21
  405a74:	f023 0303 	bic.w	r3, r3, #3
  405a78:	3304      	adds	r3, #4
  405a7a:	4418      	add	r0, r3
  405a7c:	4286      	cmp	r6, r0
  405a7e:	d904      	bls.n	405a8a <__copybits+0x42>
  405a80:	2300      	movs	r3, #0
  405a82:	f840 3b04 	str.w	r3, [r0], #4
  405a86:	4286      	cmp	r6, r0
  405a88:	d8fb      	bhi.n	405a82 <__copybits+0x3a>
  405a8a:	bc70      	pop	{r4, r5, r6}
  405a8c:	4770      	bx	lr
  405a8e:	bf00      	nop

00405a90 <__any_on>:
  405a90:	6903      	ldr	r3, [r0, #16]
  405a92:	114a      	asrs	r2, r1, #5
  405a94:	4293      	cmp	r3, r2
  405a96:	b410      	push	{r4}
  405a98:	f100 0414 	add.w	r4, r0, #20
  405a9c:	da0f      	bge.n	405abe <__any_on+0x2e>
  405a9e:	eb04 0383 	add.w	r3, r4, r3, lsl #2
  405aa2:	429c      	cmp	r4, r3
  405aa4:	d21f      	bcs.n	405ae6 <__any_on+0x56>
  405aa6:	f853 0c04 	ldr.w	r0, [r3, #-4]
  405aaa:	3b04      	subs	r3, #4
  405aac:	b118      	cbz	r0, 405ab6 <__any_on+0x26>
  405aae:	e014      	b.n	405ada <__any_on+0x4a>
  405ab0:	f853 2d04 	ldr.w	r2, [r3, #-4]!
  405ab4:	b98a      	cbnz	r2, 405ada <__any_on+0x4a>
  405ab6:	429c      	cmp	r4, r3
  405ab8:	d3fa      	bcc.n	405ab0 <__any_on+0x20>
  405aba:	bc10      	pop	{r4}
  405abc:	4770      	bx	lr
  405abe:	dd0f      	ble.n	405ae0 <__any_on+0x50>
  405ac0:	f011 011f 	ands.w	r1, r1, #31
  405ac4:	d00c      	beq.n	405ae0 <__any_on+0x50>
  405ac6:	f854 0022 	ldr.w	r0, [r4, r2, lsl #2]
  405aca:	fa20 f301 	lsr.w	r3, r0, r1
  405ace:	fa03 f101 	lsl.w	r1, r3, r1
  405ad2:	4288      	cmp	r0, r1
  405ad4:	eb04 0382 	add.w	r3, r4, r2, lsl #2
  405ad8:	d0e3      	beq.n	405aa2 <__any_on+0x12>
  405ada:	2001      	movs	r0, #1
  405adc:	bc10      	pop	{r4}
  405ade:	4770      	bx	lr
  405ae0:	eb04 0382 	add.w	r3, r4, r2, lsl #2
  405ae4:	e7dd      	b.n	405aa2 <__any_on+0x12>
  405ae6:	2000      	movs	r0, #0
  405ae8:	e7e7      	b.n	405aba <__any_on+0x2a>
  405aea:	bf00      	nop

00405aec <strncmp>:
  405aec:	2a00      	cmp	r2, #0
  405aee:	d041      	beq.n	405b74 <strncmp+0x88>
  405af0:	ea40 0301 	orr.w	r3, r0, r1
  405af4:	f013 0303 	ands.w	r3, r3, #3
  405af8:	b4f0      	push	{r4, r5, r6, r7}
  405afa:	d125      	bne.n	405b48 <strncmp+0x5c>
  405afc:	2a03      	cmp	r2, #3
  405afe:	d923      	bls.n	405b48 <strncmp+0x5c>
  405b00:	6804      	ldr	r4, [r0, #0]
  405b02:	680d      	ldr	r5, [r1, #0]
  405b04:	42ac      	cmp	r4, r5
  405b06:	d11f      	bne.n	405b48 <strncmp+0x5c>
  405b08:	3a04      	subs	r2, #4
  405b0a:	d035      	beq.n	405b78 <strncmp+0x8c>
  405b0c:	f1a4 3501 	sub.w	r5, r4, #16843009	; 0x1010101
  405b10:	ea25 0404 	bic.w	r4, r5, r4
  405b14:	f014 3f80 	tst.w	r4, #2155905152	; 0x80808080
  405b18:	d131      	bne.n	405b7e <strncmp+0x92>
  405b1a:	1d07      	adds	r7, r0, #4
  405b1c:	1d0d      	adds	r5, r1, #4
  405b1e:	e00d      	b.n	405b3c <strncmp+0x50>
  405b20:	f857 3b04 	ldr.w	r3, [r7], #4
  405b24:	680e      	ldr	r6, [r1, #0]
  405b26:	f1a3 3401 	sub.w	r4, r3, #16843009	; 0x1010101
  405b2a:	42b3      	cmp	r3, r6
  405b2c:	ea24 0403 	bic.w	r4, r4, r3
  405b30:	d10a      	bne.n	405b48 <strncmp+0x5c>
  405b32:	3a04      	subs	r2, #4
  405b34:	d020      	beq.n	405b78 <strncmp+0x8c>
  405b36:	f014 3f80 	tst.w	r4, #2155905152	; 0x80808080
  405b3a:	d123      	bne.n	405b84 <strncmp+0x98>
  405b3c:	2a03      	cmp	r2, #3
  405b3e:	4629      	mov	r1, r5
  405b40:	4638      	mov	r0, r7
  405b42:	f105 0504 	add.w	r5, r5, #4
  405b46:	d8eb      	bhi.n	405b20 <strncmp+0x34>
  405b48:	7803      	ldrb	r3, [r0, #0]
  405b4a:	780c      	ldrb	r4, [r1, #0]
  405b4c:	429c      	cmp	r4, r3
  405b4e:	f102 32ff 	add.w	r2, r2, #4294967295
  405b52:	d10c      	bne.n	405b6e <strncmp+0x82>
  405b54:	b182      	cbz	r2, 405b78 <strncmp+0x8c>
  405b56:	b914      	cbnz	r4, 405b5e <strncmp+0x72>
  405b58:	e016      	b.n	405b88 <strncmp+0x9c>
  405b5a:	b16a      	cbz	r2, 405b78 <strncmp+0x8c>
  405b5c:	b17b      	cbz	r3, 405b7e <strncmp+0x92>
  405b5e:	f810 3f01 	ldrb.w	r3, [r0, #1]!
  405b62:	f811 4f01 	ldrb.w	r4, [r1, #1]!
  405b66:	42a3      	cmp	r3, r4
  405b68:	f102 32ff 	add.w	r2, r2, #4294967295
  405b6c:	d0f5      	beq.n	405b5a <strncmp+0x6e>
  405b6e:	1b18      	subs	r0, r3, r4
  405b70:	bcf0      	pop	{r4, r5, r6, r7}
  405b72:	4770      	bx	lr
  405b74:	4610      	mov	r0, r2
  405b76:	4770      	bx	lr
  405b78:	4610      	mov	r0, r2
  405b7a:	bcf0      	pop	{r4, r5, r6, r7}
  405b7c:	4770      	bx	lr
  405b7e:	4618      	mov	r0, r3
  405b80:	bcf0      	pop	{r4, r5, r6, r7}
  405b82:	4770      	bx	lr
  405b84:	2000      	movs	r0, #0
  405b86:	e7f3      	b.n	405b70 <strncmp+0x84>
  405b88:	4620      	mov	r0, r4
  405b8a:	e7f1      	b.n	405b70 <strncmp+0x84>

00405b8c <__register_exitproc>:
  405b8c:	e92d 47f0 	stmdb	sp!, {r4, r5, r6, r7, r8, r9, sl, lr}
  405b90:	4c25      	ldr	r4, [pc, #148]	; (405c28 <__register_exitproc+0x9c>)
  405b92:	6825      	ldr	r5, [r4, #0]
  405b94:	f8d5 4148 	ldr.w	r4, [r5, #328]	; 0x148
  405b98:	4606      	mov	r6, r0
  405b9a:	4688      	mov	r8, r1
  405b9c:	4692      	mov	sl, r2
  405b9e:	4699      	mov	r9, r3
  405ba0:	b3c4      	cbz	r4, 405c14 <__register_exitproc+0x88>
  405ba2:	6860      	ldr	r0, [r4, #4]
  405ba4:	281f      	cmp	r0, #31
  405ba6:	dc17      	bgt.n	405bd8 <__register_exitproc+0x4c>
  405ba8:	1c43      	adds	r3, r0, #1
  405baa:	b176      	cbz	r6, 405bca <__register_exitproc+0x3e>
  405bac:	eb04 0580 	add.w	r5, r4, r0, lsl #2
  405bb0:	2201      	movs	r2, #1
  405bb2:	f8c5 a088 	str.w	sl, [r5, #136]	; 0x88
  405bb6:	f8d4 1188 	ldr.w	r1, [r4, #392]	; 0x188
  405bba:	4082      	lsls	r2, r0
  405bbc:	4311      	orrs	r1, r2
  405bbe:	2e02      	cmp	r6, #2
  405bc0:	f8c4 1188 	str.w	r1, [r4, #392]	; 0x188
  405bc4:	f8c5 9108 	str.w	r9, [r5, #264]	; 0x108
  405bc8:	d01e      	beq.n	405c08 <__register_exitproc+0x7c>
  405bca:	3002      	adds	r0, #2
  405bcc:	6063      	str	r3, [r4, #4]
  405bce:	f844 8020 	str.w	r8, [r4, r0, lsl #2]
  405bd2:	2000      	movs	r0, #0
  405bd4:	e8bd 87f0 	ldmia.w	sp!, {r4, r5, r6, r7, r8, r9, sl, pc}
  405bd8:	4b14      	ldr	r3, [pc, #80]	; (405c2c <__register_exitproc+0xa0>)
  405bda:	b303      	cbz	r3, 405c1e <__register_exitproc+0x92>
  405bdc:	f44f 70c8 	mov.w	r0, #400	; 0x190
  405be0:	f3af 8000 	nop.w
  405be4:	4604      	mov	r4, r0
  405be6:	b1d0      	cbz	r0, 405c1e <__register_exitproc+0x92>
  405be8:	f8d5 3148 	ldr.w	r3, [r5, #328]	; 0x148
  405bec:	2700      	movs	r7, #0
  405bee:	e880 0088 	stmia.w	r0, {r3, r7}
  405bf2:	f8c5 4148 	str.w	r4, [r5, #328]	; 0x148
  405bf6:	4638      	mov	r0, r7
  405bf8:	2301      	movs	r3, #1
  405bfa:	f8c4 7188 	str.w	r7, [r4, #392]	; 0x188
  405bfe:	f8c4 718c 	str.w	r7, [r4, #396]	; 0x18c
  405c02:	2e00      	cmp	r6, #0
  405c04:	d0e1      	beq.n	405bca <__register_exitproc+0x3e>
  405c06:	e7d1      	b.n	405bac <__register_exitproc+0x20>
  405c08:	f8d4 118c 	ldr.w	r1, [r4, #396]	; 0x18c
  405c0c:	430a      	orrs	r2, r1
  405c0e:	f8c4 218c 	str.w	r2, [r4, #396]	; 0x18c
  405c12:	e7da      	b.n	405bca <__register_exitproc+0x3e>
  405c14:	f505 74a6 	add.w	r4, r5, #332	; 0x14c
  405c18:	f8c5 4148 	str.w	r4, [r5, #328]	; 0x148
  405c1c:	e7c1      	b.n	405ba2 <__register_exitproc+0x16>
  405c1e:	f04f 30ff 	mov.w	r0, #4294967295
  405c22:	e8bd 87f0 	ldmia.w	sp!, {r4, r5, r6, r7, r8, r9, sl, pc}
  405c26:	bf00      	nop
  405c28:	004065dc 	.word	0x004065dc
  405c2c:	00000000 	.word	0x00000000

00405c30 <_calloc_r>:
  405c30:	b510      	push	{r4, lr}
  405c32:	fb02 f101 	mul.w	r1, r2, r1
  405c36:	f000 f82b 	bl	405c90 <_malloc_r>
  405c3a:	4604      	mov	r4, r0
  405c3c:	b1d8      	cbz	r0, 405c76 <_calloc_r+0x46>
  405c3e:	f850 2c04 	ldr.w	r2, [r0, #-4]
  405c42:	f022 0203 	bic.w	r2, r2, #3
  405c46:	3a04      	subs	r2, #4
  405c48:	2a24      	cmp	r2, #36	; 0x24
  405c4a:	d818      	bhi.n	405c7e <_calloc_r+0x4e>
  405c4c:	2a13      	cmp	r2, #19
  405c4e:	d914      	bls.n	405c7a <_calloc_r+0x4a>
  405c50:	2300      	movs	r3, #0
  405c52:	2a1b      	cmp	r2, #27
  405c54:	6003      	str	r3, [r0, #0]
  405c56:	6043      	str	r3, [r0, #4]
  405c58:	d916      	bls.n	405c88 <_calloc_r+0x58>
  405c5a:	2a24      	cmp	r2, #36	; 0x24
  405c5c:	6083      	str	r3, [r0, #8]
  405c5e:	60c3      	str	r3, [r0, #12]
  405c60:	bf11      	iteee	ne
  405c62:	f100 0210 	addne.w	r2, r0, #16
  405c66:	6103      	streq	r3, [r0, #16]
  405c68:	6143      	streq	r3, [r0, #20]
  405c6a:	f100 0218 	addeq.w	r2, r0, #24
  405c6e:	2300      	movs	r3, #0
  405c70:	6013      	str	r3, [r2, #0]
  405c72:	6053      	str	r3, [r2, #4]
  405c74:	6093      	str	r3, [r2, #8]
  405c76:	4620      	mov	r0, r4
  405c78:	bd10      	pop	{r4, pc}
  405c7a:	4602      	mov	r2, r0
  405c7c:	e7f7      	b.n	405c6e <_calloc_r+0x3e>
  405c7e:	2100      	movs	r1, #0
  405c80:	f7fd fd74 	bl	40376c <memset>
  405c84:	4620      	mov	r0, r4
  405c86:	bd10      	pop	{r4, pc}
  405c88:	f100 0208 	add.w	r2, r0, #8
  405c8c:	e7ef      	b.n	405c6e <_calloc_r+0x3e>
  405c8e:	bf00      	nop

00405c90 <_malloc_r>:
  405c90:	e92d 4ff0 	stmdb	sp!, {r4, r5, r6, r7, r8, r9, sl, fp, lr}
  405c94:	f101 050b 	add.w	r5, r1, #11
  405c98:	2d16      	cmp	r5, #22
  405c9a:	b083      	sub	sp, #12
  405c9c:	4606      	mov	r6, r0
  405c9e:	f240 809f 	bls.w	405de0 <_malloc_r+0x150>
  405ca2:	f035 0507 	bics.w	r5, r5, #7
  405ca6:	f100 80bf 	bmi.w	405e28 <_malloc_r+0x198>
  405caa:	42a9      	cmp	r1, r5
  405cac:	f200 80bc 	bhi.w	405e28 <_malloc_r+0x198>
  405cb0:	f000 faa6 	bl	406200 <__malloc_lock>
  405cb4:	f5b5 7ffc 	cmp.w	r5, #504	; 0x1f8
  405cb8:	f0c0 829c 	bcc.w	4061f4 <_malloc_r+0x564>
  405cbc:	0a6b      	lsrs	r3, r5, #9
  405cbe:	f000 80ba 	beq.w	405e36 <_malloc_r+0x1a6>
  405cc2:	2b04      	cmp	r3, #4
  405cc4:	f200 8183 	bhi.w	405fce <_malloc_r+0x33e>
  405cc8:	09a8      	lsrs	r0, r5, #6
  405cca:	f100 0e39 	add.w	lr, r0, #57	; 0x39
  405cce:	ea4f 034e 	mov.w	r3, lr, lsl #1
  405cd2:	3038      	adds	r0, #56	; 0x38
  405cd4:	4fc4      	ldr	r7, [pc, #784]	; (405fe8 <_malloc_r+0x358>)
  405cd6:	eb07 0383 	add.w	r3, r7, r3, lsl #2
  405cda:	f1a3 0108 	sub.w	r1, r3, #8
  405cde:	685c      	ldr	r4, [r3, #4]
  405ce0:	42a1      	cmp	r1, r4
  405ce2:	d107      	bne.n	405cf4 <_malloc_r+0x64>
  405ce4:	e0ac      	b.n	405e40 <_malloc_r+0x1b0>
  405ce6:	2a00      	cmp	r2, #0
  405ce8:	f280 80ac 	bge.w	405e44 <_malloc_r+0x1b4>
  405cec:	68e4      	ldr	r4, [r4, #12]
  405cee:	42a1      	cmp	r1, r4
  405cf0:	f000 80a6 	beq.w	405e40 <_malloc_r+0x1b0>
  405cf4:	6863      	ldr	r3, [r4, #4]
  405cf6:	f023 0303 	bic.w	r3, r3, #3
  405cfa:	1b5a      	subs	r2, r3, r5
  405cfc:	2a0f      	cmp	r2, #15
  405cfe:	ddf2      	ble.n	405ce6 <_malloc_r+0x56>
  405d00:	49b9      	ldr	r1, [pc, #740]	; (405fe8 <_malloc_r+0x358>)
  405d02:	693c      	ldr	r4, [r7, #16]
  405d04:	f101 0e08 	add.w	lr, r1, #8
  405d08:	4574      	cmp	r4, lr
  405d0a:	f000 81b3 	beq.w	406074 <_malloc_r+0x3e4>
  405d0e:	6863      	ldr	r3, [r4, #4]
  405d10:	f023 0303 	bic.w	r3, r3, #3
  405d14:	1b5a      	subs	r2, r3, r5
  405d16:	2a0f      	cmp	r2, #15
  405d18:	f300 8199 	bgt.w	40604e <_malloc_r+0x3be>
  405d1c:	2a00      	cmp	r2, #0
  405d1e:	f8c1 e014 	str.w	lr, [r1, #20]
  405d22:	f8c1 e010 	str.w	lr, [r1, #16]
  405d26:	f280 809e 	bge.w	405e66 <_malloc_r+0x1d6>
  405d2a:	f5b3 7f00 	cmp.w	r3, #512	; 0x200
  405d2e:	f080 8167 	bcs.w	406000 <_malloc_r+0x370>
  405d32:	08db      	lsrs	r3, r3, #3
  405d34:	f103 0c01 	add.w	ip, r3, #1
  405d38:	2201      	movs	r2, #1
  405d3a:	109b      	asrs	r3, r3, #2
  405d3c:	fa02 f303 	lsl.w	r3, r2, r3
  405d40:	684a      	ldr	r2, [r1, #4]
  405d42:	f851 803c 	ldr.w	r8, [r1, ip, lsl #3]
  405d46:	f8c4 8008 	str.w	r8, [r4, #8]
  405d4a:	eb01 09cc 	add.w	r9, r1, ip, lsl #3
  405d4e:	431a      	orrs	r2, r3
  405d50:	f1a9 0308 	sub.w	r3, r9, #8
  405d54:	60e3      	str	r3, [r4, #12]
  405d56:	604a      	str	r2, [r1, #4]
  405d58:	f841 403c 	str.w	r4, [r1, ip, lsl #3]
  405d5c:	f8c8 400c 	str.w	r4, [r8, #12]
  405d60:	1083      	asrs	r3, r0, #2
  405d62:	2401      	movs	r4, #1
  405d64:	409c      	lsls	r4, r3
  405d66:	4294      	cmp	r4, r2
  405d68:	f200 808a 	bhi.w	405e80 <_malloc_r+0x1f0>
  405d6c:	4214      	tst	r4, r2
  405d6e:	d106      	bne.n	405d7e <_malloc_r+0xee>
  405d70:	f020 0003 	bic.w	r0, r0, #3
  405d74:	0064      	lsls	r4, r4, #1
  405d76:	4214      	tst	r4, r2
  405d78:	f100 0004 	add.w	r0, r0, #4
  405d7c:	d0fa      	beq.n	405d74 <_malloc_r+0xe4>
  405d7e:	eb07 09c0 	add.w	r9, r7, r0, lsl #3
  405d82:	46cc      	mov	ip, r9
  405d84:	4680      	mov	r8, r0
  405d86:	f8dc 100c 	ldr.w	r1, [ip, #12]
  405d8a:	458c      	cmp	ip, r1
  405d8c:	d107      	bne.n	405d9e <_malloc_r+0x10e>
  405d8e:	e173      	b.n	406078 <_malloc_r+0x3e8>
  405d90:	2a00      	cmp	r2, #0
  405d92:	f280 8181 	bge.w	406098 <_malloc_r+0x408>
  405d96:	68c9      	ldr	r1, [r1, #12]
  405d98:	458c      	cmp	ip, r1
  405d9a:	f000 816d 	beq.w	406078 <_malloc_r+0x3e8>
  405d9e:	684b      	ldr	r3, [r1, #4]
  405da0:	f023 0303 	bic.w	r3, r3, #3
  405da4:	1b5a      	subs	r2, r3, r5
  405da6:	2a0f      	cmp	r2, #15
  405da8:	ddf2      	ble.n	405d90 <_malloc_r+0x100>
  405daa:	460c      	mov	r4, r1
  405dac:	f8d1 c00c 	ldr.w	ip, [r1, #12]
  405db0:	f854 8f08 	ldr.w	r8, [r4, #8]!
  405db4:	194b      	adds	r3, r1, r5
  405db6:	f045 0501 	orr.w	r5, r5, #1
  405dba:	604d      	str	r5, [r1, #4]
  405dbc:	f042 0101 	orr.w	r1, r2, #1
  405dc0:	f8c8 c00c 	str.w	ip, [r8, #12]
  405dc4:	4630      	mov	r0, r6
  405dc6:	f8cc 8008 	str.w	r8, [ip, #8]
  405dca:	617b      	str	r3, [r7, #20]
  405dcc:	613b      	str	r3, [r7, #16]
  405dce:	f8c3 e00c 	str.w	lr, [r3, #12]
  405dd2:	f8c3 e008 	str.w	lr, [r3, #8]
  405dd6:	6059      	str	r1, [r3, #4]
  405dd8:	509a      	str	r2, [r3, r2]
  405dda:	f000 fa13 	bl	406204 <__malloc_unlock>
  405dde:	e01f      	b.n	405e20 <_malloc_r+0x190>
  405de0:	2910      	cmp	r1, #16
  405de2:	d821      	bhi.n	405e28 <_malloc_r+0x198>
  405de4:	f000 fa0c 	bl	406200 <__malloc_lock>
  405de8:	2510      	movs	r5, #16
  405dea:	2306      	movs	r3, #6
  405dec:	2002      	movs	r0, #2
  405dee:	4f7e      	ldr	r7, [pc, #504]	; (405fe8 <_malloc_r+0x358>)
  405df0:	eb07 0383 	add.w	r3, r7, r3, lsl #2
  405df4:	f1a3 0208 	sub.w	r2, r3, #8
  405df8:	685c      	ldr	r4, [r3, #4]
  405dfa:	4294      	cmp	r4, r2
  405dfc:	f000 8145 	beq.w	40608a <_malloc_r+0x3fa>
  405e00:	6863      	ldr	r3, [r4, #4]
  405e02:	68e1      	ldr	r1, [r4, #12]
  405e04:	68a5      	ldr	r5, [r4, #8]
  405e06:	f023 0303 	bic.w	r3, r3, #3
  405e0a:	4423      	add	r3, r4
  405e0c:	4630      	mov	r0, r6
  405e0e:	685a      	ldr	r2, [r3, #4]
  405e10:	60e9      	str	r1, [r5, #12]
  405e12:	f042 0201 	orr.w	r2, r2, #1
  405e16:	608d      	str	r5, [r1, #8]
  405e18:	605a      	str	r2, [r3, #4]
  405e1a:	f000 f9f3 	bl	406204 <__malloc_unlock>
  405e1e:	3408      	adds	r4, #8
  405e20:	4620      	mov	r0, r4
  405e22:	b003      	add	sp, #12
  405e24:	e8bd 8ff0 	ldmia.w	sp!, {r4, r5, r6, r7, r8, r9, sl, fp, pc}
  405e28:	2400      	movs	r4, #0
  405e2a:	230c      	movs	r3, #12
  405e2c:	4620      	mov	r0, r4
  405e2e:	6033      	str	r3, [r6, #0]
  405e30:	b003      	add	sp, #12
  405e32:	e8bd 8ff0 	ldmia.w	sp!, {r4, r5, r6, r7, r8, r9, sl, fp, pc}
  405e36:	2380      	movs	r3, #128	; 0x80
  405e38:	f04f 0e40 	mov.w	lr, #64	; 0x40
  405e3c:	203f      	movs	r0, #63	; 0x3f
  405e3e:	e749      	b.n	405cd4 <_malloc_r+0x44>
  405e40:	4670      	mov	r0, lr
  405e42:	e75d      	b.n	405d00 <_malloc_r+0x70>
  405e44:	4423      	add	r3, r4
  405e46:	68e1      	ldr	r1, [r4, #12]
  405e48:	685a      	ldr	r2, [r3, #4]
  405e4a:	68a5      	ldr	r5, [r4, #8]
  405e4c:	f042 0201 	orr.w	r2, r2, #1
  405e50:	60e9      	str	r1, [r5, #12]
  405e52:	4630      	mov	r0, r6
  405e54:	608d      	str	r5, [r1, #8]
  405e56:	605a      	str	r2, [r3, #4]
  405e58:	f000 f9d4 	bl	406204 <__malloc_unlock>
  405e5c:	3408      	adds	r4, #8
  405e5e:	4620      	mov	r0, r4
  405e60:	b003      	add	sp, #12
  405e62:	e8bd 8ff0 	ldmia.w	sp!, {r4, r5, r6, r7, r8, r9, sl, fp, pc}
  405e66:	4423      	add	r3, r4
  405e68:	4630      	mov	r0, r6
  405e6a:	685a      	ldr	r2, [r3, #4]
  405e6c:	f042 0201 	orr.w	r2, r2, #1
  405e70:	605a      	str	r2, [r3, #4]
  405e72:	f000 f9c7 	bl	406204 <__malloc_unlock>
  405e76:	3408      	adds	r4, #8
  405e78:	4620      	mov	r0, r4
  405e7a:	b003      	add	sp, #12
  405e7c:	e8bd 8ff0 	ldmia.w	sp!, {r4, r5, r6, r7, r8, r9, sl, fp, pc}
  405e80:	68bc      	ldr	r4, [r7, #8]
  405e82:	6863      	ldr	r3, [r4, #4]
  405e84:	f023 0803 	bic.w	r8, r3, #3
  405e88:	45a8      	cmp	r8, r5
  405e8a:	d304      	bcc.n	405e96 <_malloc_r+0x206>
  405e8c:	ebc5 0308 	rsb	r3, r5, r8
  405e90:	2b0f      	cmp	r3, #15
  405e92:	f300 808c 	bgt.w	405fae <_malloc_r+0x31e>
  405e96:	4b55      	ldr	r3, [pc, #340]	; (405fec <_malloc_r+0x35c>)
  405e98:	f8df 9160 	ldr.w	r9, [pc, #352]	; 405ffc <_malloc_r+0x36c>
  405e9c:	681a      	ldr	r2, [r3, #0]
  405e9e:	f8d9 3000 	ldr.w	r3, [r9]
  405ea2:	3301      	adds	r3, #1
  405ea4:	442a      	add	r2, r5
  405ea6:	eb04 0a08 	add.w	sl, r4, r8
  405eaa:	f000 8160 	beq.w	40616e <_malloc_r+0x4de>
  405eae:	f502 5280 	add.w	r2, r2, #4096	; 0x1000
  405eb2:	320f      	adds	r2, #15
  405eb4:	f422 627f 	bic.w	r2, r2, #4080	; 0xff0
  405eb8:	f022 020f 	bic.w	r2, r2, #15
  405ebc:	4611      	mov	r1, r2
  405ebe:	4630      	mov	r0, r6
  405ec0:	9201      	str	r2, [sp, #4]
  405ec2:	f000 f9a1 	bl	406208 <_sbrk_r>
  405ec6:	f1b0 3fff 	cmp.w	r0, #4294967295
  405eca:	4683      	mov	fp, r0
  405ecc:	9a01      	ldr	r2, [sp, #4]
  405ece:	f000 8158 	beq.w	406182 <_malloc_r+0x4f2>
  405ed2:	4582      	cmp	sl, r0
  405ed4:	f200 80fc 	bhi.w	4060d0 <_malloc_r+0x440>
  405ed8:	4b45      	ldr	r3, [pc, #276]	; (405ff0 <_malloc_r+0x360>)
  405eda:	6819      	ldr	r1, [r3, #0]
  405edc:	45da      	cmp	sl, fp
  405ede:	4411      	add	r1, r2
  405ee0:	6019      	str	r1, [r3, #0]
  405ee2:	f000 8153 	beq.w	40618c <_malloc_r+0x4fc>
  405ee6:	f8d9 0000 	ldr.w	r0, [r9]
  405eea:	f8df e110 	ldr.w	lr, [pc, #272]	; 405ffc <_malloc_r+0x36c>
  405eee:	3001      	adds	r0, #1
  405ef0:	bf1b      	ittet	ne
  405ef2:	ebca 0a0b 	rsbne	sl, sl, fp
  405ef6:	4451      	addne	r1, sl
  405ef8:	f8ce b000 	streq.w	fp, [lr]
  405efc:	6019      	strne	r1, [r3, #0]
  405efe:	f01b 0107 	ands.w	r1, fp, #7
  405f02:	f000 8117 	beq.w	406134 <_malloc_r+0x4a4>
  405f06:	f1c1 0008 	rsb	r0, r1, #8
  405f0a:	f5c1 5180 	rsb	r1, r1, #4096	; 0x1000
  405f0e:	4483      	add	fp, r0
  405f10:	3108      	adds	r1, #8
  405f12:	445a      	add	r2, fp
  405f14:	f3c2 020b 	ubfx	r2, r2, #0, #12
  405f18:	ebc2 0901 	rsb	r9, r2, r1
  405f1c:	4649      	mov	r1, r9
  405f1e:	4630      	mov	r0, r6
  405f20:	9301      	str	r3, [sp, #4]
  405f22:	f000 f971 	bl	406208 <_sbrk_r>
  405f26:	1c43      	adds	r3, r0, #1
  405f28:	9b01      	ldr	r3, [sp, #4]
  405f2a:	f000 813f 	beq.w	4061ac <_malloc_r+0x51c>
  405f2e:	ebcb 0200 	rsb	r2, fp, r0
  405f32:	444a      	add	r2, r9
  405f34:	f042 0201 	orr.w	r2, r2, #1
  405f38:	6819      	ldr	r1, [r3, #0]
  405f3a:	f8c7 b008 	str.w	fp, [r7, #8]
  405f3e:	4449      	add	r1, r9
  405f40:	42bc      	cmp	r4, r7
  405f42:	f8cb 2004 	str.w	r2, [fp, #4]
  405f46:	6019      	str	r1, [r3, #0]
  405f48:	f8df 90a4 	ldr.w	r9, [pc, #164]	; 405ff0 <_malloc_r+0x360>
  405f4c:	d016      	beq.n	405f7c <_malloc_r+0x2ec>
  405f4e:	f1b8 0f0f 	cmp.w	r8, #15
  405f52:	f240 80fd 	bls.w	406150 <_malloc_r+0x4c0>
  405f56:	6862      	ldr	r2, [r4, #4]
  405f58:	f1a8 030c 	sub.w	r3, r8, #12
  405f5c:	f023 0307 	bic.w	r3, r3, #7
  405f60:	18e0      	adds	r0, r4, r3
  405f62:	f002 0201 	and.w	r2, r2, #1
  405f66:	f04f 0e05 	mov.w	lr, #5
  405f6a:	431a      	orrs	r2, r3
  405f6c:	2b0f      	cmp	r3, #15
  405f6e:	6062      	str	r2, [r4, #4]
  405f70:	f8c0 e004 	str.w	lr, [r0, #4]
  405f74:	f8c0 e008 	str.w	lr, [r0, #8]
  405f78:	f200 811c 	bhi.w	4061b4 <_malloc_r+0x524>
  405f7c:	4b1d      	ldr	r3, [pc, #116]	; (405ff4 <_malloc_r+0x364>)
  405f7e:	68bc      	ldr	r4, [r7, #8]
  405f80:	681a      	ldr	r2, [r3, #0]
  405f82:	4291      	cmp	r1, r2
  405f84:	bf88      	it	hi
  405f86:	6019      	strhi	r1, [r3, #0]
  405f88:	4b1b      	ldr	r3, [pc, #108]	; (405ff8 <_malloc_r+0x368>)
  405f8a:	681a      	ldr	r2, [r3, #0]
  405f8c:	4291      	cmp	r1, r2
  405f8e:	6862      	ldr	r2, [r4, #4]
  405f90:	bf88      	it	hi
  405f92:	6019      	strhi	r1, [r3, #0]
  405f94:	f022 0203 	bic.w	r2, r2, #3
  405f98:	4295      	cmp	r5, r2
  405f9a:	eba2 0305 	sub.w	r3, r2, r5
  405f9e:	d801      	bhi.n	405fa4 <_malloc_r+0x314>
  405fa0:	2b0f      	cmp	r3, #15
  405fa2:	dc04      	bgt.n	405fae <_malloc_r+0x31e>
  405fa4:	4630      	mov	r0, r6
  405fa6:	f000 f92d 	bl	406204 <__malloc_unlock>
  405faa:	2400      	movs	r4, #0
  405fac:	e738      	b.n	405e20 <_malloc_r+0x190>
  405fae:	1962      	adds	r2, r4, r5
  405fb0:	f043 0301 	orr.w	r3, r3, #1
  405fb4:	f045 0501 	orr.w	r5, r5, #1
  405fb8:	6065      	str	r5, [r4, #4]
  405fba:	4630      	mov	r0, r6
  405fbc:	60ba      	str	r2, [r7, #8]
  405fbe:	6053      	str	r3, [r2, #4]
  405fc0:	f000 f920 	bl	406204 <__malloc_unlock>
  405fc4:	3408      	adds	r4, #8
  405fc6:	4620      	mov	r0, r4
  405fc8:	b003      	add	sp, #12
  405fca:	e8bd 8ff0 	ldmia.w	sp!, {r4, r5, r6, r7, r8, r9, sl, fp, pc}
  405fce:	2b14      	cmp	r3, #20
  405fd0:	d971      	bls.n	4060b6 <_malloc_r+0x426>
  405fd2:	2b54      	cmp	r3, #84	; 0x54
  405fd4:	f200 80a4 	bhi.w	406120 <_malloc_r+0x490>
  405fd8:	0b28      	lsrs	r0, r5, #12
  405fda:	f100 0e6f 	add.w	lr, r0, #111	; 0x6f
  405fde:	ea4f 034e 	mov.w	r3, lr, lsl #1
  405fe2:	306e      	adds	r0, #110	; 0x6e
  405fe4:	e676      	b.n	405cd4 <_malloc_r+0x44>
  405fe6:	bf00      	nop
  405fe8:	20400474 	.word	0x20400474
  405fec:	20400ce0 	.word	0x20400ce0
  405ff0:	20400ce4 	.word	0x20400ce4
  405ff4:	20400cdc 	.word	0x20400cdc
  405ff8:	20400cd8 	.word	0x20400cd8
  405ffc:	20400880 	.word	0x20400880
  406000:	0a5a      	lsrs	r2, r3, #9
  406002:	2a04      	cmp	r2, #4
  406004:	d95e      	bls.n	4060c4 <_malloc_r+0x434>
  406006:	2a14      	cmp	r2, #20
  406008:	f200 80b3 	bhi.w	406172 <_malloc_r+0x4e2>
  40600c:	f102 015c 	add.w	r1, r2, #92	; 0x5c
  406010:	0049      	lsls	r1, r1, #1
  406012:	325b      	adds	r2, #91	; 0x5b
  406014:	eb07 0c81 	add.w	ip, r7, r1, lsl #2
  406018:	f857 1021 	ldr.w	r1, [r7, r1, lsl #2]
  40601c:	f8df 81dc 	ldr.w	r8, [pc, #476]	; 4061fc <_malloc_r+0x56c>
  406020:	f1ac 0c08 	sub.w	ip, ip, #8
  406024:	458c      	cmp	ip, r1
  406026:	f000 8088 	beq.w	40613a <_malloc_r+0x4aa>
  40602a:	684a      	ldr	r2, [r1, #4]
  40602c:	f022 0203 	bic.w	r2, r2, #3
  406030:	4293      	cmp	r3, r2
  406032:	d202      	bcs.n	40603a <_malloc_r+0x3aa>
  406034:	6889      	ldr	r1, [r1, #8]
  406036:	458c      	cmp	ip, r1
  406038:	d1f7      	bne.n	40602a <_malloc_r+0x39a>
  40603a:	f8d1 c00c 	ldr.w	ip, [r1, #12]
  40603e:	687a      	ldr	r2, [r7, #4]
  406040:	f8c4 c00c 	str.w	ip, [r4, #12]
  406044:	60a1      	str	r1, [r4, #8]
  406046:	f8cc 4008 	str.w	r4, [ip, #8]
  40604a:	60cc      	str	r4, [r1, #12]
  40604c:	e688      	b.n	405d60 <_malloc_r+0xd0>
  40604e:	1963      	adds	r3, r4, r5
  406050:	f042 0701 	orr.w	r7, r2, #1
  406054:	f045 0501 	orr.w	r5, r5, #1
  406058:	6065      	str	r5, [r4, #4]
  40605a:	4630      	mov	r0, r6
  40605c:	614b      	str	r3, [r1, #20]
  40605e:	610b      	str	r3, [r1, #16]
  406060:	f8c3 e00c 	str.w	lr, [r3, #12]
  406064:	f8c3 e008 	str.w	lr, [r3, #8]
  406068:	605f      	str	r7, [r3, #4]
  40606a:	509a      	str	r2, [r3, r2]
  40606c:	3408      	adds	r4, #8
  40606e:	f000 f8c9 	bl	406204 <__malloc_unlock>
  406072:	e6d5      	b.n	405e20 <_malloc_r+0x190>
  406074:	684a      	ldr	r2, [r1, #4]
  406076:	e673      	b.n	405d60 <_malloc_r+0xd0>
  406078:	f108 0801 	add.w	r8, r8, #1
  40607c:	f018 0f03 	tst.w	r8, #3
  406080:	f10c 0c08 	add.w	ip, ip, #8
  406084:	f47f ae7f 	bne.w	405d86 <_malloc_r+0xf6>
  406088:	e030      	b.n	4060ec <_malloc_r+0x45c>
  40608a:	68dc      	ldr	r4, [r3, #12]
  40608c:	42a3      	cmp	r3, r4
  40608e:	bf08      	it	eq
  406090:	3002      	addeq	r0, #2
  406092:	f43f ae35 	beq.w	405d00 <_malloc_r+0x70>
  406096:	e6b3      	b.n	405e00 <_malloc_r+0x170>
  406098:	440b      	add	r3, r1
  40609a:	460c      	mov	r4, r1
  40609c:	685a      	ldr	r2, [r3, #4]
  40609e:	68c9      	ldr	r1, [r1, #12]
  4060a0:	f854 5f08 	ldr.w	r5, [r4, #8]!
  4060a4:	f042 0201 	orr.w	r2, r2, #1
  4060a8:	605a      	str	r2, [r3, #4]
  4060aa:	4630      	mov	r0, r6
  4060ac:	60e9      	str	r1, [r5, #12]
  4060ae:	608d      	str	r5, [r1, #8]
  4060b0:	f000 f8a8 	bl	406204 <__malloc_unlock>
  4060b4:	e6b4      	b.n	405e20 <_malloc_r+0x190>
  4060b6:	f103 0e5c 	add.w	lr, r3, #92	; 0x5c
  4060ba:	f103 005b 	add.w	r0, r3, #91	; 0x5b
  4060be:	ea4f 034e 	mov.w	r3, lr, lsl #1
  4060c2:	e607      	b.n	405cd4 <_malloc_r+0x44>
  4060c4:	099a      	lsrs	r2, r3, #6
  4060c6:	f102 0139 	add.w	r1, r2, #57	; 0x39
  4060ca:	0049      	lsls	r1, r1, #1
  4060cc:	3238      	adds	r2, #56	; 0x38
  4060ce:	e7a1      	b.n	406014 <_malloc_r+0x384>
  4060d0:	42bc      	cmp	r4, r7
  4060d2:	4b4a      	ldr	r3, [pc, #296]	; (4061fc <_malloc_r+0x56c>)
  4060d4:	f43f af00 	beq.w	405ed8 <_malloc_r+0x248>
  4060d8:	689c      	ldr	r4, [r3, #8]
  4060da:	6862      	ldr	r2, [r4, #4]
  4060dc:	f022 0203 	bic.w	r2, r2, #3
  4060e0:	e75a      	b.n	405f98 <_malloc_r+0x308>
  4060e2:	f859 3908 	ldr.w	r3, [r9], #-8
  4060e6:	4599      	cmp	r9, r3
  4060e8:	f040 8082 	bne.w	4061f0 <_malloc_r+0x560>
  4060ec:	f010 0f03 	tst.w	r0, #3
  4060f0:	f100 30ff 	add.w	r0, r0, #4294967295
  4060f4:	d1f5      	bne.n	4060e2 <_malloc_r+0x452>
  4060f6:	687b      	ldr	r3, [r7, #4]
  4060f8:	ea23 0304 	bic.w	r3, r3, r4
  4060fc:	607b      	str	r3, [r7, #4]
  4060fe:	0064      	lsls	r4, r4, #1
  406100:	429c      	cmp	r4, r3
  406102:	f63f aebd 	bhi.w	405e80 <_malloc_r+0x1f0>
  406106:	2c00      	cmp	r4, #0
  406108:	f43f aeba 	beq.w	405e80 <_malloc_r+0x1f0>
  40610c:	421c      	tst	r4, r3
  40610e:	4640      	mov	r0, r8
  406110:	f47f ae35 	bne.w	405d7e <_malloc_r+0xee>
  406114:	0064      	lsls	r4, r4, #1
  406116:	421c      	tst	r4, r3
  406118:	f100 0004 	add.w	r0, r0, #4
  40611c:	d0fa      	beq.n	406114 <_malloc_r+0x484>
  40611e:	e62e      	b.n	405d7e <_malloc_r+0xee>
  406120:	f5b3 7faa 	cmp.w	r3, #340	; 0x154
  406124:	d818      	bhi.n	406158 <_malloc_r+0x4c8>
  406126:	0be8      	lsrs	r0, r5, #15
  406128:	f100 0e78 	add.w	lr, r0, #120	; 0x78
  40612c:	ea4f 034e 	mov.w	r3, lr, lsl #1
  406130:	3077      	adds	r0, #119	; 0x77
  406132:	e5cf      	b.n	405cd4 <_malloc_r+0x44>
  406134:	f44f 5180 	mov.w	r1, #4096	; 0x1000
  406138:	e6eb      	b.n	405f12 <_malloc_r+0x282>
  40613a:	2101      	movs	r1, #1
  40613c:	f8d8 3004 	ldr.w	r3, [r8, #4]
  406140:	1092      	asrs	r2, r2, #2
  406142:	fa01 f202 	lsl.w	r2, r1, r2
  406146:	431a      	orrs	r2, r3
  406148:	f8c8 2004 	str.w	r2, [r8, #4]
  40614c:	4661      	mov	r1, ip
  40614e:	e777      	b.n	406040 <_malloc_r+0x3b0>
  406150:	2301      	movs	r3, #1
  406152:	f8cb 3004 	str.w	r3, [fp, #4]
  406156:	e725      	b.n	405fa4 <_malloc_r+0x314>
  406158:	f240 5254 	movw	r2, #1364	; 0x554
  40615c:	4293      	cmp	r3, r2
  40615e:	d820      	bhi.n	4061a2 <_malloc_r+0x512>
  406160:	0ca8      	lsrs	r0, r5, #18
  406162:	f100 0e7d 	add.w	lr, r0, #125	; 0x7d
  406166:	ea4f 034e 	mov.w	r3, lr, lsl #1
  40616a:	307c      	adds	r0, #124	; 0x7c
  40616c:	e5b2      	b.n	405cd4 <_malloc_r+0x44>
  40616e:	3210      	adds	r2, #16
  406170:	e6a4      	b.n	405ebc <_malloc_r+0x22c>
  406172:	2a54      	cmp	r2, #84	; 0x54
  406174:	d826      	bhi.n	4061c4 <_malloc_r+0x534>
  406176:	0b1a      	lsrs	r2, r3, #12
  406178:	f102 016f 	add.w	r1, r2, #111	; 0x6f
  40617c:	0049      	lsls	r1, r1, #1
  40617e:	326e      	adds	r2, #110	; 0x6e
  406180:	e748      	b.n	406014 <_malloc_r+0x384>
  406182:	68bc      	ldr	r4, [r7, #8]
  406184:	6862      	ldr	r2, [r4, #4]
  406186:	f022 0203 	bic.w	r2, r2, #3
  40618a:	e705      	b.n	405f98 <_malloc_r+0x308>
  40618c:	f3ca 000b 	ubfx	r0, sl, #0, #12
  406190:	2800      	cmp	r0, #0
  406192:	f47f aea8 	bne.w	405ee6 <_malloc_r+0x256>
  406196:	4442      	add	r2, r8
  406198:	68bb      	ldr	r3, [r7, #8]
  40619a:	f042 0201 	orr.w	r2, r2, #1
  40619e:	605a      	str	r2, [r3, #4]
  4061a0:	e6ec      	b.n	405f7c <_malloc_r+0x2ec>
  4061a2:	23fe      	movs	r3, #254	; 0xfe
  4061a4:	f04f 0e7f 	mov.w	lr, #127	; 0x7f
  4061a8:	207e      	movs	r0, #126	; 0x7e
  4061aa:	e593      	b.n	405cd4 <_malloc_r+0x44>
  4061ac:	2201      	movs	r2, #1
  4061ae:	f04f 0900 	mov.w	r9, #0
  4061b2:	e6c1      	b.n	405f38 <_malloc_r+0x2a8>
  4061b4:	f104 0108 	add.w	r1, r4, #8
  4061b8:	4630      	mov	r0, r6
  4061ba:	f000 f885 	bl	4062c8 <_free_r>
  4061be:	f8d9 1000 	ldr.w	r1, [r9]
  4061c2:	e6db      	b.n	405f7c <_malloc_r+0x2ec>
  4061c4:	f5b2 7faa 	cmp.w	r2, #340	; 0x154
  4061c8:	d805      	bhi.n	4061d6 <_malloc_r+0x546>
  4061ca:	0bda      	lsrs	r2, r3, #15
  4061cc:	f102 0178 	add.w	r1, r2, #120	; 0x78
  4061d0:	0049      	lsls	r1, r1, #1
  4061d2:	3277      	adds	r2, #119	; 0x77
  4061d4:	e71e      	b.n	406014 <_malloc_r+0x384>
  4061d6:	f240 5154 	movw	r1, #1364	; 0x554
  4061da:	428a      	cmp	r2, r1
  4061dc:	d805      	bhi.n	4061ea <_malloc_r+0x55a>
  4061de:	0c9a      	lsrs	r2, r3, #18
  4061e0:	f102 017d 	add.w	r1, r2, #125	; 0x7d
  4061e4:	0049      	lsls	r1, r1, #1
  4061e6:	327c      	adds	r2, #124	; 0x7c
  4061e8:	e714      	b.n	406014 <_malloc_r+0x384>
  4061ea:	21fe      	movs	r1, #254	; 0xfe
  4061ec:	227e      	movs	r2, #126	; 0x7e
  4061ee:	e711      	b.n	406014 <_malloc_r+0x384>
  4061f0:	687b      	ldr	r3, [r7, #4]
  4061f2:	e784      	b.n	4060fe <_malloc_r+0x46e>
  4061f4:	08e8      	lsrs	r0, r5, #3
  4061f6:	1c43      	adds	r3, r0, #1
  4061f8:	005b      	lsls	r3, r3, #1
  4061fa:	e5f8      	b.n	405dee <_malloc_r+0x15e>
  4061fc:	20400474 	.word	0x20400474

00406200 <__malloc_lock>:
  406200:	4770      	bx	lr
  406202:	bf00      	nop

00406204 <__malloc_unlock>:
  406204:	4770      	bx	lr
  406206:	bf00      	nop

00406208 <_sbrk_r>:
  406208:	b538      	push	{r3, r4, r5, lr}
  40620a:	4c07      	ldr	r4, [pc, #28]	; (406228 <_sbrk_r+0x20>)
  40620c:	2300      	movs	r3, #0
  40620e:	4605      	mov	r5, r0
  406210:	4608      	mov	r0, r1
  406212:	6023      	str	r3, [r4, #0]
  406214:	f7fc f9d6 	bl	4025c4 <_sbrk>
  406218:	1c43      	adds	r3, r0, #1
  40621a:	d000      	beq.n	40621e <_sbrk_r+0x16>
  40621c:	bd38      	pop	{r3, r4, r5, pc}
  40621e:	6823      	ldr	r3, [r4, #0]
  406220:	2b00      	cmp	r3, #0
  406222:	d0fb      	beq.n	40621c <_sbrk_r+0x14>
  406224:	602b      	str	r3, [r5, #0]
  406226:	bd38      	pop	{r3, r4, r5, pc}
  406228:	20400d8c 	.word	0x20400d8c

0040622c <_malloc_trim_r>:
  40622c:	b5f8      	push	{r3, r4, r5, r6, r7, lr}
  40622e:	4f23      	ldr	r7, [pc, #140]	; (4062bc <_malloc_trim_r+0x90>)
  406230:	460c      	mov	r4, r1
  406232:	4606      	mov	r6, r0
  406234:	f7ff ffe4 	bl	406200 <__malloc_lock>
  406238:	68bb      	ldr	r3, [r7, #8]
  40623a:	685d      	ldr	r5, [r3, #4]
  40623c:	f025 0503 	bic.w	r5, r5, #3
  406240:	1b29      	subs	r1, r5, r4
  406242:	f601 71ef 	addw	r1, r1, #4079	; 0xfef
  406246:	f421 617f 	bic.w	r1, r1, #4080	; 0xff0
  40624a:	f021 010f 	bic.w	r1, r1, #15
  40624e:	f5a1 5480 	sub.w	r4, r1, #4096	; 0x1000
  406252:	f5b4 5f80 	cmp.w	r4, #4096	; 0x1000
  406256:	db07      	blt.n	406268 <_malloc_trim_r+0x3c>
  406258:	2100      	movs	r1, #0
  40625a:	4630      	mov	r0, r6
  40625c:	f7ff ffd4 	bl	406208 <_sbrk_r>
  406260:	68bb      	ldr	r3, [r7, #8]
  406262:	442b      	add	r3, r5
  406264:	4298      	cmp	r0, r3
  406266:	d004      	beq.n	406272 <_malloc_trim_r+0x46>
  406268:	4630      	mov	r0, r6
  40626a:	f7ff ffcb 	bl	406204 <__malloc_unlock>
  40626e:	2000      	movs	r0, #0
  406270:	bdf8      	pop	{r3, r4, r5, r6, r7, pc}
  406272:	4261      	negs	r1, r4
  406274:	4630      	mov	r0, r6
  406276:	f7ff ffc7 	bl	406208 <_sbrk_r>
  40627a:	3001      	adds	r0, #1
  40627c:	d00d      	beq.n	40629a <_malloc_trim_r+0x6e>
  40627e:	4b10      	ldr	r3, [pc, #64]	; (4062c0 <_malloc_trim_r+0x94>)
  406280:	68ba      	ldr	r2, [r7, #8]
  406282:	6819      	ldr	r1, [r3, #0]
  406284:	1b2d      	subs	r5, r5, r4
  406286:	f045 0501 	orr.w	r5, r5, #1
  40628a:	4630      	mov	r0, r6
  40628c:	1b09      	subs	r1, r1, r4
  40628e:	6055      	str	r5, [r2, #4]
  406290:	6019      	str	r1, [r3, #0]
  406292:	f7ff ffb7 	bl	406204 <__malloc_unlock>
  406296:	2001      	movs	r0, #1
  406298:	bdf8      	pop	{r3, r4, r5, r6, r7, pc}
  40629a:	2100      	movs	r1, #0
  40629c:	4630      	mov	r0, r6
  40629e:	f7ff ffb3 	bl	406208 <_sbrk_r>
  4062a2:	68ba      	ldr	r2, [r7, #8]
  4062a4:	1a83      	subs	r3, r0, r2
  4062a6:	2b0f      	cmp	r3, #15
  4062a8:	ddde      	ble.n	406268 <_malloc_trim_r+0x3c>
  4062aa:	4c06      	ldr	r4, [pc, #24]	; (4062c4 <_malloc_trim_r+0x98>)
  4062ac:	4904      	ldr	r1, [pc, #16]	; (4062c0 <_malloc_trim_r+0x94>)
  4062ae:	6824      	ldr	r4, [r4, #0]
  4062b0:	f043 0301 	orr.w	r3, r3, #1
  4062b4:	1b00      	subs	r0, r0, r4
  4062b6:	6053      	str	r3, [r2, #4]
  4062b8:	6008      	str	r0, [r1, #0]
  4062ba:	e7d5      	b.n	406268 <_malloc_trim_r+0x3c>
  4062bc:	20400474 	.word	0x20400474
  4062c0:	20400ce4 	.word	0x20400ce4
  4062c4:	20400880 	.word	0x20400880

004062c8 <_free_r>:
  4062c8:	2900      	cmp	r1, #0
  4062ca:	d045      	beq.n	406358 <_free_r+0x90>
  4062cc:	e92d 41f0 	stmdb	sp!, {r4, r5, r6, r7, r8, lr}
  4062d0:	460d      	mov	r5, r1
  4062d2:	4680      	mov	r8, r0
  4062d4:	f7ff ff94 	bl	406200 <__malloc_lock>
  4062d8:	f855 7c04 	ldr.w	r7, [r5, #-4]
  4062dc:	496a      	ldr	r1, [pc, #424]	; (406488 <_free_r+0x1c0>)
  4062de:	f027 0301 	bic.w	r3, r7, #1
  4062e2:	f1a5 0408 	sub.w	r4, r5, #8
  4062e6:	18e2      	adds	r2, r4, r3
  4062e8:	688e      	ldr	r6, [r1, #8]
  4062ea:	6850      	ldr	r0, [r2, #4]
  4062ec:	42b2      	cmp	r2, r6
  4062ee:	f020 0003 	bic.w	r0, r0, #3
  4062f2:	d062      	beq.n	4063ba <_free_r+0xf2>
  4062f4:	07fe      	lsls	r6, r7, #31
  4062f6:	6050      	str	r0, [r2, #4]
  4062f8:	d40b      	bmi.n	406312 <_free_r+0x4a>
  4062fa:	f855 7c08 	ldr.w	r7, [r5, #-8]
  4062fe:	1be4      	subs	r4, r4, r7
  406300:	f101 0e08 	add.w	lr, r1, #8
  406304:	68a5      	ldr	r5, [r4, #8]
  406306:	4575      	cmp	r5, lr
  406308:	443b      	add	r3, r7
  40630a:	d06f      	beq.n	4063ec <_free_r+0x124>
  40630c:	68e7      	ldr	r7, [r4, #12]
  40630e:	60ef      	str	r7, [r5, #12]
  406310:	60bd      	str	r5, [r7, #8]
  406312:	1815      	adds	r5, r2, r0
  406314:	686d      	ldr	r5, [r5, #4]
  406316:	07ed      	lsls	r5, r5, #31
  406318:	d542      	bpl.n	4063a0 <_free_r+0xd8>
  40631a:	f043 0201 	orr.w	r2, r3, #1
  40631e:	6062      	str	r2, [r4, #4]
  406320:	50e3      	str	r3, [r4, r3]
  406322:	f5b3 7f00 	cmp.w	r3, #512	; 0x200
  406326:	d218      	bcs.n	40635a <_free_r+0x92>
  406328:	08db      	lsrs	r3, r3, #3
  40632a:	1c5a      	adds	r2, r3, #1
  40632c:	684d      	ldr	r5, [r1, #4]
  40632e:	f851 7032 	ldr.w	r7, [r1, r2, lsl #3]
  406332:	60a7      	str	r7, [r4, #8]
  406334:	2001      	movs	r0, #1
  406336:	109b      	asrs	r3, r3, #2
  406338:	fa00 f303 	lsl.w	r3, r0, r3
  40633c:	eb01 00c2 	add.w	r0, r1, r2, lsl #3
  406340:	431d      	orrs	r5, r3
  406342:	3808      	subs	r0, #8
  406344:	60e0      	str	r0, [r4, #12]
  406346:	604d      	str	r5, [r1, #4]
  406348:	f841 4032 	str.w	r4, [r1, r2, lsl #3]
  40634c:	60fc      	str	r4, [r7, #12]
  40634e:	4640      	mov	r0, r8
  406350:	e8bd 41f0 	ldmia.w	sp!, {r4, r5, r6, r7, r8, lr}
  406354:	f7ff bf56 	b.w	406204 <__malloc_unlock>
  406358:	4770      	bx	lr
  40635a:	0a5a      	lsrs	r2, r3, #9
  40635c:	2a04      	cmp	r2, #4
  40635e:	d853      	bhi.n	406408 <_free_r+0x140>
  406360:	099a      	lsrs	r2, r3, #6
  406362:	f102 0739 	add.w	r7, r2, #57	; 0x39
  406366:	007f      	lsls	r7, r7, #1
  406368:	f102 0538 	add.w	r5, r2, #56	; 0x38
  40636c:	eb01 0087 	add.w	r0, r1, r7, lsl #2
  406370:	f851 2027 	ldr.w	r2, [r1, r7, lsl #2]
  406374:	4944      	ldr	r1, [pc, #272]	; (406488 <_free_r+0x1c0>)
  406376:	3808      	subs	r0, #8
  406378:	4290      	cmp	r0, r2
  40637a:	d04d      	beq.n	406418 <_free_r+0x150>
  40637c:	6851      	ldr	r1, [r2, #4]
  40637e:	f021 0103 	bic.w	r1, r1, #3
  406382:	428b      	cmp	r3, r1
  406384:	d202      	bcs.n	40638c <_free_r+0xc4>
  406386:	6892      	ldr	r2, [r2, #8]
  406388:	4290      	cmp	r0, r2
  40638a:	d1f7      	bne.n	40637c <_free_r+0xb4>
  40638c:	68d0      	ldr	r0, [r2, #12]
  40638e:	60e0      	str	r0, [r4, #12]
  406390:	60a2      	str	r2, [r4, #8]
  406392:	6084      	str	r4, [r0, #8]
  406394:	60d4      	str	r4, [r2, #12]
  406396:	4640      	mov	r0, r8
  406398:	e8bd 41f0 	ldmia.w	sp!, {r4, r5, r6, r7, r8, lr}
  40639c:	f7ff bf32 	b.w	406204 <__malloc_unlock>
  4063a0:	6895      	ldr	r5, [r2, #8]
  4063a2:	4f3a      	ldr	r7, [pc, #232]	; (40648c <_free_r+0x1c4>)
  4063a4:	42bd      	cmp	r5, r7
  4063a6:	4403      	add	r3, r0
  4063a8:	d03f      	beq.n	40642a <_free_r+0x162>
  4063aa:	68d0      	ldr	r0, [r2, #12]
  4063ac:	60e8      	str	r0, [r5, #12]
  4063ae:	f043 0201 	orr.w	r2, r3, #1
  4063b2:	6085      	str	r5, [r0, #8]
  4063b4:	6062      	str	r2, [r4, #4]
  4063b6:	50e3      	str	r3, [r4, r3]
  4063b8:	e7b3      	b.n	406322 <_free_r+0x5a>
  4063ba:	07ff      	lsls	r7, r7, #31
  4063bc:	4403      	add	r3, r0
  4063be:	d407      	bmi.n	4063d0 <_free_r+0x108>
  4063c0:	f855 2c08 	ldr.w	r2, [r5, #-8]
  4063c4:	1aa4      	subs	r4, r4, r2
  4063c6:	4413      	add	r3, r2
  4063c8:	68a0      	ldr	r0, [r4, #8]
  4063ca:	68e2      	ldr	r2, [r4, #12]
  4063cc:	60c2      	str	r2, [r0, #12]
  4063ce:	6090      	str	r0, [r2, #8]
  4063d0:	4a2f      	ldr	r2, [pc, #188]	; (406490 <_free_r+0x1c8>)
  4063d2:	6812      	ldr	r2, [r2, #0]
  4063d4:	f043 0001 	orr.w	r0, r3, #1
  4063d8:	4293      	cmp	r3, r2
  4063da:	6060      	str	r0, [r4, #4]
  4063dc:	608c      	str	r4, [r1, #8]
  4063de:	d3b6      	bcc.n	40634e <_free_r+0x86>
  4063e0:	4b2c      	ldr	r3, [pc, #176]	; (406494 <_free_r+0x1cc>)
  4063e2:	4640      	mov	r0, r8
  4063e4:	6819      	ldr	r1, [r3, #0]
  4063e6:	f7ff ff21 	bl	40622c <_malloc_trim_r>
  4063ea:	e7b0      	b.n	40634e <_free_r+0x86>
  4063ec:	1811      	adds	r1, r2, r0
  4063ee:	6849      	ldr	r1, [r1, #4]
  4063f0:	07c9      	lsls	r1, r1, #31
  4063f2:	d444      	bmi.n	40647e <_free_r+0x1b6>
  4063f4:	6891      	ldr	r1, [r2, #8]
  4063f6:	68d2      	ldr	r2, [r2, #12]
  4063f8:	60ca      	str	r2, [r1, #12]
  4063fa:	4403      	add	r3, r0
  4063fc:	f043 0001 	orr.w	r0, r3, #1
  406400:	6091      	str	r1, [r2, #8]
  406402:	6060      	str	r0, [r4, #4]
  406404:	50e3      	str	r3, [r4, r3]
  406406:	e7a2      	b.n	40634e <_free_r+0x86>
  406408:	2a14      	cmp	r2, #20
  40640a:	d817      	bhi.n	40643c <_free_r+0x174>
  40640c:	f102 075c 	add.w	r7, r2, #92	; 0x5c
  406410:	007f      	lsls	r7, r7, #1
  406412:	f102 055b 	add.w	r5, r2, #91	; 0x5b
  406416:	e7a9      	b.n	40636c <_free_r+0xa4>
  406418:	10aa      	asrs	r2, r5, #2
  40641a:	684b      	ldr	r3, [r1, #4]
  40641c:	2501      	movs	r5, #1
  40641e:	fa05 f202 	lsl.w	r2, r5, r2
  406422:	4313      	orrs	r3, r2
  406424:	604b      	str	r3, [r1, #4]
  406426:	4602      	mov	r2, r0
  406428:	e7b1      	b.n	40638e <_free_r+0xc6>
  40642a:	f043 0201 	orr.w	r2, r3, #1
  40642e:	614c      	str	r4, [r1, #20]
  406430:	610c      	str	r4, [r1, #16]
  406432:	60e5      	str	r5, [r4, #12]
  406434:	60a5      	str	r5, [r4, #8]
  406436:	6062      	str	r2, [r4, #4]
  406438:	50e3      	str	r3, [r4, r3]
  40643a:	e788      	b.n	40634e <_free_r+0x86>
  40643c:	2a54      	cmp	r2, #84	; 0x54
  40643e:	d806      	bhi.n	40644e <_free_r+0x186>
  406440:	0b1a      	lsrs	r2, r3, #12
  406442:	f102 076f 	add.w	r7, r2, #111	; 0x6f
  406446:	007f      	lsls	r7, r7, #1
  406448:	f102 056e 	add.w	r5, r2, #110	; 0x6e
  40644c:	e78e      	b.n	40636c <_free_r+0xa4>
  40644e:	f5b2 7faa 	cmp.w	r2, #340	; 0x154
  406452:	d806      	bhi.n	406462 <_free_r+0x19a>
  406454:	0bda      	lsrs	r2, r3, #15
  406456:	f102 0778 	add.w	r7, r2, #120	; 0x78
  40645a:	007f      	lsls	r7, r7, #1
  40645c:	f102 0577 	add.w	r5, r2, #119	; 0x77
  406460:	e784      	b.n	40636c <_free_r+0xa4>
  406462:	f240 5054 	movw	r0, #1364	; 0x554
  406466:	4282      	cmp	r2, r0
  406468:	d806      	bhi.n	406478 <_free_r+0x1b0>
  40646a:	0c9a      	lsrs	r2, r3, #18
  40646c:	f102 077d 	add.w	r7, r2, #125	; 0x7d
  406470:	007f      	lsls	r7, r7, #1
  406472:	f102 057c 	add.w	r5, r2, #124	; 0x7c
  406476:	e779      	b.n	40636c <_free_r+0xa4>
  406478:	27fe      	movs	r7, #254	; 0xfe
  40647a:	257e      	movs	r5, #126	; 0x7e
  40647c:	e776      	b.n	40636c <_free_r+0xa4>
  40647e:	f043 0201 	orr.w	r2, r3, #1
  406482:	6062      	str	r2, [r4, #4]
  406484:	50e3      	str	r3, [r4, r3]
  406486:	e762      	b.n	40634e <_free_r+0x86>
  406488:	20400474 	.word	0x20400474
  40648c:	2040047c 	.word	0x2040047c
  406490:	2040087c 	.word	0x2040087c
  406494:	20400ce0 	.word	0x20400ce0
  406498:	766f000a 	.word	0x766f000a
  40649c:	002e0066 	.word	0x002e0066
  4064a0:	2d2d0030 	.word	0x2d2d0030
  4064a4:	2d2d2d2d 	.word	0x2d2d2d2d
  4064a8:	2d2d2d2d 	.word	0x2d2d2d2d
  4064ac:	2d2d2d2d 	.word	0x2d2d2d2d
  4064b0:	002d2d2d 	.word	0x002d2d2d
  4064b4:	7473735f 	.word	0x7473735f
  4064b8:	3a6b6361 	.word	0x3a6b6361
  4064bc:	74736500 	.word	0x74736500
  4064c0:	6e416d69 	.word	0x6e416d69
  4064c4:	58656c67 	.word	0x58656c67
  4064c8:	7365003a 	.word	0x7365003a
  4064cc:	416d6974 	.word	0x416d6974
  4064d0:	656c676e 	.word	0x656c676e
  4064d4:	70003a59 	.word	0x70003a59
  4064d8:	6e416469 	.word	0x6e416469
  4064dc:	003a5867 	.word	0x003a5867
  4064e0:	41646970 	.word	0x41646970
  4064e4:	3a59676e 	.word	0x3a59676e
  4064e8:	74734500 	.word	0x74734500
  4064ec:	74206d69 	.word	0x74206d69
  4064f0:	20656d69 	.word	0x20656d69
  4064f4:	28207375 	.word	0x28207375
  4064f8:	30303133 	.word	0x30303133
  4064fc:	5f003a29 	.word	0x5f003a29
  406500:	54716572 	.word	0x54716572
  406504:	746f7268 	.word	0x746f7268
  406508:	3a656c74 	.word	0x3a656c74
  40650c:	65725f00 	.word	0x65725f00
  406510:	6c6f5271 	.word	0x6c6f5271
  406514:	3a785f6c 	.word	0x3a785f6c
  406518:	65725f00 	.word	0x65725f00
  40651c:	74695071 	.word	0x74695071
  406520:	795f6863 	.word	0x795f6863
  406524:	725f003a 	.word	0x725f003a
  406528:	61597165 	.word	0x61597165
  40652c:	3a7a5f77 	.word	0x3a7a5f77
  406530:	72726500 	.word	0x72726500
  406534:	6920726f 	.word	0x6920726f
  406538:	2074696e 	.word	0x2074696e
  40653c:	3a433249 	.word	0x3a433249
  406540:	696e4900 	.word	0x696e4900
  406544:	32492074 	.word	0x32492074
  406548:	4b4f2043 	.word	0x4b4f2043
  40654c:	696e4900 	.word	0x696e4900
  406550:	72642074 	.word	0x72642074
  406554:	41696e6f 	.word	0x41696e6f
  406558:	4f207474 	.word	0x4f207474
  40655c:	004b      	.short	0x004b

0040655e <CSWTCH.6>:
  40655e:	0100 0300 0200 0001 0000 0002 0000 0004     ................
  40656e:	0000 0008 0000 0010 0000 0020 0000 0040     .......... ...@.
  40657e:	0000 0080 0000 0100 0000 0200 0000 0400     ................
	...

00406590 <atanlo>:
  406590:	65e2 222f 2b7f 3c7a 5c07 3314 a626 3c81     .e/".+z<.\.3&..<
  4065a0:	cbbd 7af0 0788 3c70 5c07 3314 a626 3c91     ...z..p<.\.3&..<

004065b0 <atanhi>:
  4065b0:	bb4f 0561 ac67 3fdd 2d18 5444 21fb 3fe9     O.a.g..?.-DT.!.?
  4065c0:	f69b d281 730b 3fef 2d18 5444 21fb 3ff9     .....s.?.-DT.!.?
  4065d0:	7173 7472 0000 0000 0043 0000               sqrt....C...

004065dc <_global_impure_ptr>:
  4065dc:	0010 2040                                   ..@ 

004065e0 <fpinan.5370>:
  4065e0:	0034 0000 fbce ffff 03cb 0000 0001 0000     4...............
  4065f0:	0000 0000 666e 0000 6e69 7469 0079 0000     ....nf..inity...
  406600:	6e61 0000 0000 0000                         an......

00406608 <tinytens>:
  406608:	89bc 97d8 d2b2 3c9c a733 d5a8 f623 3949     .......<3...#.I9
  406618:	a73d 44f4 0ffd 32a5 979d cf8c ba08 255b     =..D...2......[%
  406628:	6f43 64ac 0628 1168                         Co.d(.h.

00406630 <fpi.5334>:
  406630:	0035 0000 fbce ffff 03cb 0000 0001 0000     5...............
  406640:	0000 0000                                   ....

00406644 <__hexdig>:
	...
  406674:	1110 1312 1514 1716 1918 0000 0000 0000     ................
  406684:	1a00 1c1b 1e1d 001f 0000 0000 0000 0000     ................
	...
  4066a4:	1a00 1c1b 1e1d 001f 0000 0000 0000 0000     ................
	...
  406744:	4f50 4953 0058 0000 002e 0000               POSIX.......

00406750 <__mprec_tens>:
  406750:	0000 0000 0000 3ff0 0000 0000 0000 4024     .......?......$@
  406760:	0000 0000 0000 4059 0000 0000 4000 408f     ......Y@.....@.@
  406770:	0000 0000 8800 40c3 0000 0000 6a00 40f8     .......@.....j.@
  406780:	0000 0000 8480 412e 0000 0000 12d0 4163     .......A......cA
  406790:	0000 0000 d784 4197 0000 0000 cd65 41cd     .......A....e..A
  4067a0:	0000 2000 a05f 4202 0000 e800 4876 4237     ... _..B....vH7B
  4067b0:	0000 a200 1a94 426d 0000 e540 309c 42a2     ......mB..@..0.B
  4067c0:	0000 1e90 bcc4 42d6 0000 2634 6bf5 430c     .......B..4&.k.C
  4067d0:	8000 37e0 c379 4341 a000 85d8 3457 4376     ...7y.AC....W4vC
  4067e0:	c800 674e c16d 43ab 3d00 6091 58e4 43e1     ..Ngm..C.=.`.X.C
  4067f0:	8c40 78b5 af1d 4415 ef50 d6e2 1ae4 444b     @..x...DP.....KD
  406800:	d592 064d f0cf 4480 4af6 c7e1 2d02 44b5     ..M....D.J...-.D
  406810:	9db4 79d9 7843 44ea                         ...yCx.D

00406818 <__mprec_bigtens>:
  406818:	8000 37e0 c379 4341 6e17 b505 b8b5 4693     ...7y.AC.n.....F
  406828:	f9f5 e93f 4f03 4d38 1d32 f930 7748 5a82     ..?..O8M2.0.Hw.Z
  406838:	bf3c 7f73 4fdd 7515                         <.s..O.u

00406840 <p05.5373>:
  406840:	0005 0000 0019 0000 007d 0000               ........}...

0040684c <_init>:
  40684c:	b5f8      	push	{r3, r4, r5, r6, r7, lr}
  40684e:	bf00      	nop
  406850:	bcf8      	pop	{r3, r4, r5, r6, r7}
  406852:	bc08      	pop	{r3}
  406854:	469e      	mov	lr, r3
  406856:	4770      	bx	lr

00406858 <__init_array_start>:
  406858:	0040493d 	.word	0x0040493d

0040685c <__frame_dummy_init_array_entry>:
  40685c:	00400165 004016f9                       e.@...@.

00406864 <_fini>:
  406864:	b5f8      	push	{r3, r4, r5, r6, r7, lr}
  406866:	bf00      	nop
  406868:	bcf8      	pop	{r3, r4, r5, r6, r7}
  40686a:	bc08      	pop	{r3}
  40686c:	469e      	mov	lr, r3
  40686e:	4770      	bx	lr

00406870 <__fini_array_start>:
  406870:	00400141 	.word	0x00400141
